---
triple:          'arm64-apple-darwin'
binary-path:     '/Users/jack/src/manabot.rules/managym/target/debug/deps/libmanagym.dylib'
relocations:
  - { offset: 0x1E, size: 0x8, addend: 0x0, symName: __ZN4core5slice4sort6stable9quicksort16stable_partition17hab62fbf42718e149E, symObjAddr: 0x0, symBinAddr: 0x888, symSize: 0x450 }
  - { offset: 0x1639, size: 0x8, addend: 0x0, symName: __ZN4core5slice4sort6stable9quicksort16stable_partition17hab62fbf42718e149E, symObjAddr: 0x0, symBinAddr: 0x888, symSize: 0x450 }
  - { offset: 0x1B01, size: 0x8, addend: 0x0, symName: __ZN4core5slice4sort6stable9quicksort16stable_partition17hb196475c1e548a48E, symObjAddr: 0x450, symBinAddr: 0xCD8, symSize: 0x428 }
  - { offset: 0x1F3C, size: 0x8, addend: 0x0, symName: __ZN4core5slice4sort6stable9quicksort16stable_partition17hb3deff64562102bbE, symObjAddr: 0x878, symBinAddr: 0x1100, symSize: 0x428 }
  - { offset: 0x2377, size: 0x8, addend: 0x0, symName: __ZN4core5slice4sort6stable9quicksort16stable_partition17he06a1b3fb7631cd7E, symObjAddr: 0xCA0, symBinAddr: 0x1528, symSize: 0x450 }
  - { offset: 0x283F, size: 0x8, addend: 0x0, symName: __ZN4core5slice4sort6stable9quicksort16stable_partition17he443ee41d5a846baE, symObjAddr: 0x10F0, symBinAddr: 0x1978, symSize: 0x4D4 }
  - { offset: 0x2CB8, size: 0x8, addend: 0x0, symName: __ZN4core5slice4sort6stable9quicksort16stable_partition17he8b58dbcf7036033E, symObjAddr: 0x15C4, symBinAddr: 0x1E4C, symSize: 0x4D4 }
  - { offset: 0x3131, size: 0x8, addend: 0x0, symName: __ZN4core5slice4sort6stable9quicksort9quicksort17h092944ad22c50070E, symObjAddr: 0x1E2C, symBinAddr: 0x26B4, symSize: 0x36C }
  - { offset: 0x33E2, size: 0x8, addend: 0x0, symName: __ZN4core5slice4sort6stable9quicksort9quicksort17h467f2e45ff59d14fE, symObjAddr: 0x2198, symBinAddr: 0x2A20, symSize: 0x354 }
  - { offset: 0x3693, size: 0x8, addend: 0x0, symName: __ZN4core5slice4sort6stable9quicksort9quicksort17hd9c5ba37bb7f1fe4E, symObjAddr: 0x24EC, symBinAddr: 0x2D74, symSize: 0x340 }
  - { offset: 0x392F, size: 0x8, addend: 0x0, symName: '__ZN4core5slice4sort6stable9quicksort9quicksort28_$u7b$$u7b$closure$u7d$$u7d$17h0cc687165840d431E', symObjAddr: 0x282C, symBinAddr: 0x30B4, symSize: 0x48 }
  - { offset: 0x398C, size: 0x8, addend: 0x0, symName: '__ZN4core5slice4sort6stable9quicksort9quicksort28_$u7b$$u7b$closure$u7d$$u7d$17h69380bd398f1e210E', symObjAddr: 0x2874, symBinAddr: 0x30FC, symSize: 0x48 }
  - { offset: 0x39E9, size: 0x8, addend: 0x0, symName: '__ZN4core5slice4sort6stable9quicksort9quicksort28_$u7b$$u7b$closure$u7d$$u7d$17he40ae275668614feE', symObjAddr: 0x28BC, symBinAddr: 0x3144, symSize: 0x48 }
  - { offset: 0x4544, size: 0x8, addend: 0x0, symName: '__ZN4core5slice4sort6stable9quicksort23PartitionState$LT$T$GT$13partition_one17h0cee35395bb30db1E', symObjAddr: 0x1A98, symBinAddr: 0x2320, symSize: 0x134 }
  - { offset: 0x463A, size: 0x8, addend: 0x0, symName: '__ZN4core5slice4sort6stable9quicksort23PartitionState$LT$T$GT$13partition_one17h1541f41e69b2eedcE', symObjAddr: 0x1BCC, symBinAddr: 0x2454, symSize: 0x13C }
  - { offset: 0x4730, size: 0x8, addend: 0x0, symName: '__ZN4core5slice4sort6stable9quicksort23PartitionState$LT$T$GT$13partition_one17hd9751548c4e5d3c5E', symObjAddr: 0x1D08, symBinAddr: 0x2590, symSize: 0x124 }
  - { offset: 0x49BC, size: 0x8, addend: 0x0, symName: '__ZN4core4bool22_$LT$impl$u20$bool$GT$9then_some17h7b8c842a3cbc4e02E', symObjAddr: 0x0, symBinAddr: 0x318C, symSize: 0x5C }
  - { offset: 0x49D8, size: 0x8, addend: 0x0, symName: '__ZN4core4bool22_$LT$impl$u20$bool$GT$9then_some17h7b8c842a3cbc4e02E', symObjAddr: 0x0, symBinAddr: 0x318C, symSize: 0x5C }
  - { offset: 0x4A1C, size: 0x8, addend: 0x0, symName: '__ZN4core4bool22_$LT$impl$u20$bool$GT$9then_some17ha00b448c9d7de126E', symObjAddr: 0x5C, symBinAddr: 0x31E8, symSize: 0x44 }
  - { offset: 0x4E18, size: 0x8, addend: 0x0, symName: '__ZN129_$LT$$u5b$core..mem..maybe_uninit..MaybeUninit$LT$T$GT$$u3b$$u20$N$u5d$$u20$as$u20$core..array..iter..iter_inner..PartialDrop$GT$12partial_drop17h2401805cf424bed5E', symObjAddr: 0x0, symBinAddr: 0x322C, symSize: 0x4C }
  - { offset: 0x55E1, size: 0x8, addend: 0x0, symName: '__ZN129_$LT$$u5b$core..mem..maybe_uninit..MaybeUninit$LT$T$GT$$u3b$$u20$N$u5d$$u20$as$u20$core..array..iter..iter_inner..PartialDrop$GT$12partial_drop17h2401805cf424bed5E', symObjAddr: 0x0, symBinAddr: 0x322C, symSize: 0x4C }
  - { offset: 0x6512, size: 0x8, addend: 0x0, symName: '__ZN106_$LT$core..slice..iter..Iter$LT$T$GT$$u20$as$u20$core..iter..traits..double_ended..DoubleEndedIterator$GT$9next_back17hc0cfa3b81f238f53E', symObjAddr: 0x0, symBinAddr: 0x3278, symSize: 0xE8 }
  - { offset: 0x8C23, size: 0x8, addend: 0x0, symName: '__ZN106_$LT$core..slice..iter..Iter$LT$T$GT$$u20$as$u20$core..iter..traits..double_ended..DoubleEndedIterator$GT$9next_back17hc0cfa3b81f238f53E', symObjAddr: 0x0, symBinAddr: 0x3278, symSize: 0xE8 }
  - { offset: 0x8D71, size: 0x8, addend: 0x0, symName: '__ZN106_$LT$core..slice..iter..Iter$LT$T$GT$$u20$as$u20$core..iter..traits..double_ended..DoubleEndedIterator$GT$9next_back17he0be900f7c5aaafeE', symObjAddr: 0xE8, symBinAddr: 0x3360, symSize: 0xE8 }
  - { offset: 0x993A, size: 0x8, addend: 0x0, symName: '__ZN91_$LT$core..slice..iter..Iter$LT$T$GT$$u20$as$u20$core..iter..traits..iterator..Iterator$GT$3any17h0e596a2b184e15c2E', symObjAddr: 0x1D38, symBinAddr: 0x4FB0, symSize: 0xE4 }
  - { offset: 0x9A15, size: 0x8, addend: 0x0, symName: '__ZN91_$LT$core..slice..iter..Iter$LT$T$GT$$u20$as$u20$core..iter..traits..iterator..Iterator$GT$4fold17h01bfc76a03463c03E', symObjAddr: 0x1E1C, symBinAddr: 0x5094, symSize: 0x1A0 }
  - { offset: 0x9B4B, size: 0x8, addend: 0x0, symName: '__ZN91_$LT$core..slice..iter..Iter$LT$T$GT$$u20$as$u20$core..iter..traits..iterator..Iterator$GT$4fold17h03274e69010af147E', symObjAddr: 0x1FBC, symBinAddr: 0x5234, symSize: 0x1A8 }
  - { offset: 0x9C81, size: 0x8, addend: 0x0, symName: '__ZN91_$LT$core..slice..iter..Iter$LT$T$GT$$u20$as$u20$core..iter..traits..iterator..Iterator$GT$4fold17h0961f723f11c780dE', symObjAddr: 0x2164, symBinAddr: 0x53DC, symSize: 0x1A0 }
  - { offset: 0x9DB7, size: 0x8, addend: 0x0, symName: '__ZN91_$LT$core..slice..iter..Iter$LT$T$GT$$u20$as$u20$core..iter..traits..iterator..Iterator$GT$4fold17h14a98b83b7feb10bE', symObjAddr: 0x2304, symBinAddr: 0x557C, symSize: 0x1A8 }
  - { offset: 0x9EED, size: 0x8, addend: 0x0, symName: '__ZN91_$LT$core..slice..iter..Iter$LT$T$GT$$u20$as$u20$core..iter..traits..iterator..Iterator$GT$4fold17h2e6247e0566634edE', symObjAddr: 0x24AC, symBinAddr: 0x5724, symSize: 0x1A0 }
  - { offset: 0xA023, size: 0x8, addend: 0x0, symName: '__ZN91_$LT$core..slice..iter..Iter$LT$T$GT$$u20$as$u20$core..iter..traits..iterator..Iterator$GT$4fold17h2eb31e78249777efE', symObjAddr: 0x264C, symBinAddr: 0x58C4, symSize: 0x1A0 }
  - { offset: 0xA159, size: 0x8, addend: 0x0, symName: '__ZN91_$LT$core..slice..iter..Iter$LT$T$GT$$u20$as$u20$core..iter..traits..iterator..Iterator$GT$4fold17h38774c14a4c67554E', symObjAddr: 0x27EC, symBinAddr: 0x5A64, symSize: 0x1A8 }
  - { offset: 0xA28F, size: 0x8, addend: 0x0, symName: '__ZN91_$LT$core..slice..iter..Iter$LT$T$GT$$u20$as$u20$core..iter..traits..iterator..Iterator$GT$4fold17h420e4a5143f0695fE', symObjAddr: 0x2994, symBinAddr: 0x5C0C, symSize: 0x1A8 }
  - { offset: 0xA3C5, size: 0x8, addend: 0x0, symName: '__ZN91_$LT$core..slice..iter..Iter$LT$T$GT$$u20$as$u20$core..iter..traits..iterator..Iterator$GT$4fold17h4506258e9d1ae0cdE', symObjAddr: 0x2B3C, symBinAddr: 0x5DB4, symSize: 0x1A0 }
  - { offset: 0xA4FB, size: 0x8, addend: 0x0, symName: '__ZN91_$LT$core..slice..iter..Iter$LT$T$GT$$u20$as$u20$core..iter..traits..iterator..Iterator$GT$4fold17h5f7c3a1203035cafE', symObjAddr: 0x2CDC, symBinAddr: 0x5F54, symSize: 0x1AC }
  - { offset: 0xA635, size: 0x8, addend: 0x0, symName: '__ZN91_$LT$core..slice..iter..Iter$LT$T$GT$$u20$as$u20$core..iter..traits..iterator..Iterator$GT$4fold17h62b8f8493b1651b1E', symObjAddr: 0x2E88, symBinAddr: 0x6100, symSize: 0x1A8 }
  - { offset: 0xA76B, size: 0x8, addend: 0x0, symName: '__ZN91_$LT$core..slice..iter..Iter$LT$T$GT$$u20$as$u20$core..iter..traits..iterator..Iterator$GT$4fold17h85b9890af969f7a6E', symObjAddr: 0x3030, symBinAddr: 0x62A8, symSize: 0x1A4 }
  - { offset: 0xA8A3, size: 0x8, addend: 0x0, symName: '__ZN91_$LT$core..slice..iter..Iter$LT$T$GT$$u20$as$u20$core..iter..traits..iterator..Iterator$GT$4fold17h8856b725ca656695E', symObjAddr: 0x31D4, symBinAddr: 0x644C, symSize: 0x1A8 }
  - { offset: 0xA9D9, size: 0x8, addend: 0x0, symName: '__ZN91_$LT$core..slice..iter..Iter$LT$T$GT$$u20$as$u20$core..iter..traits..iterator..Iterator$GT$4fold17h89602a1b105e1068E', symObjAddr: 0x337C, symBinAddr: 0x65F4, symSize: 0x1A8 }
  - { offset: 0xAB0F, size: 0x8, addend: 0x0, symName: '__ZN91_$LT$core..slice..iter..Iter$LT$T$GT$$u20$as$u20$core..iter..traits..iterator..Iterator$GT$4fold17h93ca80d1c3e04c92E', symObjAddr: 0x3524, symBinAddr: 0x679C, symSize: 0x1A4 }
  - { offset: 0xAC47, size: 0x8, addend: 0x0, symName: '__ZN91_$LT$core..slice..iter..Iter$LT$T$GT$$u20$as$u20$core..iter..traits..iterator..Iterator$GT$4fold17hb030c61717b9d134E', symObjAddr: 0x36C8, symBinAddr: 0x6940, symSize: 0x1A0 }
  - { offset: 0xAD7D, size: 0x8, addend: 0x0, symName: '__ZN91_$LT$core..slice..iter..Iter$LT$T$GT$$u20$as$u20$core..iter..traits..iterator..Iterator$GT$4fold17hdeb646dbfc74c591E', symObjAddr: 0x3868, symBinAddr: 0x6AE0, symSize: 0x1A4 }
  - { offset: 0xAEB5, size: 0x8, addend: 0x0, symName: '__ZN91_$LT$core..slice..iter..Iter$LT$T$GT$$u20$as$u20$core..iter..traits..iterator..Iterator$GT$4fold17he36c315aa11c744aE', symObjAddr: 0x3A0C, symBinAddr: 0x6C84, symSize: 0x1A0 }
  - { offset: 0xAFEB, size: 0x8, addend: 0x0, symName: '__ZN91_$LT$core..slice..iter..Iter$LT$T$GT$$u20$as$u20$core..iter..traits..iterator..Iterator$GT$4fold17hf991b2a32e5ded5dE', symObjAddr: 0x3BAC, symBinAddr: 0x6E24, symSize: 0x214 }
  - { offset: 0xB127, size: 0x8, addend: 0x0, symName: '__ZN91_$LT$core..slice..iter..Iter$LT$T$GT$$u20$as$u20$core..iter..traits..iterator..Iterator$GT$4fold17hfa0a5a4239b4dd47E', symObjAddr: 0x3DC0, symBinAddr: 0x7038, symSize: 0x1A8 }
  - { offset: 0xB25D, size: 0x8, addend: 0x0, symName: '__ZN91_$LT$core..slice..iter..Iter$LT$T$GT$$u20$as$u20$core..iter..traits..iterator..Iterator$GT$4next17h043971d4e2b877f1E', symObjAddr: 0x3F68, symBinAddr: 0x71E0, symSize: 0x84 }
  - { offset: 0xB313, size: 0x8, addend: 0x0, symName: '__ZN91_$LT$core..slice..iter..Iter$LT$T$GT$$u20$as$u20$core..iter..traits..iterator..Iterator$GT$4next17h048291d4a9d821a3E', symObjAddr: 0x3FEC, symBinAddr: 0x7264, symSize: 0x84 }
  - { offset: 0xB3C9, size: 0x8, addend: 0x0, symName: '__ZN91_$LT$core..slice..iter..Iter$LT$T$GT$$u20$as$u20$core..iter..traits..iterator..Iterator$GT$4next17h05b83b9819d124d0E', symObjAddr: 0x4070, symBinAddr: 0x72E8, symSize: 0x84 }
  - { offset: 0xB47F, size: 0x8, addend: 0x0, symName: '__ZN91_$LT$core..slice..iter..Iter$LT$T$GT$$u20$as$u20$core..iter..traits..iterator..Iterator$GT$4next17h09360ac58f4fa3e0E', symObjAddr: 0x40F4, symBinAddr: 0x736C, symSize: 0x84 }
  - { offset: 0xB535, size: 0x8, addend: 0x0, symName: '__ZN91_$LT$core..slice..iter..Iter$LT$T$GT$$u20$as$u20$core..iter..traits..iterator..Iterator$GT$4next17h1113186070c9fb0bE', symObjAddr: 0x4178, symBinAddr: 0x73F0, symSize: 0x84 }
  - { offset: 0xB5EB, size: 0x8, addend: 0x0, symName: '__ZN91_$LT$core..slice..iter..Iter$LT$T$GT$$u20$as$u20$core..iter..traits..iterator..Iterator$GT$4next17h1814d48636ac3f1cE', symObjAddr: 0x41FC, symBinAddr: 0x7474, symSize: 0x84 }
  - { offset: 0xB6A1, size: 0x8, addend: 0x0, symName: '__ZN91_$LT$core..slice..iter..Iter$LT$T$GT$$u20$as$u20$core..iter..traits..iterator..Iterator$GT$4next17h2432e38770fb68ddE', symObjAddr: 0x4280, symBinAddr: 0x74F8, symSize: 0x84 }
  - { offset: 0xB757, size: 0x8, addend: 0x0, symName: '__ZN91_$LT$core..slice..iter..Iter$LT$T$GT$$u20$as$u20$core..iter..traits..iterator..Iterator$GT$4next17h2b2cf6686df626fbE', symObjAddr: 0x4304, symBinAddr: 0x757C, symSize: 0x84 }
  - { offset: 0xB80D, size: 0x8, addend: 0x0, symName: '__ZN91_$LT$core..slice..iter..Iter$LT$T$GT$$u20$as$u20$core..iter..traits..iterator..Iterator$GT$4next17h2fb95ebf8c854c29E', symObjAddr: 0x4388, symBinAddr: 0x7600, symSize: 0x84 }
  - { offset: 0xB8C3, size: 0x8, addend: 0x0, symName: '__ZN91_$LT$core..slice..iter..Iter$LT$T$GT$$u20$as$u20$core..iter..traits..iterator..Iterator$GT$4next17h3444e8dedc85eeb0E', symObjAddr: 0x440C, symBinAddr: 0x7684, symSize: 0x84 }
  - { offset: 0xB979, size: 0x8, addend: 0x0, symName: '__ZN91_$LT$core..slice..iter..Iter$LT$T$GT$$u20$as$u20$core..iter..traits..iterator..Iterator$GT$4next17h34d7e6219325d875E', symObjAddr: 0x4490, symBinAddr: 0x7708, symSize: 0x84 }
  - { offset: 0xBA2F, size: 0x8, addend: 0x0, symName: '__ZN91_$LT$core..slice..iter..Iter$LT$T$GT$$u20$as$u20$core..iter..traits..iterator..Iterator$GT$4next17h35d2f17fe75a7071E', symObjAddr: 0x4514, symBinAddr: 0x778C, symSize: 0x84 }
  - { offset: 0xBAE5, size: 0x8, addend: 0x0, symName: '__ZN91_$LT$core..slice..iter..Iter$LT$T$GT$$u20$as$u20$core..iter..traits..iterator..Iterator$GT$4next17h3c1ae70e50ad601bE', symObjAddr: 0x4598, symBinAddr: 0x7810, symSize: 0x84 }
  - { offset: 0xBB9B, size: 0x8, addend: 0x0, symName: '__ZN91_$LT$core..slice..iter..Iter$LT$T$GT$$u20$as$u20$core..iter..traits..iterator..Iterator$GT$4next17h48fd3ebdd1cb653dE', symObjAddr: 0x461C, symBinAddr: 0x7894, symSize: 0x84 }
  - { offset: 0xBC51, size: 0x8, addend: 0x0, symName: '__ZN91_$LT$core..slice..iter..Iter$LT$T$GT$$u20$as$u20$core..iter..traits..iterator..Iterator$GT$4next17h4fa7a140886d65b4E', symObjAddr: 0x46A0, symBinAddr: 0x7918, symSize: 0x84 }
  - { offset: 0xBD07, size: 0x8, addend: 0x0, symName: '__ZN91_$LT$core..slice..iter..Iter$LT$T$GT$$u20$as$u20$core..iter..traits..iterator..Iterator$GT$4next17h53b74f4e7a8d991fE', symObjAddr: 0x4724, symBinAddr: 0x799C, symSize: 0x84 }
  - { offset: 0xBDBD, size: 0x8, addend: 0x0, symName: '__ZN91_$LT$core..slice..iter..Iter$LT$T$GT$$u20$as$u20$core..iter..traits..iterator..Iterator$GT$4next17h5aa59d0726ea061eE', symObjAddr: 0x47A8, symBinAddr: 0x7A20, symSize: 0x84 }
  - { offset: 0xBE73, size: 0x8, addend: 0x0, symName: '__ZN91_$LT$core..slice..iter..Iter$LT$T$GT$$u20$as$u20$core..iter..traits..iterator..Iterator$GT$4next17h5d23d8f95c9727c8E', symObjAddr: 0x482C, symBinAddr: 0x7AA4, symSize: 0x84 }
  - { offset: 0xBF29, size: 0x8, addend: 0x0, symName: '__ZN91_$LT$core..slice..iter..Iter$LT$T$GT$$u20$as$u20$core..iter..traits..iterator..Iterator$GT$4next17h6a0e2d96273be5edE', symObjAddr: 0x48B0, symBinAddr: 0x7B28, symSize: 0x84 }
  - { offset: 0xBFDF, size: 0x8, addend: 0x0, symName: '__ZN91_$LT$core..slice..iter..Iter$LT$T$GT$$u20$as$u20$core..iter..traits..iterator..Iterator$GT$4next17h6b9e324cc7794237E', symObjAddr: 0x4934, symBinAddr: 0x7BAC, symSize: 0x84 }
  - { offset: 0xC095, size: 0x8, addend: 0x0, symName: '__ZN91_$LT$core..slice..iter..Iter$LT$T$GT$$u20$as$u20$core..iter..traits..iterator..Iterator$GT$4next17h88cb63bb14b61905E', symObjAddr: 0x49B8, symBinAddr: 0x7C30, symSize: 0x84 }
  - { offset: 0xC14B, size: 0x8, addend: 0x0, symName: '__ZN91_$LT$core..slice..iter..Iter$LT$T$GT$$u20$as$u20$core..iter..traits..iterator..Iterator$GT$4next17h8f4d6e7e21fad33cE', symObjAddr: 0x4A3C, symBinAddr: 0x7CB4, symSize: 0x84 }
  - { offset: 0xC201, size: 0x8, addend: 0x0, symName: '__ZN91_$LT$core..slice..iter..Iter$LT$T$GT$$u20$as$u20$core..iter..traits..iterator..Iterator$GT$4next17h9161e799c427a04dE', symObjAddr: 0x4AC0, symBinAddr: 0x7D38, symSize: 0x84 }
  - { offset: 0xC2B7, size: 0x8, addend: 0x0, symName: '__ZN91_$LT$core..slice..iter..Iter$LT$T$GT$$u20$as$u20$core..iter..traits..iterator..Iterator$GT$4next17hbee6174bb823a82eE', symObjAddr: 0x4B44, symBinAddr: 0x7DBC, symSize: 0x84 }
  - { offset: 0xC36D, size: 0x8, addend: 0x0, symName: '__ZN91_$LT$core..slice..iter..Iter$LT$T$GT$$u20$as$u20$core..iter..traits..iterator..Iterator$GT$4next17hd3aa1315be2d52c2E', symObjAddr: 0x4BC8, symBinAddr: 0x7E40, symSize: 0x84 }
  - { offset: 0xC423, size: 0x8, addend: 0x0, symName: '__ZN91_$LT$core..slice..iter..Iter$LT$T$GT$$u20$as$u20$core..iter..traits..iterator..Iterator$GT$4next17hd8f26fb515a97b71E', symObjAddr: 0x4C4C, symBinAddr: 0x7EC4, symSize: 0x84 }
  - { offset: 0xC4D9, size: 0x8, addend: 0x0, symName: '__ZN91_$LT$core..slice..iter..Iter$LT$T$GT$$u20$as$u20$core..iter..traits..iterator..Iterator$GT$4next17he3a7e2bd122d8bafE', symObjAddr: 0x4CD0, symBinAddr: 0x7F48, symSize: 0x84 }
  - { offset: 0xC5DE, size: 0x8, addend: 0x0, symName: '__ZN91_$LT$core..slice..iter..Iter$LT$T$GT$$u20$as$u20$core..iter..traits..iterator..Iterator$GT$8find_map17h10edc3c509dc7caeE', symObjAddr: 0x4D54, symBinAddr: 0x7FCC, symSize: 0xF8 }
  - { offset: 0xC727, size: 0x8, addend: 0x0, symName: '__ZN91_$LT$core..slice..iter..Iter$LT$T$GT$$u20$as$u20$core..iter..traits..iterator..Iterator$GT$8find_map17h56d2d8c7d5afc719E', symObjAddr: 0x4E4C, symBinAddr: 0x80C4, symSize: 0x104 }
  - { offset: 0xC86E, size: 0x8, addend: 0x0, symName: '__ZN91_$LT$core..slice..iter..Iter$LT$T$GT$$u20$as$u20$core..iter..traits..iterator..Iterator$GT$8find_map17hf1c334239bb6ba4cE', symObjAddr: 0x4F50, symBinAddr: 0x81C8, symSize: 0x100 }
  - { offset: 0xC9B6, size: 0x8, addend: 0x0, symName: '__ZN91_$LT$core..slice..iter..Iter$LT$T$GT$$u20$as$u20$core..iter..traits..iterator..Iterator$GT$8position17h4fa079ae5fa694caE', symObjAddr: 0x5050, symBinAddr: 0x82C8, symSize: 0x194 }
  - { offset: 0xCB43, size: 0x8, addend: 0x0, symName: '__ZN91_$LT$core..slice..iter..Iter$LT$T$GT$$u20$as$u20$core..iter..traits..iterator..Iterator$GT$8position17h99f34d360105cfdeE', symObjAddr: 0x51E4, symBinAddr: 0x845C, symSize: 0x190 }
  - { offset: 0xCCD0, size: 0x8, addend: 0x0, symName: '__ZN91_$LT$core..slice..iter..Iter$LT$T$GT$$u20$as$u20$core..iter..traits..iterator..Iterator$GT$8position17hd024d7c4bb7ebe62E', symObjAddr: 0x5374, symBinAddr: 0x85EC, symSize: 0x190 }
  - { offset: 0xCE5D, size: 0x8, addend: 0x0, symName: '__ZN91_$LT$core..slice..iter..Iter$LT$T$GT$$u20$as$u20$core..iter..traits..iterator..Iterator$GT$8position17he7bd61b2533bead1E', symObjAddr: 0x5504, symBinAddr: 0x877C, symSize: 0x194 }
  - { offset: 0xCFEA, size: 0x8, addend: 0x0, symName: '__ZN91_$LT$core..slice..iter..Iter$LT$T$GT$$u20$as$u20$core..iter..traits..iterator..Iterator$GT$8position17he92202b576dc47ceE', symObjAddr: 0x5698, symBinAddr: 0x8910, symSize: 0x194 }
  - { offset: 0xD128, size: 0x8, addend: 0x0, symName: '__ZN91_$LT$core..slice..iter..Iter$LT$T$GT$$u20$as$u20$core..iter..traits..iterator..Iterator$GT$9rposition17h19560ba8d6178666E', symObjAddr: 0x582C, symBinAddr: 0x8AA4, symSize: 0x164 }
  - { offset: 0xD1ED, size: 0x8, addend: 0x0, symName: '__ZN91_$LT$core..slice..iter..Iter$LT$T$GT$$u20$as$u20$core..iter..traits..iterator..Iterator$GT$9size_hint17h2344893766e1f68cE', symObjAddr: 0x5990, symBinAddr: 0x8C08, symSize: 0x60 }
  - { offset: 0xD25C, size: 0x8, addend: 0x0, symName: '__ZN91_$LT$core..slice..iter..Iter$LT$T$GT$$u20$as$u20$core..iter..traits..iterator..Iterator$GT$9size_hint17h2c88f5dac108056bE', symObjAddr: 0x59F0, symBinAddr: 0x8C68, symSize: 0x60 }
  - { offset: 0xD2CB, size: 0x8, addend: 0x0, symName: '__ZN91_$LT$core..slice..iter..Iter$LT$T$GT$$u20$as$u20$core..iter..traits..iterator..Iterator$GT$9size_hint17h33d3818f73f85430E', symObjAddr: 0x5A50, symBinAddr: 0x8CC8, symSize: 0x60 }
  - { offset: 0xD33A, size: 0x8, addend: 0x0, symName: '__ZN91_$LT$core..slice..iter..Iter$LT$T$GT$$u20$as$u20$core..iter..traits..iterator..Iterator$GT$9size_hint17h374afb3305d90b1bE', symObjAddr: 0x5AB0, symBinAddr: 0x8D28, symSize: 0x60 }
  - { offset: 0xD3A9, size: 0x8, addend: 0x0, symName: '__ZN91_$LT$core..slice..iter..Iter$LT$T$GT$$u20$as$u20$core..iter..traits..iterator..Iterator$GT$9size_hint17h37d9c5700afb2785E', symObjAddr: 0x5B10, symBinAddr: 0x8D88, symSize: 0x60 }
  - { offset: 0xD418, size: 0x8, addend: 0x0, symName: '__ZN91_$LT$core..slice..iter..Iter$LT$T$GT$$u20$as$u20$core..iter..traits..iterator..Iterator$GT$9size_hint17h840a66857ef44340E', symObjAddr: 0x5B70, symBinAddr: 0x8DE8, symSize: 0x60 }
  - { offset: 0xD487, size: 0x8, addend: 0x0, symName: '__ZN91_$LT$core..slice..iter..Iter$LT$T$GT$$u20$as$u20$core..iter..traits..iterator..Iterator$GT$9size_hint17h8e16fd4f2d278960E', symObjAddr: 0x5BD0, symBinAddr: 0x8E48, symSize: 0x60 }
  - { offset: 0xD4F6, size: 0x8, addend: 0x0, symName: '__ZN91_$LT$core..slice..iter..Iter$LT$T$GT$$u20$as$u20$core..iter..traits..iterator..Iterator$GT$9size_hint17h9226c4ee02515ac4E', symObjAddr: 0x5C30, symBinAddr: 0x8EA8, symSize: 0x60 }
  - { offset: 0xD565, size: 0x8, addend: 0x0, symName: '__ZN91_$LT$core..slice..iter..Iter$LT$T$GT$$u20$as$u20$core..iter..traits..iterator..Iterator$GT$9size_hint17h9acfac9366139895E', symObjAddr: 0x5C90, symBinAddr: 0x8F08, symSize: 0x60 }
  - { offset: 0xD5D4, size: 0x8, addend: 0x0, symName: '__ZN91_$LT$core..slice..iter..Iter$LT$T$GT$$u20$as$u20$core..iter..traits..iterator..Iterator$GT$9size_hint17ha8b31ebc5fd4c3d8E', symObjAddr: 0x5CF0, symBinAddr: 0x8F68, symSize: 0x60 }
  - { offset: 0xD643, size: 0x8, addend: 0x0, symName: '__ZN91_$LT$core..slice..iter..Iter$LT$T$GT$$u20$as$u20$core..iter..traits..iterator..Iterator$GT$9size_hint17hbc36796517979b67E', symObjAddr: 0x5D50, symBinAddr: 0x8FC8, symSize: 0x60 }
  - { offset: 0xD6B2, size: 0x8, addend: 0x0, symName: '__ZN91_$LT$core..slice..iter..Iter$LT$T$GT$$u20$as$u20$core..iter..traits..iterator..Iterator$GT$9size_hint17hbcb2162c3332f797E', symObjAddr: 0x5DB0, symBinAddr: 0x9028, symSize: 0x60 }
  - { offset: 0xD721, size: 0x8, addend: 0x0, symName: '__ZN91_$LT$core..slice..iter..Iter$LT$T$GT$$u20$as$u20$core..iter..traits..iterator..Iterator$GT$9size_hint17hc97fe87915ef6772E', symObjAddr: 0x5E10, symBinAddr: 0x9088, symSize: 0x60 }
  - { offset: 0xD790, size: 0x8, addend: 0x0, symName: '__ZN91_$LT$core..slice..iter..Iter$LT$T$GT$$u20$as$u20$core..iter..traits..iterator..Iterator$GT$9size_hint17hcea9b076ec758a06E', symObjAddr: 0x5E70, symBinAddr: 0x90E8, symSize: 0x60 }
  - { offset: 0xD7FF, size: 0x8, addend: 0x0, symName: '__ZN91_$LT$core..slice..iter..Iter$LT$T$GT$$u20$as$u20$core..iter..traits..iterator..Iterator$GT$9size_hint17hd6fb837919dd0026E', symObjAddr: 0x5ED0, symBinAddr: 0x9148, symSize: 0x60 }
  - { offset: 0xD86E, size: 0x8, addend: 0x0, symName: '__ZN91_$LT$core..slice..iter..Iter$LT$T$GT$$u20$as$u20$core..iter..traits..iterator..Iterator$GT$9size_hint17hf1ea5e7b9985a37fE', symObjAddr: 0x5F30, symBinAddr: 0x91A8, symSize: 0x60 }
  - { offset: 0xD94F, size: 0x8, addend: 0x0, symName: '__ZN94_$LT$core..slice..iter..IterMut$LT$T$GT$$u20$as$u20$core..iter..traits..iterator..Iterator$GT$4next17h025c879c82694038E', symObjAddr: 0x5F90, symBinAddr: 0x9208, symSize: 0x84 }
  - { offset: 0xDA05, size: 0x8, addend: 0x0, symName: '__ZN94_$LT$core..slice..iter..IterMut$LT$T$GT$$u20$as$u20$core..iter..traits..iterator..Iterator$GT$4next17h2a516f5355b722d1E', symObjAddr: 0x6014, symBinAddr: 0x928C, symSize: 0x84 }
  - { offset: 0xDABB, size: 0x8, addend: 0x0, symName: '__ZN94_$LT$core..slice..iter..IterMut$LT$T$GT$$u20$as$u20$core..iter..traits..iterator..Iterator$GT$4next17ha0529f0b66325371E', symObjAddr: 0x6098, symBinAddr: 0x9310, symSize: 0x84 }
  - { offset: 0xDB71, size: 0x8, addend: 0x0, symName: '__ZN94_$LT$core..slice..iter..IterMut$LT$T$GT$$u20$as$u20$core..iter..traits..iterator..Iterator$GT$4next17hdf72be0161add90cE', symObjAddr: 0x611C, symBinAddr: 0x9394, symSize: 0x84 }
  - { offset: 0x113F5, size: 0x8, addend: 0x0, symName: __ZN4core4iter6traits12double_ended19DoubleEndedIterator9try_rfold17h74c4d5e3d21dfe67E, symObjAddr: 0x1D0, symBinAddr: 0x3448, symSize: 0x174 }
  - { offset: 0x114AD, size: 0x8, addend: 0x0, symName: __ZN4core4iter6traits8iterator8Iterator10filter_map17h29092ef2c39a2ec5E, symObjAddr: 0x344, symBinAddr: 0x35BC, symSize: 0x30 }
  - { offset: 0x1151A, size: 0x8, addend: 0x0, symName: __ZN4core4iter6traits8iterator8Iterator10filter_map17h45ee6ac5b0239fcfE, symObjAddr: 0x374, symBinAddr: 0x35EC, symSize: 0x30 }
  - { offset: 0x11587, size: 0x8, addend: 0x0, symName: __ZN4core4iter6traits8iterator8Iterator12try_for_each17h50fd89d723d6ab1bE, symObjAddr: 0x3A4, symBinAddr: 0x361C, symSize: 0x2C }
  - { offset: 0x115DF, size: 0x8, addend: 0x0, symName: __ZN4core4iter6traits8iterator8Iterator12try_for_each17hbec1f076baf530e7E, symObjAddr: 0x3D0, symBinAddr: 0x3648, symSize: 0x2C }
  - { offset: 0x11637, size: 0x8, addend: 0x0, symName: __ZN4core4iter6traits8iterator8Iterator3map17h0401b96a690f0110E, symObjAddr: 0x3FC, symBinAddr: 0x3674, symSize: 0x1C }
  - { offset: 0x1168F, size: 0x8, addend: 0x0, symName: __ZN4core4iter6traits8iterator8Iterator3map17h08d612639c1cd458E, symObjAddr: 0x418, symBinAddr: 0x3690, symSize: 0x30 }
  - { offset: 0x116FC, size: 0x8, addend: 0x0, symName: __ZN4core4iter6traits8iterator8Iterator3map17h09d5f8241a099609E, symObjAddr: 0x448, symBinAddr: 0x36C0, symSize: 0x1C }
  - { offset: 0x11754, size: 0x8, addend: 0x0, symName: __ZN4core4iter6traits8iterator8Iterator3map17h0e8fdcbf686812c0E, symObjAddr: 0x464, symBinAddr: 0x36DC, symSize: 0x1C }
  - { offset: 0x117AC, size: 0x8, addend: 0x0, symName: __ZN4core4iter6traits8iterator8Iterator3map17h13ed4ed61f2b3560E, symObjAddr: 0x480, symBinAddr: 0x36F8, symSize: 0x1C }
  - { offset: 0x11804, size: 0x8, addend: 0x0, symName: __ZN4core4iter6traits8iterator8Iterator3map17h1cdfcee01e6174c8E, symObjAddr: 0x49C, symBinAddr: 0x3714, symSize: 0x1C }
  - { offset: 0x1185C, size: 0x8, addend: 0x0, symName: __ZN4core4iter6traits8iterator8Iterator3map17h27571da120790c2bE, symObjAddr: 0x4B8, symBinAddr: 0x3730, symSize: 0x30 }
  - { offset: 0x118C9, size: 0x8, addend: 0x0, symName: __ZN4core4iter6traits8iterator8Iterator3map17h4d1f7ad270f77ceeE, symObjAddr: 0x4E8, symBinAddr: 0x3760, symSize: 0x1C }
  - { offset: 0x11921, size: 0x8, addend: 0x0, symName: __ZN4core4iter6traits8iterator8Iterator3map17h53c943972af2ab3fE, symObjAddr: 0x504, symBinAddr: 0x377C, symSize: 0x1C }
  - { offset: 0x11979, size: 0x8, addend: 0x0, symName: __ZN4core4iter6traits8iterator8Iterator3map17h5edca525519d89b4E, symObjAddr: 0x520, symBinAddr: 0x3798, symSize: 0x1C }
  - { offset: 0x119D1, size: 0x8, addend: 0x0, symName: __ZN4core4iter6traits8iterator8Iterator3map17h710d12636b85fd2cE, symObjAddr: 0x53C, symBinAddr: 0x37B4, symSize: 0x1C }
  - { offset: 0x11A29, size: 0x8, addend: 0x0, symName: __ZN4core4iter6traits8iterator8Iterator3map17h873f9ff460b55a3cE, symObjAddr: 0x558, symBinAddr: 0x37D0, symSize: 0x1C }
  - { offset: 0x11A81, size: 0x8, addend: 0x0, symName: __ZN4core4iter6traits8iterator8Iterator3map17h93559aa699feda65E, symObjAddr: 0x574, symBinAddr: 0x37EC, symSize: 0x1C }
  - { offset: 0x11AD9, size: 0x8, addend: 0x0, symName: __ZN4core4iter6traits8iterator8Iterator3map17ha128a43814c3a5f8E, symObjAddr: 0x590, symBinAddr: 0x3808, symSize: 0x1C }
  - { offset: 0x11B31, size: 0x8, addend: 0x0, symName: __ZN4core4iter6traits8iterator8Iterator3map17hb3c6634a78d71abfE, symObjAddr: 0x5AC, symBinAddr: 0x3824, symSize: 0x30 }
  - { offset: 0x11B9E, size: 0x8, addend: 0x0, symName: __ZN4core4iter6traits8iterator8Iterator3map17hcf23aea6296afb3dE, symObjAddr: 0x5DC, symBinAddr: 0x3854, symSize: 0x1C }
  - { offset: 0x11BF6, size: 0x8, addend: 0x0, symName: __ZN4core4iter6traits8iterator8Iterator3map17hd7699720ccdc5a8fE, symObjAddr: 0x5F8, symBinAddr: 0x3870, symSize: 0x1C }
  - { offset: 0x11C4E, size: 0x8, addend: 0x0, symName: __ZN4core4iter6traits8iterator8Iterator3map17hfa8196c566de0de2E, symObjAddr: 0x614, symBinAddr: 0x388C, symSize: 0x1C }
  - { offset: 0x11CA6, size: 0x8, addend: 0x0, symName: __ZN4core4iter6traits8iterator8Iterator3rev17h03d61f311c7cffe7E, symObjAddr: 0x630, symBinAddr: 0x38A8, symSize: 0x1C }
  - { offset: 0x11CDD, size: 0x8, addend: 0x0, symName: __ZN4core4iter6traits8iterator8Iterator4fuse17h1e3bcd81b463dccfE, symObjAddr: 0x64C, symBinAddr: 0x38C4, symSize: 0x1C }
  - { offset: 0x11D14, size: 0x8, addend: 0x0, symName: __ZN4core4iter6traits8iterator8Iterator4take17h2bceb5b43e308f0dE, symObjAddr: 0x668, symBinAddr: 0x38E0, symSize: 0x2C }
  - { offset: 0x11D6F, size: 0x8, addend: 0x0, symName: __ZN4core4iter6traits8iterator8Iterator4take17h4c00af02d038bf00E, symObjAddr: 0x694, symBinAddr: 0x390C, symSize: 0x2C }
  - { offset: 0x11DCA, size: 0x8, addend: 0x0, symName: __ZN4core4iter6traits8iterator8Iterator4take17h5c7d4b96245ead91E, symObjAddr: 0x6C0, symBinAddr: 0x3938, symSize: 0x2C }
  - { offset: 0x11E25, size: 0x8, addend: 0x0, symName: __ZN4core4iter6traits8iterator8Iterator4take17hb812c1364a3bf500E, symObjAddr: 0x6EC, symBinAddr: 0x3964, symSize: 0x2C }
  - { offset: 0x11E80, size: 0x8, addend: 0x0, symName: __ZN4core4iter6traits8iterator8Iterator6copied17h1453f15c02208649E, symObjAddr: 0x718, symBinAddr: 0x3990, symSize: 0x1C }
  - { offset: 0x11EC0, size: 0x8, addend: 0x0, symName: __ZN4core4iter6traits8iterator8Iterator6copied17h3b5a596b459ab5dfE, symObjAddr: 0x734, symBinAddr: 0x39AC, symSize: 0x1C }
  - { offset: 0x11F00, size: 0x8, addend: 0x0, symName: __ZN4core4iter6traits8iterator8Iterator6copied17h3bea5427b19c8c00E, symObjAddr: 0x750, symBinAddr: 0x39C8, symSize: 0x1C }
  - { offset: 0x11F40, size: 0x8, addend: 0x0, symName: __ZN4core4iter6traits8iterator8Iterator6copied17hc0cda3312cf7a02fE, symObjAddr: 0x76C, symBinAddr: 0x39E4, symSize: 0x1C }
  - { offset: 0x11F80, size: 0x8, addend: 0x0, symName: __ZN4core4iter6traits8iterator8Iterator6copied17heed1880d1479f1faE, symObjAddr: 0x788, symBinAddr: 0x3A00, symSize: 0x1C }
  - { offset: 0x11FC0, size: 0x8, addend: 0x0, symName: __ZN4core4iter6traits8iterator8Iterator6copied17hf13e6c610a5a2eb8E, symObjAddr: 0x7A4, symBinAddr: 0x3A1C, symSize: 0x1C }
  - { offset: 0x12000, size: 0x8, addend: 0x0, symName: __ZN4core4iter6traits8iterator8Iterator6filter17h4ff96ba8f3b20679E, symObjAddr: 0x7C0, symBinAddr: 0x3A38, symSize: 0x1C }
  - { offset: 0x1204F, size: 0x8, addend: 0x0, symName: __ZN4core4iter6traits8iterator8Iterator7flatten17h9f4500bdc92d2eacE, symObjAddr: 0x7DC, symBinAddr: 0x3A54, symSize: 0x68 }
  - { offset: 0x120C1, size: 0x8, addend: 0x0, symName: __ZN4core4iter6traits8iterator8Iterator8try_fold17h40dd84876916d8f0E, symObjAddr: 0x844, symBinAddr: 0x3ABC, symSize: 0x168 }
  - { offset: 0x12174, size: 0x8, addend: 0x0, symName: __ZN4core4iter6traits8iterator8Iterator8try_fold17h723c382f2dae91caE, symObjAddr: 0x9AC, symBinAddr: 0x3C24, symSize: 0x164 }
  - { offset: 0x12227, size: 0x8, addend: 0x0, symName: __ZN4core4iter6traits8iterator8Iterator8try_fold17h7840e536401a18d2E, symObjAddr: 0xB10, symBinAddr: 0x3D88, symSize: 0x154 }
  - { offset: 0x122DB, size: 0x8, addend: 0x0, symName: __ZN4core4iter6traits8iterator8Iterator8try_fold17h948af1498c23a7f5E, symObjAddr: 0xC64, symBinAddr: 0x3EDC, symSize: 0x144 }
  - { offset: 0x1238E, size: 0x8, addend: 0x0, symName: __ZN4core4iter6traits8iterator8Iterator8try_fold17hd7ee9c5708e029fbE, symObjAddr: 0xDA8, symBinAddr: 0x4020, symSize: 0x144 }
  - { offset: 0x12441, size: 0x8, addend: 0x0, symName: __ZN4core4iter6traits8iterator8Iterator8try_fold17he82fe8fe15080121E, symObjAddr: 0xEEC, symBinAddr: 0x4164, symSize: 0x154 }
  - { offset: 0x124F5, size: 0x8, addend: 0x0, symName: __ZN4core4iter6traits8iterator8Iterator8try_fold17hf6ef6a0babeea90dE, symObjAddr: 0x1040, symBinAddr: 0x42B8, symSize: 0x154 }
  - { offset: 0x125A9, size: 0x8, addend: 0x0, symName: __ZN4core4iter6traits8iterator8Iterator9enumerate17h05ad2ef42601ceb2E, symObjAddr: 0x1194, symBinAddr: 0x440C, symSize: 0x28 }
  - { offset: 0x125F5, size: 0x8, addend: 0x0, symName: __ZN4core4iter6traits8iterator8Iterator9enumerate17h10ff54b0eda06351E, symObjAddr: 0x11BC, symBinAddr: 0x4434, symSize: 0x28 }
  - { offset: 0x12641, size: 0x8, addend: 0x0, symName: __ZN4core4iter6traits8iterator8Iterator9enumerate17h479d4fcbcd8df4e9E, symObjAddr: 0x11E4, symBinAddr: 0x445C, symSize: 0x28 }
  - { offset: 0x1268D, size: 0x8, addend: 0x0, symName: __ZN4core4iter6traits8iterator8Iterator9enumerate17h592981e6094441e2E, symObjAddr: 0x120C, symBinAddr: 0x4484, symSize: 0x28 }
  - { offset: 0x126D9, size: 0x8, addend: 0x0, symName: __ZN4core4iter6traits8iterator8Iterator9enumerate17h669f7cd1157a22dfE, symObjAddr: 0x1234, symBinAddr: 0x44AC, symSize: 0x28 }
  - { offset: 0x12725, size: 0x8, addend: 0x0, symName: __ZN4core4iter6traits8iterator8Iterator9enumerate17h9aa292f625383502E, symObjAddr: 0x125C, symBinAddr: 0x44D4, symSize: 0x28 }
  - { offset: 0x12771, size: 0x8, addend: 0x0, symName: __ZN4core4iter6traits8iterator8Iterator9enumerate17hc37831b267d6164cE, symObjAddr: 0x1284, symBinAddr: 0x44FC, symSize: 0x28 }
  - { offset: 0x127BD, size: 0x8, addend: 0x0, symName: __ZN4core4iter6traits8iterator8Iterator9enumerate17hd4ed4734f6f3833bE, symObjAddr: 0x12AC, symBinAddr: 0x4524, symSize: 0x28 }
  - { offset: 0x12809, size: 0x8, addend: 0x0, symName: __ZN4core4iter6traits8iterator8Iterator9enumerate17heeb0606c2c88b0b0E, symObjAddr: 0x12D4, symBinAddr: 0x454C, symSize: 0x28 }
  - { offset: 0x12855, size: 0x8, addend: 0x0, symName: __ZN4core4iter6traits8iterator8Iterator9enumerate17hf4f259987d394573E, symObjAddr: 0x12FC, symBinAddr: 0x4574, symSize: 0x28 }
  - { offset: 0x12AB8, size: 0x8, addend: 0x0, symName: '__ZN72_$LT$$RF$mut$u20$I$u20$as$u20$core..iter..traits..iterator..Iterator$GT$4next17h26cdc400e2b73f32E', symObjAddr: 0x1D10, symBinAddr: 0x4F88, symSize: 0x28 }
  - { offset: 0x12AFB, size: 0x8, addend: 0x0, symName: '__ZN63_$LT$I$u20$as$u20$core..iter..traits..collect..IntoIterator$GT$9into_iter17hee58ea5ec3c3a711E', symObjAddr: 0x1CFC, symBinAddr: 0x4F74, symSize: 0x14 }
  - { offset: 0x18A57, size: 0x8, addend: 0x0, symName: '__ZN4core5slice4iter13Iter$LT$T$GT$3new17h0062339014d5b8fcE', symObjAddr: 0x1324, symBinAddr: 0x459C, symSize: 0x50 }
  - { offset: 0x18C07, size: 0x8, addend: 0x0, symName: '__ZN4core5slice4iter13Iter$LT$T$GT$3new17h036e5963a900e53fE', symObjAddr: 0x1374, symBinAddr: 0x45EC, symSize: 0x50 }
  - { offset: 0x18DB7, size: 0x8, addend: 0x0, symName: '__ZN4core5slice4iter13Iter$LT$T$GT$3new17h0c00d4d8e86a1191E', symObjAddr: 0x13C4, symBinAddr: 0x463C, symSize: 0x58 }
  - { offset: 0x18F67, size: 0x8, addend: 0x0, symName: '__ZN4core5slice4iter13Iter$LT$T$GT$3new17h163bb47e51801ae5E', symObjAddr: 0x141C, symBinAddr: 0x4694, symSize: 0x50 }
  - { offset: 0x19131, size: 0x8, addend: 0x0, symName: '__ZN4core5slice4iter13Iter$LT$T$GT$3new17h1884622cf15ccf26E', symObjAddr: 0x146C, symBinAddr: 0x46E4, symSize: 0x58 }
  - { offset: 0x192E1, size: 0x8, addend: 0x0, symName: '__ZN4core5slice4iter13Iter$LT$T$GT$3new17h194b467287012422E', symObjAddr: 0x14C4, symBinAddr: 0x473C, symSize: 0x58 }
  - { offset: 0x194AB, size: 0x8, addend: 0x0, symName: '__ZN4core5slice4iter13Iter$LT$T$GT$3new17h1d746b0502eb0a4dE', symObjAddr: 0x151C, symBinAddr: 0x4794, symSize: 0x58 }
  - { offset: 0x19675, size: 0x8, addend: 0x0, symName: '__ZN4core5slice4iter13Iter$LT$T$GT$3new17h30b7d0ceccbd5e7eE', symObjAddr: 0x1574, symBinAddr: 0x47EC, symSize: 0x50 }
  - { offset: 0x19825, size: 0x8, addend: 0x0, symName: '__ZN4core5slice4iter13Iter$LT$T$GT$3new17h3cc9b7a74d7ff69dE', symObjAddr: 0x15C4, symBinAddr: 0x483C, symSize: 0x50 }
  - { offset: 0x199D5, size: 0x8, addend: 0x0, symName: '__ZN4core5slice4iter13Iter$LT$T$GT$3new17h44401fddba682593E', symObjAddr: 0x1614, symBinAddr: 0x488C, symSize: 0x58 }
  - { offset: 0x19B85, size: 0x8, addend: 0x0, symName: '__ZN4core5slice4iter13Iter$LT$T$GT$3new17h4b75df089fe83048E', symObjAddr: 0x166C, symBinAddr: 0x48E4, symSize: 0x50 }
  - { offset: 0x19D35, size: 0x8, addend: 0x0, symName: '__ZN4core5slice4iter13Iter$LT$T$GT$3new17h5ad68e31575c345bE', symObjAddr: 0x16BC, symBinAddr: 0x4934, symSize: 0x50 }
  - { offset: 0x19EFF, size: 0x8, addend: 0x0, symName: '__ZN4core5slice4iter13Iter$LT$T$GT$3new17h5de96663731a92daE', symObjAddr: 0x170C, symBinAddr: 0x4984, symSize: 0x50 }
  - { offset: 0x1A0AF, size: 0x8, addend: 0x0, symName: '__ZN4core5slice4iter13Iter$LT$T$GT$3new17h5ef9d6b39ebda964E', symObjAddr: 0x175C, symBinAddr: 0x49D4, symSize: 0x58 }
  - { offset: 0x1A279, size: 0x8, addend: 0x0, symName: '__ZN4core5slice4iter13Iter$LT$T$GT$3new17h62f0fba396a8bfa4E', symObjAddr: 0x17B4, symBinAddr: 0x4A2C, symSize: 0x50 }
  - { offset: 0x1A429, size: 0x8, addend: 0x0, symName: '__ZN4core5slice4iter13Iter$LT$T$GT$3new17h645fda81ddbe4d66E', symObjAddr: 0x1804, symBinAddr: 0x4A7C, symSize: 0x50 }
  - { offset: 0x1A5D9, size: 0x8, addend: 0x0, symName: '__ZN4core5slice4iter13Iter$LT$T$GT$3new17h764f3d527f512ea6E', symObjAddr: 0x1854, symBinAddr: 0x4ACC, symSize: 0x58 }
  - { offset: 0x1A789, size: 0x8, addend: 0x0, symName: '__ZN4core5slice4iter13Iter$LT$T$GT$3new17h7954920a21df24d9E', symObjAddr: 0x18AC, symBinAddr: 0x4B24, symSize: 0x58 }
  - { offset: 0x1A953, size: 0x8, addend: 0x0, symName: '__ZN4core5slice4iter13Iter$LT$T$GT$3new17h806598c8efc8e547E', symObjAddr: 0x1904, symBinAddr: 0x4B7C, symSize: 0x58 }
  - { offset: 0x1AAF6, size: 0x8, addend: 0x0, symName: '__ZN4core5slice4iter13Iter$LT$T$GT$3new17h83830ce8b209d97aE', symObjAddr: 0x195C, symBinAddr: 0x4BD4, symSize: 0x50 }
  - { offset: 0x1ACA6, size: 0x8, addend: 0x0, symName: '__ZN4core5slice4iter13Iter$LT$T$GT$3new17h9d0638ae717226aeE', symObjAddr: 0x19AC, symBinAddr: 0x4C24, symSize: 0x50 }
  - { offset: 0x1AE56, size: 0x8, addend: 0x0, symName: '__ZN4core5slice4iter13Iter$LT$T$GT$3new17hac4bae4312e80fa4E', symObjAddr: 0x19FC, symBinAddr: 0x4C74, symSize: 0x58 }
  - { offset: 0x1B006, size: 0x8, addend: 0x0, symName: '__ZN4core5slice4iter13Iter$LT$T$GT$3new17hae3210d6b780b220E', symObjAddr: 0x1A54, symBinAddr: 0x4CCC, symSize: 0x58 }
  - { offset: 0x1B1B6, size: 0x8, addend: 0x0, symName: '__ZN4core5slice4iter13Iter$LT$T$GT$3new17hbb1fec952f89f3e0E', symObjAddr: 0x1AAC, symBinAddr: 0x4D24, symSize: 0x50 }
  - { offset: 0x1B7C8, size: 0x8, addend: 0x0, symName: '__ZN4core5slice4iter13Iter$LT$T$GT$3new17hcaa688cc9da9790cE', symObjAddr: 0x1AFC, symBinAddr: 0x4D74, symSize: 0x50 }
  - { offset: 0x1B978, size: 0x8, addend: 0x0, symName: '__ZN4core5slice4iter13Iter$LT$T$GT$3new17hcba88044e99157f0E', symObjAddr: 0x1B4C, symBinAddr: 0x4DC4, symSize: 0x50 }
  - { offset: 0x1BB1B, size: 0x8, addend: 0x0, symName: '__ZN4core5slice4iter13Iter$LT$T$GT$3new17hd04ed150e237ea0cE', symObjAddr: 0x1B9C, symBinAddr: 0x4E14, symSize: 0x58 }
  - { offset: 0x1BCE5, size: 0x8, addend: 0x0, symName: '__ZN4core5slice4iter13Iter$LT$T$GT$3new17hd8afb462674f8a9aE', symObjAddr: 0x1BF4, symBinAddr: 0x4E6C, symSize: 0x50 }
  - { offset: 0x1BE61, size: 0x8, addend: 0x0, symName: '__ZN4core5slice4iter16IterMut$LT$T$GT$3new17h1fa44ecb25be3e64E', symObjAddr: 0x1C44, symBinAddr: 0x4EBC, symSize: 0x58 }
  - { offset: 0x1BFDD, size: 0x8, addend: 0x0, symName: '__ZN4core5slice4iter16IterMut$LT$T$GT$3new17h82c4de105d00d53cE', symObjAddr: 0x1C9C, symBinAddr: 0x4F14, symSize: 0x50 }
  - { offset: 0x1C130, size: 0x8, addend: 0x0, symName: '__ZN4core5slice4iter23ChunksExactMut$LT$T$GT$14into_remainder17h184e18ab86790b2aE', symObjAddr: 0x1CEC, symBinAddr: 0x4F64, symSize: 0x10 }
  - { offset: 0x1D6C7, size: 0x8, addend: 0x0, symName: '__ZN73_$LT$serde_json..number..Number$u20$as$u20$serde_core..ser..Serialize$GT$9serialize17hffe201021c4120ddE', symObjAddr: 0x0, symBinAddr: 0x9418, symSize: 0x94 }
  - { offset: 0x1D948, size: 0x8, addend: 0x0, symName: '__ZN73_$LT$serde_json..number..Number$u20$as$u20$serde_core..ser..Serialize$GT$9serialize17hffe201021c4120ddE', symObjAddr: 0x0, symBinAddr: 0x9418, symSize: 0x94 }
  - { offset: 0x1E66C, size: 0x8, addend: 0x0, symName: '__ZN3std4sync6poison5mutex14Mutex$LT$T$GT$3new17h1591eecf3cac85c5E', symObjAddr: 0x0, symBinAddr: 0x94AC, symSize: 0x7C }
  - { offset: 0x20F06, size: 0x8, addend: 0x0, symName: '__ZN3std4sync6poison5mutex19MutexGuard$LT$T$GT$3new28_$u7b$$u7b$closure$u7d$$u7d$17hf5d020100f000714E', symObjAddr: 0x194, symBinAddr: 0x9640, symSize: 0x18 }
  - { offset: 0x20F4E, size: 0x8, addend: 0x0, symName: '__ZN3std4sync6poison5mutex19MutexGuard$LT$T$GT$3new28_$u7b$$u7b$closure$u7d$$u7d$17hf7faf1b6621b6da8E', symObjAddr: 0x1AC, symBinAddr: 0x9658, symSize: 0x18 }
  - { offset: 0x20F9D, size: 0x8, addend: 0x0, symName: '__ZN89_$LT$std..sync..poison..mutex..MutexGuard$LT$T$GT$$u20$as$u20$core..ops..deref..Deref$GT$5deref17haf97907c619bca92E', symObjAddr: 0x1C4, symBinAddr: 0x9670, symSize: 0x1C }
  - { offset: 0x20FE9, size: 0x8, addend: 0x0, symName: '__ZN89_$LT$std..sync..poison..mutex..MutexGuard$LT$T$GT$$u20$as$u20$core..ops..deref..Deref$GT$5deref17hcff187cd2a1f9c1cE', symObjAddr: 0x1E0, symBinAddr: 0x968C, symSize: 0x1C }
  - { offset: 0x2103B, size: 0x8, addend: 0x0, symName: '__ZN92_$LT$std..sync..poison..mutex..MutexGuard$LT$T$GT$$u20$as$u20$core..ops..deref..DerefMut$GT$9deref_mut17h2f07190249e081a8E', symObjAddr: 0x1FC, symBinAddr: 0x96A8, symSize: 0x1C }
  - { offset: 0x21087, size: 0x8, addend: 0x0, symName: '__ZN92_$LT$std..sync..poison..mutex..MutexGuard$LT$T$GT$$u20$as$u20$core..ops..deref..DerefMut$GT$9deref_mut17h39634ded64a90dc9E', symObjAddr: 0x218, symBinAddr: 0x96C4, symSize: 0x1C }
  - { offset: 0x220BB, size: 0x8, addend: 0x0, symName: '__ZN3std4sync6poison5mutex14Mutex$LT$T$GT$3new17h1591eecf3cac85c5E', symObjAddr: 0x0, symBinAddr: 0x94AC, symSize: 0x7C }
  - { offset: 0x224B3, size: 0x8, addend: 0x0, symName: '__ZN3std4sync6poison5mutex14Mutex$LT$T$GT$3new17h2d6ec4c0e5b81887E', symObjAddr: 0x7C, symBinAddr: 0x9528, symSize: 0x88 }
  - { offset: 0x225C5, size: 0x8, addend: 0x0, symName: '__ZN3std4sync6poison5mutex14Mutex$LT$T$GT$4lock17ha84d4bb4b756ff73E', symObjAddr: 0x104, symBinAddr: 0x95B0, symSize: 0x48 }
  - { offset: 0x22697, size: 0x8, addend: 0x0, symName: '__ZN3std4sync6poison5mutex14Mutex$LT$T$GT$4lock17hc56d347ccc5c6d34E', symObjAddr: 0x14C, symBinAddr: 0x95F8, symSize: 0x48 }
  - { offset: 0x22816, size: 0x8, addend: 0x0, symName: __ZN4pyo37pyclass18create_type_object18create_type_object17h03018509776bd2cfE, symObjAddr: 0x0, symBinAddr: 0x96E0, symSize: 0x164 }
  - { offset: 0x26CA2, size: 0x8, addend: 0x0, symName: __ZN4pyo37pyclass18create_type_object18create_type_object17h03018509776bd2cfE, symObjAddr: 0x0, symBinAddr: 0x96E0, symSize: 0x164 }
  - { offset: 0x26D02, size: 0x8, addend: 0x0, symName: __ZN4pyo37pyclass18create_type_object18create_type_object17h22bf23ea402281c1E, symObjAddr: 0x164, symBinAddr: 0x9844, symSize: 0x164 }
  - { offset: 0x26D62, size: 0x8, addend: 0x0, symName: __ZN4pyo37pyclass18create_type_object18create_type_object17h39732625fb7347bfE, symObjAddr: 0x2C8, symBinAddr: 0x99A8, symSize: 0x164 }
  - { offset: 0x26DC2, size: 0x8, addend: 0x0, symName: __ZN4pyo37pyclass18create_type_object18create_type_object17h3ef97098d6578c05E, symObjAddr: 0x42C, symBinAddr: 0x9B0C, symSize: 0x168 }
  - { offset: 0x26E22, size: 0x8, addend: 0x0, symName: __ZN4pyo37pyclass18create_type_object18create_type_object17h7ff9beaf91967780E, symObjAddr: 0x594, symBinAddr: 0x9C74, symSize: 0x168 }
  - { offset: 0x26E82, size: 0x8, addend: 0x0, symName: __ZN4pyo37pyclass18create_type_object18create_type_object17h81500d09c1ce0505E, symObjAddr: 0x6FC, symBinAddr: 0x9DDC, symSize: 0x164 }
  - { offset: 0x26EE2, size: 0x8, addend: 0x0, symName: __ZN4pyo37pyclass18create_type_object18create_type_object17h82b1e68df1683aa0E, symObjAddr: 0x860, symBinAddr: 0x9F40, symSize: 0x164 }
  - { offset: 0x26F42, size: 0x8, addend: 0x0, symName: __ZN4pyo37pyclass18create_type_object18create_type_object17h839f1945a3f1e93eE, symObjAddr: 0x9C4, symBinAddr: 0xA0A4, symSize: 0x164 }
  - { offset: 0x26FA2, size: 0x8, addend: 0x0, symName: __ZN4pyo37pyclass18create_type_object18create_type_object17h9d90f69820d59ddeE, symObjAddr: 0xB28, symBinAddr: 0xA208, symSize: 0x164 }
  - { offset: 0x27002, size: 0x8, addend: 0x0, symName: __ZN4pyo37pyclass18create_type_object18create_type_object17ha39becf7bdbbefe1E, symObjAddr: 0xC8C, symBinAddr: 0xA36C, symSize: 0x164 }
  - { offset: 0x27062, size: 0x8, addend: 0x0, symName: __ZN4pyo37pyclass18create_type_object18create_type_object17ha501592692274502E, symObjAddr: 0xDF0, symBinAddr: 0xA4D0, symSize: 0x164 }
  - { offset: 0x270C2, size: 0x8, addend: 0x0, symName: __ZN4pyo37pyclass18create_type_object18create_type_object17ha8645f3fb31a54b5E, symObjAddr: 0xF54, symBinAddr: 0xA634, symSize: 0x168 }
  - { offset: 0x27122, size: 0x8, addend: 0x0, symName: __ZN4pyo37pyclass18create_type_object18create_type_object17ha9ae73e7af333abcE, symObjAddr: 0x10BC, symBinAddr: 0xA79C, symSize: 0x164 }
  - { offset: 0x27182, size: 0x8, addend: 0x0, symName: __ZN4pyo37pyclass18create_type_object18create_type_object17hb1dc43177bc0830eE, symObjAddr: 0x1220, symBinAddr: 0xA900, symSize: 0x164 }
  - { offset: 0x271E2, size: 0x8, addend: 0x0, symName: __ZN4pyo37pyclass18create_type_object18create_type_object17hb20add92f2dc4ca5E, symObjAddr: 0x1384, symBinAddr: 0xAA64, symSize: 0x164 }
  - { offset: 0x27242, size: 0x8, addend: 0x0, symName: __ZN4pyo37pyclass18create_type_object18create_type_object17hb27b5bff8df87355E, symObjAddr: 0x14E8, symBinAddr: 0xABC8, symSize: 0x164 }
  - { offset: 0x272A2, size: 0x8, addend: 0x0, symName: __ZN4pyo37pyclass18create_type_object18create_type_object17hb35315f12ebdab21E, symObjAddr: 0x164C, symBinAddr: 0xAD2C, symSize: 0x164 }
  - { offset: 0x27302, size: 0x8, addend: 0x0, symName: __ZN4pyo37pyclass18create_type_object18create_type_object17hb45c531d560deaf2E, symObjAddr: 0x17B0, symBinAddr: 0xAE90, symSize: 0x164 }
  - { offset: 0x27362, size: 0x8, addend: 0x0, symName: __ZN4pyo37pyclass18create_type_object18create_type_object17hc043a6e25f407e10E, symObjAddr: 0x1914, symBinAddr: 0xAFF4, symSize: 0x164 }
  - { offset: 0x273C2, size: 0x8, addend: 0x0, symName: __ZN4pyo37pyclass18create_type_object18create_type_object17hd4a7126c5098e08fE, symObjAddr: 0x1A78, symBinAddr: 0xB158, symSize: 0x168 }
  - { offset: 0x27422, size: 0x8, addend: 0x0, symName: __ZN4pyo37pyclass18create_type_object18create_type_object17he269519462f61bf4E, symObjAddr: 0x1BE0, symBinAddr: 0xB2C0, symSize: 0x164 }
  - { offset: 0x27482, size: 0x8, addend: 0x0, symName: __ZN4pyo37pyclass18create_type_object18create_type_object17hfaa7a9cf9605bd12E, symObjAddr: 0x1D44, symBinAddr: 0xB424, symSize: 0x164 }
  - { offset: 0x2991F, size: 0x8, addend: 0x0, symName: '__ZN4core4hash5impls50_$LT$impl$u20$core..hash..Hash$u20$for$u20$i32$GT$4hash17h0b9742e1401a5475E', symObjAddr: 0x0, symBinAddr: 0xB588, symSize: 0x38 }
  - { offset: 0x29940, size: 0x8, addend: 0x0, symName: '__ZN4core4hash5impls50_$LT$impl$u20$core..hash..Hash$u20$for$u20$i32$GT$4hash17h0b9742e1401a5475E', symObjAddr: 0x0, symBinAddr: 0xB588, symSize: 0x38 }
  - { offset: 0x29988, size: 0x8, addend: 0x0, symName: '__ZN4core4hash5impls52_$LT$impl$u20$core..hash..Hash$u20$for$u20$$RF$T$GT$4hash17h91e78a007d3fc5dbE', symObjAddr: 0x38, symBinAddr: 0xB5C0, symSize: 0x30 }
  - { offset: 0x29B32, size: 0x8, addend: 0x0, symName: __ZN4core7unicode12unicode_data11white_space6lookup17hec2951b16b181295E, symObjAddr: 0x0, symBinAddr: 0xB5F0, symSize: 0x14C }
  - { offset: 0x29B53, size: 0x8, addend: 0x0, symName: __ZN4core7unicode12unicode_data11white_space6lookup17hec2951b16b181295E, symObjAddr: 0x0, symBinAddr: 0xB5F0, symSize: 0x14C }
  - { offset: 0x29BB1, size: 0x8, addend: 0x0, symName: '__ZN76_$LT$hashbrown..raw..RawTable$LT$T$C$A$GT$$u20$as$u20$core..clone..Clone$GT$5clone17h92d5d18354970aa9E', symObjAddr: 0x0, symBinAddr: 0xB73C, symSize: 0x114 }
  - { offset: 0x29BE0, size: 0x8, addend: 0x0, symName: '__ZN9hashbrown3raw21RawTable$LT$T$C$A$GT$14reserve_rehash28_$u7b$$u7b$closure$u7d$$u7d$17ha9249d1ae9a1dd73E', symObjAddr: 0x18FC, symBinAddr: 0xC0AC, symSize: 0xC0 }
  - { offset: 0x29DBE, size: 0x8, addend: 0x0, symName: '__ZN9hashbrown3raw21RawTable$LT$T$C$A$GT$14reserve_rehash28_$u7b$$u7b$closure$u7d$$u7d$17hbfbdf33e4df02c3dE', symObjAddr: 0x19BC, symBinAddr: 0xC16C, symSize: 0xC0 }
  - { offset: 0x29F9C, size: 0x8, addend: 0x0, symName: '__ZN9hashbrown3raw21RawTable$LT$T$C$A$GT$14reserve_rehash28_$u7b$$u7b$closure$u7d$$u7d$17hdf74b8066d814c04E', symObjAddr: 0x1A7C, symBinAddr: 0xC22C, symSize: 0x30 }
  - { offset: 0x29FF9, size: 0x8, addend: 0x0, symName: '__ZN9hashbrown3raw21RawTable$LT$T$C$A$GT$25find_or_find_insert_index28_$u7b$$u7b$closure$u7d$$u7d$17h20e3ae6282aaf278E', symObjAddr: 0x26D0, symBinAddr: 0xCE80, symSize: 0xC4 }
  - { offset: 0x2A1E6, size: 0x8, addend: 0x0, symName: '__ZN9hashbrown3raw21RawTable$LT$T$C$A$GT$25find_or_find_insert_index28_$u7b$$u7b$closure$u7d$$u7d$17h534ce90ecbd15e00E', symObjAddr: 0x2794, symBinAddr: 0xCF44, symSize: 0xC4 }
  - { offset: 0x2A3D9, size: 0x8, addend: 0x0, symName: '__ZN9hashbrown3raw21RawTable$LT$T$C$A$GT$4find28_$u7b$$u7b$closure$u7d$$u7d$17h0bde4142b23f76bbE', symObjAddr: 0x2B6C, symBinAddr: 0xD31C, symSize: 0xC4 }
  - { offset: 0x2AED0, size: 0x8, addend: 0x0, symName: '__ZN76_$LT$hashbrown..raw..RawTable$LT$T$C$A$GT$$u20$as$u20$core..clone..Clone$GT$5clone17h92d5d18354970aa9E', symObjAddr: 0x0, symBinAddr: 0xB73C, symSize: 0x114 }
  - { offset: 0x2AFA5, size: 0x8, addend: 0x0, symName: '__ZN87_$LT$hashbrown..raw..RawTable$LT$T$C$A$GT$$u20$as$u20$hashbrown..raw..RawTableClone$GT$15clone_from_spec17h28d566b63202cf50E', symObjAddr: 0x114, symBinAddr: 0xB850, symSize: 0x2C }
  - { offset: 0x2B2C4, size: 0x8, addend: 0x0, symName: '__ZN99_$LT$hashbrown..raw..RawIntoIter$LT$T$C$A$GT$$u20$as$u20$core..iter..traits..iterator..Iterator$GT$4next17h7de29e0b462d78ddE', symObjAddr: 0x140, symBinAddr: 0xB87C, symSize: 0xFC }
  - { offset: 0x2B48A, size: 0x8, addend: 0x0, symName: '__ZN99_$LT$hashbrown..raw..RawTable$LT$T$C$A$GT$$u20$as$u20$core..iter..traits..collect..IntoIterator$GT$9into_iter17h9dad0ba4321fd68dE', symObjAddr: 0x23C, symBinAddr: 0xB978, symSize: 0x128 }
  - { offset: 0x2B8AC, size: 0x8, addend: 0x0, symName: '__ZN9hashbrown3raw21RawTable$LT$T$C$A$GT$15clone_from_impl28_$u7b$$u7b$closure$u7d$$u7d$17h542d7339f57608fbE', symObjAddr: 0x1DDC, symBinAddr: 0xC58C, symSize: 0x150 }
  - { offset: 0x2E6F1, size: 0x8, addend: 0x0, symName: __ZN9hashbrown3raw13RawTableInner13drop_elements17h47d5b4ba89bc597aE, symObjAddr: 0x364, symBinAddr: 0xBAA0, symSize: 0x30 }
  - { offset: 0x2E95B, size: 0x8, addend: 0x0, symName: __ZN9hashbrown3raw13RawTableInner13drop_elements17hc2dc61e3fba9670aE, symObjAddr: 0x394, symBinAddr: 0xBAD0, symSize: 0x15C }
  - { offset: 0x2ECFD, size: 0x8, addend: 0x0, symName: __ZN9hashbrown3raw13RawTableInner16drop_inner_table17h6fa792186ef0a117E, symObjAddr: 0x4F0, symBinAddr: 0xBC2C, symSize: 0xAC }
  - { offset: 0x2EF82, size: 0x8, addend: 0x0, symName: __ZN9hashbrown3raw13RawTableInner16drop_inner_table17h853b9f7e763e75ceE, symObjAddr: 0x59C, symBinAddr: 0xBCD8, symSize: 0xAC }
  - { offset: 0x2F171, size: 0x8, addend: 0x0, symName: '__ZN9hashbrown3raw16RawIter$LT$T$GT$13drop_elements17h249a788296cf71b3E', symObjAddr: 0x648, symBinAddr: 0xBD84, symSize: 0xDC }
  - { offset: 0x2F2F7, size: 0x8, addend: 0x0, symName: '__ZN9hashbrown3raw21RawIterRange$LT$T$GT$3new17hb2ba69099f9c17dcE', symObjAddr: 0x724, symBinAddr: 0xBE60, symSize: 0x98 }
  - { offset: 0x2F58B, size: 0x8, addend: 0x0, symName: '__ZN9hashbrown3raw21RawIterRange$LT$T$GT$9next_impl17h8b82b96f59c82f0cE', symObjAddr: 0x7BC, symBinAddr: 0xBEF8, symSize: 0x1B4 }
  - { offset: 0x2FD70, size: 0x8, addend: 0x0, symName: '__ZN9hashbrown3raw21RawTable$LT$T$C$A$GT$14reserve_rehash17h15dffd69a336bf99E', symObjAddr: 0x970, symBinAddr: 0x1C145C, symSize: 0x7B8 }
  - { offset: 0x30634, size: 0x8, addend: 0x0, symName: '__ZN9hashbrown3raw21RawTable$LT$T$C$A$GT$14reserve_rehash17hc43019ac33fbe0c1E', symObjAddr: 0x1128, symBinAddr: 0x1C1C14, symSize: 0x7D4 }
  - { offset: 0x31440, size: 0x8, addend: 0x0, symName: '__ZN9hashbrown3raw21RawTable$LT$T$C$A$GT$15clone_from_impl17h6ba0ae0ec0002c6aE', symObjAddr: 0x1AAC, symBinAddr: 0xC25C, symSize: 0x330 }
  - { offset: 0x31C86, size: 0x8, addend: 0x0, symName: '__ZN9hashbrown3raw21RawTable$LT$T$C$A$GT$15into_allocation17h930be316dd33cdb0E', symObjAddr: 0x1F2C, symBinAddr: 0xC6DC, symSize: 0x120 }
  - { offset: 0x31DCD, size: 0x8, addend: 0x0, symName: '__ZN9hashbrown3raw21RawTable$LT$T$C$A$GT$16with_capacity_in17hd9add1533f49cf2cE', symObjAddr: 0x204C, symBinAddr: 0xC7FC, symSize: 0x98 }
  - { offset: 0x31E37, size: 0x8, addend: 0x0, symName: '__ZN9hashbrown3raw21RawTable$LT$T$C$A$GT$17new_uninitialized17h7a10bde4684cbfedE', symObjAddr: 0x20E4, symBinAddr: 0xC894, symSize: 0x144 }
  - { offset: 0x320F9, size: 0x8, addend: 0x0, symName: '__ZN9hashbrown3raw21RawTable$LT$T$C$A$GT$22insert_tagged_at_index17h03a8f23bb0d25ee1E', symObjAddr: 0x2228, symBinAddr: 0xC9D8, symSize: 0x11C }
  - { offset: 0x32629, size: 0x8, addend: 0x0, symName: '__ZN9hashbrown3raw21RawTable$LT$T$C$A$GT$22insert_tagged_at_index17h74a0adb059362ca4E', symObjAddr: 0x2344, symBinAddr: 0xCAF4, symSize: 0x124 }
  - { offset: 0x32AA5, size: 0x8, addend: 0x0, symName: '__ZN9hashbrown3raw21RawTable$LT$T$C$A$GT$25find_or_find_insert_index17h04f3b06004013da5E', symObjAddr: 0x2468, symBinAddr: 0xCC18, symSize: 0x134 }
  - { offset: 0x32D5F, size: 0x8, addend: 0x0, symName: '__ZN9hashbrown3raw21RawTable$LT$T$C$A$GT$25find_or_find_insert_index17hdbf84fcefac85af2E', symObjAddr: 0x259C, symBinAddr: 0xCD4C, symSize: 0x134 }
  - { offset: 0x334B5, size: 0x8, addend: 0x0, symName: '__ZN9hashbrown3raw21RawTable$LT$T$C$A$GT$4find17hfad3f459792e2d09E', symObjAddr: 0x2858, symBinAddr: 0xD008, symSize: 0x314 }
  - { offset: 0x33AD8, size: 0x8, addend: 0x0, symName: '__ZN9hashbrown3raw21RawTable$LT$T$C$A$GT$7reserve17h22a616a5d33fc043E', symObjAddr: 0x2C30, symBinAddr: 0xD3E0, symSize: 0xB0 }
  - { offset: 0x33BDC, size: 0x8, addend: 0x0, symName: '__ZN9hashbrown3raw21RawTable$LT$T$C$A$GT$7reserve17h6bc55dc851563023E', symObjAddr: 0x2CE0, symBinAddr: 0xD490, symSize: 0xB0 }
  - { offset: 0x33D02, size: 0x8, addend: 0x0, symName: '__ZN105_$LT$std..collections..hash..map..Iter$LT$K$C$V$GT$$u20$as$u20$core..iter..traits..iterator..Iterator$GT$4next17hf798cb51e482af09E', symObjAddr: 0x0, symBinAddr: 0xD540, symSize: 0x24 }
  - { offset: 0x34E20, size: 0x8, addend: 0x0, symName: __ZN4core4iter6traits8iterator8Iterator7collect17hd71a8e51b265b3f6E, symObjAddr: 0x250, symBinAddr: 0xD790, symSize: 0x14 }
  - { offset: 0x34E61, size: 0x8, addend: 0x0, symName: __ZN4core4iter6traits8iterator8Iterator7collect17hdf20b8e8a27bb4dfE, symObjAddr: 0x264, symBinAddr: 0xD7A4, symSize: 0x14 }
  - { offset: 0x34EAE, size: 0x8, addend: 0x0, symName: '__ZN63_$LT$I$u20$as$u20$core..iter..traits..collect..IntoIterator$GT$9into_iter17h148529925db9e9ebE', symObjAddr: 0x8B8, symBinAddr: 0xDDF8, symSize: 0x30 }
  - { offset: 0x359F9, size: 0x8, addend: 0x0, symName: '__ZN105_$LT$std..collections..hash..map..Iter$LT$K$C$V$GT$$u20$as$u20$core..iter..traits..iterator..Iterator$GT$4next17hf798cb51e482af09E', symObjAddr: 0x0, symBinAddr: 0xD540, symSize: 0x24 }
  - { offset: 0x35A3F, size: 0x8, addend: 0x0, symName: '__ZN109_$LT$std..collections..hash..map..IntoIter$LT$K$C$V$GT$$u20$as$u20$core..iter..traits..iterator..Iterator$GT$4next17ha679a3dbcf969497E', symObjAddr: 0x24, symBinAddr: 0xD564, symSize: 0x20 }
  - { offset: 0x35A9C, size: 0x8, addend: 0x0, symName: '__ZN109_$LT$std..collections..hash..map..IntoIter$LT$K$C$V$GT$$u20$as$u20$core..iter..traits..iterator..Iterator$GT$9size_hint17hd4497ffb813f4c40E', symObjAddr: 0x44, symBinAddr: 0xD584, symSize: 0x2C }
  - { offset: 0x35B23, size: 0x8, addend: 0x0, symName: '__ZN115_$LT$std..collections..hash..map..HashMap$LT$K$C$V$C$S$GT$$u20$as$u20$core..iter..traits..collect..IntoIterator$GT$9into_iter17he1e5582c003836f0E', symObjAddr: 0x70, symBinAddr: 0xD5B0, symSize: 0x58 }
  - { offset: 0x35C6C, size: 0x8, addend: 0x0, symName: '__ZN119_$LT$$RF$std..collections..hash..map..HashMap$LT$K$C$V$C$S$GT$$u20$as$u20$core..iter..traits..collect..IntoIterator$GT$9into_iter17h77ae38d8a553c15dE', symObjAddr: 0xC8, symBinAddr: 0xD608, symSize: 0x44 }
  - { offset: 0x35E0A, size: 0x8, addend: 0x0, symName: '__ZN92_$LT$std..collections..hash..map..HashMap$LT$K$C$V$C$S$GT$$u20$as$u20$core..clone..Clone$GT$5clone17hef67de99742b66c4E', symObjAddr: 0x910, symBinAddr: 0xDE50, symSize: 0x44 }
  - { offset: 0x36730, size: 0x8, addend: 0x0, symName: '__ZN3std11collections4hash3map20HashMap$LT$K$C$V$GT$3new17h89572dd593fbf8cfE', symObjAddr: 0x10C, symBinAddr: 0xD64C, symSize: 0x7C }
  - { offset: 0x367DF, size: 0x8, addend: 0x0, symName: '__ZN3std11collections4hash3map24HashMap$LT$K$C$V$C$S$GT$24with_capacity_and_hasher17h76a5d1eb7d81dd0dE', symObjAddr: 0x188, symBinAddr: 0xD6C8, symSize: 0x48 }
  - { offset: 0x36846, size: 0x8, addend: 0x0, symName: '__ZN3std11collections4hash3map24HashMap$LT$K$C$V$C$S$GT$3get17h54aa099a75caa6d8E', symObjAddr: 0x1D0, symBinAddr: 0xD710, symSize: 0x2C }
  - { offset: 0x368A9, size: 0x8, addend: 0x0, symName: '__ZN3std11collections4hash3map24HashMap$LT$K$C$V$C$S$GT$6insert17h08a7b0512e7a2098E', symObjAddr: 0x1FC, symBinAddr: 0xD73C, symSize: 0x2C }
  - { offset: 0x36912, size: 0x8, addend: 0x0, symName: '__ZN3std11collections4hash3map24HashMap$LT$K$C$V$C$S$GT$6insert17hda2cdaf47aeba17bE', symObjAddr: 0x228, symBinAddr: 0xD768, symSize: 0x28 }
  - { offset: 0x36988, size: 0x8, addend: 0x0, symName: '__ZN4pyo311conversions3std3map112_$LT$impl$u20$pyo3..conversion..ToPyObject$u20$for$u20$std..collections..hash..map..HashMap$LT$K$C$V$C$H$GT$$GT$9to_object17h40943cfd2ccf6807E', symObjAddr: 0x278, symBinAddr: 0xD7B8, symSize: 0x30 }
  - { offset: 0x369EE, size: 0x8, addend: 0x0, symName: '__ZN4pyo311conversions3std3map114_$LT$impl$u20$pyo3..conversion..FromPyObject$u20$for$u20$std..collections..hash..map..HashMap$LT$K$C$V$C$S$GT$$GT$13extract_bound17h8885c17fc7142d4bE', symObjAddr: 0x2A8, symBinAddr: 0xD7E8, symSize: 0x448 }
  - { offset: 0x36B29, size: 0x8, addend: 0x0, symName: '__ZN51_$LT$I$u20$as$u20$pyo3..types..dict..IntoPyDict$GT$18into_py_dict_bound17h40ff9a8aa0865d74E', symObjAddr: 0x6F0, symBinAddr: 0xDC30, symSize: 0x194 }
  - { offset: 0x36C3E, size: 0x8, addend: 0x0, symName: '__ZN57_$LT$T$u20$as$u20$pyo3..conversion..FromPyObjectBound$GT$20from_py_object_bound17h87125311b94d3573E', symObjAddr: 0x884, symBinAddr: 0xDDC4, symSize: 0x34 }
  - { offset: 0x36C86, size: 0x8, addend: 0x0, symName: '__ZN71_$LT$T$u20$as$u20$pyo3..impl_..extract_argument..PyFunctionArgument$GT$7extract17he500ff292ab892e9E', symObjAddr: 0x8E8, symBinAddr: 0xDE28, symSize: 0x28 }
  - { offset: 0x37518, size: 0x8, addend: 0x0, symName: '__ZN74_$LT$$u5b$T$u5d$$u20$as$u20$core..slice..specialize..SpecFill$LT$T$GT$$GT$9spec_fill17h939957955bf78328E', symObjAddr: 0x0, symBinAddr: 0xDE94, symSize: 0xE8 }
  - { offset: 0x375C0, size: 0x8, addend: 0x0, symName: '__ZN74_$LT$$u5b$T$u5d$$u20$as$u20$core..slice..specialize..SpecFill$LT$T$GT$$GT$9spec_fill17h939957955bf78328E', symObjAddr: 0x0, symBinAddr: 0xDE94, symSize: 0xE8 }
  - { offset: 0x379BE, size: 0x8, addend: 0x0, symName: __ZN7managym6python7convert12shape_to_vec17hbef48affa9610a07E, symObjAddr: 0x0, symBinAddr: 0xDF7C, symSize: 0x24 }
  - { offset: 0x392B7, size: 0x8, addend: 0x0, symName: __ZN7managym6python7convert12shape_to_vec17hbef48affa9610a07E, symObjAddr: 0x0, symBinAddr: 0xDF7C, symSize: 0x24 }
  - { offset: 0x392E3, size: 0x8, addend: 0x0, symName: __ZN7managym6python7convert19info_dict_to_pydict17h0dbe1fdbcef65d63E, symObjAddr: 0x24, symBinAddr: 0xDFA0, symSize: 0x210 }
  - { offset: 0x393ED, size: 0x8, addend: 0x0, symName: __ZN7managym6python7convert19require_numpy_array17h8874250ff1eabfc4E, symObjAddr: 0x234, symBinAddr: 0xE1B0, symSize: 0xC54 }
  - { offset: 0x3A7FF, size: 0x8, addend: 0x0, symName: __ZN8pyo3_ffi7cpython10listobject15PyList_SET_ITEM17hc417d6b2aa0c8f83E, symObjAddr: 0x0, symBinAddr: 0xEE04, symSize: 0x110 }
  - { offset: 0x3ADE1, size: 0x8, addend: 0x0, symName: __ZN8pyo3_ffi7cpython10listobject15PyList_SET_ITEM17hc417d6b2aa0c8f83E, symObjAddr: 0x0, symBinAddr: 0xEE04, symSize: 0x110 }
  - { offset: 0x3BDA3, size: 0x8, addend: 0x0, symName: '__ZN4core5array4iter94_$LT$impl$u20$core..iter..traits..collect..IntoIterator$u20$for$u20$$u5b$T$u3b$$u20$N$u5d$$GT$9into_iter17h41da792e3c9df97eE', symObjAddr: 0x0, symBinAddr: 0xEF14, symSize: 0x7C }
  - { offset: 0x3BDFF, size: 0x8, addend: 0x0, symName: '__ZN7managym5state4mana4Mana5total28_$u7b$$u7b$closure$u7d$$u7d$17h03af4c6d356213b0E', symObjAddr: 0x140, symBinAddr: 0xF054, symSize: 0x1C }
  - { offset: 0x3BE42, size: 0x8, addend: 0x0, symName: '__ZN7managym5state4mana4Mana7can_pay28_$u7b$$u7b$closure$u7d$$u7d$17hefca928d03feb9d4E', symObjAddr: 0x15C, symBinAddr: 0xF070, symSize: 0x1C }
  - { offset: 0x3BF8D, size: 0x8, addend: 0x0, symName: '__ZN4core5array4iter94_$LT$impl$u20$core..iter..traits..collect..IntoIterator$u20$for$u20$$u5b$T$u3b$$u20$N$u5d$$GT$9into_iter17h41da792e3c9df97eE', symObjAddr: 0x0, symBinAddr: 0xEF14, symSize: 0x7C }
  - { offset: 0x3BFEA, size: 0x8, addend: 0x0, symName: '__ZN4core5array4iter94_$LT$impl$u20$core..iter..traits..collect..IntoIterator$u20$for$u20$$u5b$T$u3b$$u20$N$u5d$$GT$9into_iter17ha61bb1755a36361aE', symObjAddr: 0x7C, symBinAddr: 0xEF90, symSize: 0x7C }
  - { offset: 0x3C18C, size: 0x8, addend: 0x0, symName: '__ZN50_$LT$T$u20$as$u20$core..convert..Into$LT$U$GT$$GT$4into17h4c68bcb7693be1a2E', symObjAddr: 0xF8, symBinAddr: 0xF00C, symSize: 0x34 }
  - { offset: 0x3C1D8, size: 0x8, addend: 0x0, symName: '__ZN51_$LT$T$u20$as$u20$core..borrow..Borrow$LT$T$GT$$GT$6borrow17hc5d44bf6c79eb598E', symObjAddr: 0x12C, symBinAddr: 0xF040, symSize: 0x14 }
  - { offset: 0x3C474, size: 0x8, addend: 0x0, symName: '__ZN103_$LT$$RF$mut$u20$core..option..Option$LT$T$GT$$u20$as$u20$core..iter..traits..collect..IntoIterator$GT$9into_iter17h4206ea099f0bac80E', symObjAddr: 0x0, symBinAddr: 0xF08C, symSize: 0x4C }
  - { offset: 0x3F5D8, size: 0x8, addend: 0x0, symName: '__ZN103_$LT$$RF$mut$u20$core..option..Option$LT$T$GT$$u20$as$u20$core..iter..traits..collect..IntoIterator$GT$9into_iter17h4206ea099f0bac80E', symObjAddr: 0x0, symBinAddr: 0xF08C, symSize: 0x4C }
  - { offset: 0x3F66B, size: 0x8, addend: 0x0, symName: '__ZN145_$LT$core..option..Option$LT$T$GT$$u20$as$u20$core..ops..try_trait..FromResidual$LT$core..option..Option$LT$core..convert..Infallible$GT$$GT$$GT$13from_residual17h0eaed8ad1165cfb3E', symObjAddr: 0xD8, symBinAddr: 0xF164, symSize: 0x18 }
  - { offset: 0x3F69E, size: 0x8, addend: 0x0, symName: '__ZN145_$LT$core..option..Option$LT$T$GT$$u20$as$u20$core..ops..try_trait..FromResidual$LT$core..option..Option$LT$core..convert..Infallible$GT$$GT$$GT$13from_residual17h30b402ba9c3abf63E', symObjAddr: 0xF0, symBinAddr: 0xF17C, symSize: 0x18 }
  - { offset: 0x3F6D1, size: 0x8, addend: 0x0, symName: '__ZN145_$LT$core..option..Option$LT$T$GT$$u20$as$u20$core..ops..try_trait..FromResidual$LT$core..option..Option$LT$core..convert..Infallible$GT$$GT$$GT$13from_residual17h8f04c19be5120c72E', symObjAddr: 0x108, symBinAddr: 0xF194, symSize: 0x18 }
  - { offset: 0x3F704, size: 0x8, addend: 0x0, symName: '__ZN145_$LT$core..option..Option$LT$T$GT$$u20$as$u20$core..ops..try_trait..FromResidual$LT$core..option..Option$LT$core..convert..Infallible$GT$$GT$$GT$13from_residual17hd3e4bb0e46c88718E', symObjAddr: 0x120, symBinAddr: 0xF1AC, symSize: 0x10 }
  - { offset: 0x3F737, size: 0x8, addend: 0x0, symName: '__ZN145_$LT$core..option..Option$LT$T$GT$$u20$as$u20$core..ops..try_trait..FromResidual$LT$core..option..Option$LT$core..convert..Infallible$GT$$GT$$GT$13from_residual17hd5614fbda4d2f526E', symObjAddr: 0x130, symBinAddr: 0xF1BC, symSize: 0x18 }
  - { offset: 0x3F76A, size: 0x8, addend: 0x0, symName: '__ZN145_$LT$core..option..Option$LT$T$GT$$u20$as$u20$core..ops..try_trait..FromResidual$LT$core..option..Option$LT$core..convert..Infallible$GT$$GT$$GT$13from_residual17he8fd7a8dd587000dE', symObjAddr: 0x148, symBinAddr: 0xF1D4, symSize: 0x10 }
  - { offset: 0x46C3A, size: 0x8, addend: 0x0, symName: __ZN4core6option6Option4Some17hf9fa9be0bbc98febE, symObjAddr: 0x6CD8, symBinAddr: 0x15D64, symSize: 0x18 }
  - { offset: 0x46C74, size: 0x8, addend: 0x0, symName: '__ZN68_$LT$core..option..Option$LT$T$GT$$u20$as$u20$core..clone..Clone$GT$5clone17h26c725a280ae4ad2E', symObjAddr: 0x6DD4, symBinAddr: 0x15E60, symSize: 0x60 }
  - { offset: 0x46CC9, size: 0x8, addend: 0x0, symName: '__ZN68_$LT$core..option..Option$LT$T$GT$$u20$as$u20$core..clone..Clone$GT$5clone17h6597dff1c53e844aE', symObjAddr: 0x6E34, symBinAddr: 0x15EC0, symSize: 0x78 }
  - { offset: 0x46D1E, size: 0x8, addend: 0x0, symName: '__ZN68_$LT$core..option..Option$LT$T$GT$$u20$as$u20$core..clone..Clone$GT$5clone17ha34af5a832eb3832E', symObjAddr: 0x6EAC, symBinAddr: 0x15F38, symSize: 0x64 }
  - { offset: 0x46D91, size: 0x8, addend: 0x0, symName: '__ZN68_$LT$core..option..Option$LT$T$GT$$u20$as$u20$core..clone..Clone$GT$5clone17ha82a93ecc165253dE', symObjAddr: 0x6F10, symBinAddr: 0x15F9C, symSize: 0x64 }
  - { offset: 0x46DE6, size: 0x8, addend: 0x0, symName: '__ZN68_$LT$core..option..Option$LT$T$GT$$u20$as$u20$core..clone..Clone$GT$5clone17hc549494b8f77b66cE', symObjAddr: 0x6F74, symBinAddr: 0x16000, symSize: 0x78 }
  - { offset: 0x46E3B, size: 0x8, addend: 0x0, symName: '__ZN68_$LT$core..option..Option$LT$T$GT$$u20$as$u20$core..clone..Clone$GT$5clone17hdb3ff8f99f0c08b3E', symObjAddr: 0x6FEC, symBinAddr: 0x16078, symSize: 0x64 }
  - { offset: 0x46E90, size: 0x8, addend: 0x0, symName: '__ZN68_$LT$core..option..Option$LT$T$GT$$u20$as$u20$core..clone..Clone$GT$5clone17hf7aa374972209abdE', symObjAddr: 0x7050, symBinAddr: 0x160DC, symSize: 0x60 }
  - { offset: 0x46EEB, size: 0x8, addend: 0x0, symName: '__ZN70_$LT$core..option..Option$LT$T$GT$$u20$as$u20$core..cmp..PartialEq$GT$2eq17h0d04feb4d561df54E', symObjAddr: 0x70B0, symBinAddr: 0x1613C, symSize: 0xAC }
  - { offset: 0x46F65, size: 0x8, addend: 0x0, symName: '__ZN72_$LT$core..option..Option$LT$T$GT$$u20$as$u20$core..default..Default$GT$7default17h1bc627c448096a4aE', symObjAddr: 0x7184, symBinAddr: 0x16210, symSize: 0x8 }
  - { offset: 0x46F8D, size: 0x8, addend: 0x0, symName: '__ZN72_$LT$core..option..Option$LT$T$GT$$u20$as$u20$core..default..Default$GT$7default17h37a789dcd54d2472E', symObjAddr: 0x718C, symBinAddr: 0x16218, symSize: 0x10 }
  - { offset: 0x46FB5, size: 0x8, addend: 0x0, symName: '__ZN72_$LT$core..option..Option$LT$T$GT$$u20$as$u20$core..default..Default$GT$7default17hf21f662db2a2befbE', symObjAddr: 0x719C, symBinAddr: 0x16228, symSize: 0x8 }
  - { offset: 0x46FE3, size: 0x8, addend: 0x0, symName: '__ZN75_$LT$core..option..Option$LT$T$GT$$u20$as$u20$core..ops..try_trait..Try$GT$6branch17h12c431c591109177E', symObjAddr: 0x71A4, symBinAddr: 0x16230, symSize: 0x50 }
  - { offset: 0x47038, size: 0x8, addend: 0x0, symName: '__ZN75_$LT$core..option..Option$LT$T$GT$$u20$as$u20$core..ops..try_trait..Try$GT$6branch17h31727fb9052523b6E', symObjAddr: 0x71F4, symBinAddr: 0x16280, symSize: 0x40 }
  - { offset: 0x4708D, size: 0x8, addend: 0x0, symName: '__ZN75_$LT$core..option..Option$LT$T$GT$$u20$as$u20$core..ops..try_trait..Try$GT$6branch17h5c85968cc5c7741bE', symObjAddr: 0x7234, symBinAddr: 0x162C0, symSize: 0x40 }
  - { offset: 0x470E2, size: 0x8, addend: 0x0, symName: '__ZN75_$LT$core..option..Option$LT$T$GT$$u20$as$u20$core..ops..try_trait..Try$GT$6branch17h809c2362e2800f66E', symObjAddr: 0x7274, symBinAddr: 0x16300, symSize: 0x40 }
  - { offset: 0x47137, size: 0x8, addend: 0x0, symName: '__ZN75_$LT$core..option..Option$LT$T$GT$$u20$as$u20$core..ops..try_trait..Try$GT$6branch17h88b4f8f18602f32fE', symObjAddr: 0x72B4, symBinAddr: 0x16340, symSize: 0x48 }
  - { offset: 0x4718C, size: 0x8, addend: 0x0, symName: '__ZN75_$LT$core..option..Option$LT$T$GT$$u20$as$u20$core..ops..try_trait..Try$GT$6branch17h9bdf29e9838a52b2E', symObjAddr: 0x72FC, symBinAddr: 0x16388, symSize: 0x40 }
  - { offset: 0x471E1, size: 0x8, addend: 0x0, symName: '__ZN75_$LT$core..option..Option$LT$T$GT$$u20$as$u20$core..ops..try_trait..Try$GT$6branch17he8704ce80ef4c951E', symObjAddr: 0x733C, symBinAddr: 0x163C8, symSize: 0x40 }
  - { offset: 0x47236, size: 0x8, addend: 0x0, symName: '__ZN75_$LT$core..option..Option$LT$T$GT$$u20$as$u20$core..ops..try_trait..Try$GT$6branch17hf894cd5b1fdd0ef8E', symObjAddr: 0x737C, symBinAddr: 0x16408, symSize: 0x40 }
  - { offset: 0x472E8, size: 0x8, addend: 0x0, symName: '__ZN89_$LT$core..option..IterMut$LT$A$GT$$u20$as$u20$core..iter..traits..iterator..Iterator$GT$4next17h1dd15b9b5d301f82E', symObjAddr: 0x73BC, symBinAddr: 0x16448, symSize: 0x20 }
  - { offset: 0x47366, size: 0x8, addend: 0x0, symName: '__ZN90_$LT$core..option..IntoIter$LT$A$GT$$u20$as$u20$core..iter..traits..iterator..Iterator$GT$4next17h48c57e691195a685E', symObjAddr: 0x73DC, symBinAddr: 0x16468, symSize: 0x2C }
  - { offset: 0x473DE, size: 0x8, addend: 0x0, symName: '__ZN90_$LT$core..option..IntoIter$LT$A$GT$$u20$as$u20$core..iter..traits..iterator..Iterator$GT$9size_hint17hecc3c5d001a6b7f6E', symObjAddr: 0x7408, symBinAddr: 0x16494, symSize: 0x34 }
  - { offset: 0x4747D, size: 0x8, addend: 0x0, symName: '__ZN91_$LT$core..option..Option$LT$T$GT$$u20$as$u20$core..iter..traits..collect..IntoIterator$GT$9into_iter17hc555d7003b6dd25dE', symObjAddr: 0x743C, symBinAddr: 0x164C8, symSize: 0x14 }
  - { offset: 0x47736, size: 0x8, addend: 0x0, symName: __ZN4core3cmp9PartialEq2ne17h22ebd60730e1117aE, symObjAddr: 0x158, symBinAddr: 0xF1E4, symSize: 0x30 }
  - { offset: 0x477AD, size: 0x8, addend: 0x0, symName: '__ZN4core3ptr9const_ptr33_$LT$impl$u20$$BP$const$u20$T$GT$7is_null17h876c4bf29195eb12E', symObjAddr: 0x188, symBinAddr: 0xF214, symSize: 0x18 }
  - { offset: 0x47BAE, size: 0x8, addend: 0x0, symName: __ZN4core4iter6traits8iterator8Iterator4fold17h1eb05ce7cad8e630E, symObjAddr: 0x1A0, symBinAddr: 0xF22C, symSize: 0xE8 }
  - { offset: 0x47C3E, size: 0x8, addend: 0x0, symName: __ZN4core4iter6traits8iterator8Iterator7collect17hd56207b247d3c345E, symObjAddr: 0x288, symBinAddr: 0xF314, symSize: 0x24 }
  - { offset: 0x47CCD, size: 0x8, addend: 0x0, symName: __ZN4core4iter6traits8iterator8Iterator8for_each17h0ae02aa54e70b304E, symObjAddr: 0x2AC, symBinAddr: 0xF338, symSize: 0x3C }
  - { offset: 0x47D44, size: 0x8, addend: 0x0, symName: '__ZN63_$LT$I$u20$as$u20$core..iter..traits..collect..IntoIterator$GT$9into_iter17he884a068749597aeE', symObjAddr: 0x6DC0, symBinAddr: 0x15E4C, symSize: 0x14 }
  - { offset: 0x47E26, size: 0x8, addend: 0x0, symName: '__ZN4core5slice29_$LT$impl$u20$$u5b$T$u5d$$GT$15copy_from_slice17h8c4a1e374c832ce2E', symObjAddr: 0x2E8, symBinAddr: 0xF374, symSize: 0x34 }
  - { offset: 0x47E8F, size: 0x8, addend: 0x0, symName: '__ZN4core5slice29_$LT$impl$u20$$u5b$T$u5d$$GT$18split_at_unchecked17hc5b444daab7a1ea1E', symObjAddr: 0x31C, symBinAddr: 0xF3A8, symSize: 0xE8 }
  - { offset: 0x47FE9, size: 0x8, addend: 0x0, symName: '__ZN4core5slice29_$LT$impl$u20$$u5b$T$u5d$$GT$3get17ha8e0fcdb2b676ad2E', symObjAddr: 0x404, symBinAddr: 0xF490, symSize: 0x44 }
  - { offset: 0x48038, size: 0x8, addend: 0x0, symName: '__ZN4core5slice29_$LT$impl$u20$$u5b$T$u5d$$GT$3get17hd81529577747534bE', symObjAddr: 0x448, symBinAddr: 0xF4D4, symSize: 0x44 }
  - { offset: 0x48087, size: 0x8, addend: 0x0, symName: '__ZN4core5slice29_$LT$impl$u20$$u5b$T$u5d$$GT$4iter17hb7ff104cf7927c5fE', symObjAddr: 0x48C, symBinAddr: 0xF518, symSize: 0x28 }
  - { offset: 0x480BE, size: 0x8, addend: 0x0, symName: '__ZN4core5slice29_$LT$impl$u20$$u5b$T$u5d$$GT$8iter_mut17h59e90d337590836dE', symObjAddr: 0x4B4, symBinAddr: 0xF540, symSize: 0x28 }
  - { offset: 0x48128, size: 0x8, addend: 0x0, symName: '__ZN4core5slice29_$LT$impl$u20$$u5b$T$u5d$$GT$8split_at17h7ef4bca9af2dfe14E', symObjAddr: 0x4DC, symBinAddr: 0xF568, symSize: 0xAC }
  - { offset: 0x4AEC9, size: 0x8, addend: 0x0, symName: '__ZN71_$LT$T$u20$as$u20$pyo3..impl_..extract_argument..PyFunctionArgument$GT$7extract17h93837079adb70875E', symObjAddr: 0x715C, symBinAddr: 0x161E8, symSize: 0x28 }
  - { offset: 0x4AFF7, size: 0x8, addend: 0x0, symName: '__ZN4pyo311conversions3std6option88_$LT$impl$u20$pyo3..conversion..ToPyObject$u20$for$u20$core..option..Option$LT$T$GT$$GT$9to_object17h1fb93682702e1d46E', symObjAddr: 0x6CF0, symBinAddr: 0x15D7C, symSize: 0x30 }
  - { offset: 0x4B04B, size: 0x8, addend: 0x0, symName: '__ZN4pyo311conversions3std6option90_$LT$impl$u20$pyo3..conversion..FromPyObject$u20$for$u20$core..option..Option$LT$T$GT$$GT$13extract_bound17h84d01b7068a778c2E', symObjAddr: 0x6D20, symBinAddr: 0x15DAC, symSize: 0x6C }
  - { offset: 0x4B364, size: 0x8, addend: 0x0, symName: '__ZN57_$LT$T$u20$as$u20$pyo3..conversion..FromPyObjectBound$GT$20from_py_object_bound17h5d9ae3a21295fc53E', symObjAddr: 0x6D8C, symBinAddr: 0x15E18, symSize: 0x34 }
  - { offset: 0x4B428, size: 0x8, addend: 0x0, symName: '__ZN10serde_core3ser5impls62_$LT$impl$u20$serde_core..ser..Serialize$u20$for$u20$$RF$T$GT$9serialize17hae0f7099f9afa0a9E', symObjAddr: 0x4C, symBinAddr: 0xF0D8, symSize: 0x28 }
  - { offset: 0x4B47D, size: 0x8, addend: 0x0, symName: '__ZN10serde_core3ser5impls86_$LT$impl$u20$serde_core..ser..Serialize$u20$for$u20$core..option..Option$LT$T$GT$$GT$9serialize17ha44cfb9359756e60E', symObjAddr: 0x74, symBinAddr: 0xF100, symSize: 0x64 }
  - { offset: 0x4D2E2, size: 0x8, addend: 0x0, symName: '__ZN4core6option15Option$LT$T$GT$10ok_or_else17h00494f9c8f286e58E', symObjAddr: 0x588, symBinAddr: 0xF614, symSize: 0x70 }
  - { offset: 0x4D3A2, size: 0x8, addend: 0x0, symName: '__ZN4core6option15Option$LT$T$GT$10ok_or_else17h035b19e84aa1080eE', symObjAddr: 0x5F8, symBinAddr: 0xF684, symSize: 0x74 }
  - { offset: 0x4D40D, size: 0x8, addend: 0x0, symName: '__ZN4core6option15Option$LT$T$GT$10ok_or_else17h0509fb161df35734E', symObjAddr: 0x66C, symBinAddr: 0xF6F8, symSize: 0x74 }
  - { offset: 0x4D478, size: 0x8, addend: 0x0, symName: '__ZN4core6option15Option$LT$T$GT$10ok_or_else17h065ee0a7a923af69E', symObjAddr: 0x6E0, symBinAddr: 0xF76C, symSize: 0x74 }
  - { offset: 0x4D4E3, size: 0x8, addend: 0x0, symName: '__ZN4core6option15Option$LT$T$GT$10ok_or_else17h0831b3220df7ca95E', symObjAddr: 0x754, symBinAddr: 0xF7E0, symSize: 0x70 }
  - { offset: 0x4D55B, size: 0x8, addend: 0x0, symName: '__ZN4core6option15Option$LT$T$GT$10ok_or_else17h0ab7d375b06ceb57E', symObjAddr: 0x7C4, symBinAddr: 0xF850, symSize: 0x74 }
  - { offset: 0x4D5C6, size: 0x8, addend: 0x0, symName: '__ZN4core6option15Option$LT$T$GT$10ok_or_else17h0f5bb18f77989fc9E', symObjAddr: 0x838, symBinAddr: 0xF8C4, symSize: 0x74 }
  - { offset: 0x4D631, size: 0x8, addend: 0x0, symName: '__ZN4core6option15Option$LT$T$GT$10ok_or_else17h1bedf4f0766053d5E', symObjAddr: 0x8AC, symBinAddr: 0xF938, symSize: 0x74 }
  - { offset: 0x4D69C, size: 0x8, addend: 0x0, symName: '__ZN4core6option15Option$LT$T$GT$10ok_or_else17h1bfac069f6aaab13E', symObjAddr: 0x920, symBinAddr: 0xF9AC, symSize: 0x74 }
  - { offset: 0x4D762, size: 0x8, addend: 0x0, symName: '__ZN4core6option15Option$LT$T$GT$10ok_or_else17h1c2c508423e8a5a4E', symObjAddr: 0x994, symBinAddr: 0xFA20, symSize: 0x90 }
  - { offset: 0x4D7CD, size: 0x8, addend: 0x0, symName: '__ZN4core6option15Option$LT$T$GT$10ok_or_else17h1e6f67ca6e171c22E', symObjAddr: 0xA24, symBinAddr: 0xFAB0, symSize: 0x74 }
  - { offset: 0x4D838, size: 0x8, addend: 0x0, symName: '__ZN4core6option15Option$LT$T$GT$10ok_or_else17h24f8db393eea2ccdE', symObjAddr: 0xA98, symBinAddr: 0xFB24, symSize: 0x74 }
  - { offset: 0x4D8A3, size: 0x8, addend: 0x0, symName: '__ZN4core6option15Option$LT$T$GT$10ok_or_else17h281c3fdf66898df7E', symObjAddr: 0xB0C, symBinAddr: 0xFB98, symSize: 0x74 }
  - { offset: 0x4D90E, size: 0x8, addend: 0x0, symName: '__ZN4core6option15Option$LT$T$GT$10ok_or_else17h28aff3736c17ec9bE', symObjAddr: 0xB80, symBinAddr: 0xFC0C, symSize: 0x74 }
  - { offset: 0x4D979, size: 0x8, addend: 0x0, symName: '__ZN4core6option15Option$LT$T$GT$10ok_or_else17h2ce9adcb66d1947aE', symObjAddr: 0xBF4, symBinAddr: 0xFC80, symSize: 0x74 }
  - { offset: 0x4D9E4, size: 0x8, addend: 0x0, symName: '__ZN4core6option15Option$LT$T$GT$10ok_or_else17h2ddc55182b5e6ee1E', symObjAddr: 0xC68, symBinAddr: 0xFCF4, symSize: 0x74 }
  - { offset: 0x4DD99, size: 0x8, addend: 0x0, symName: '__ZN4core6option15Option$LT$T$GT$10ok_or_else17h2fc041d6a7a5339dE', symObjAddr: 0xCDC, symBinAddr: 0xFD68, symSize: 0x70 }
  - { offset: 0x4DE2B, size: 0x8, addend: 0x0, symName: '__ZN4core6option15Option$LT$T$GT$10ok_or_else17h30b789db3a826ec7E', symObjAddr: 0xD4C, symBinAddr: 0xFDD8, symSize: 0x90 }
  - { offset: 0x4DEA3, size: 0x8, addend: 0x0, symName: '__ZN4core6option15Option$LT$T$GT$10ok_or_else17h3464b9e36b758d87E', symObjAddr: 0xDDC, symBinAddr: 0xFE68, symSize: 0x74 }
  - { offset: 0x4DF0E, size: 0x8, addend: 0x0, symName: '__ZN4core6option15Option$LT$T$GT$10ok_or_else17h3690a436b31a0861E', symObjAddr: 0xE50, symBinAddr: 0xFEDC, symSize: 0x74 }
  - { offset: 0x4DF79, size: 0x8, addend: 0x0, symName: '__ZN4core6option15Option$LT$T$GT$10ok_or_else17h3abcda38acfda686E', symObjAddr: 0xEC4, symBinAddr: 0xFF50, symSize: 0x7C }
  - { offset: 0x4DFE4, size: 0x8, addend: 0x0, symName: '__ZN4core6option15Option$LT$T$GT$10ok_or_else17h3d3b8731130d19aaE', symObjAddr: 0xF40, symBinAddr: 0xFFCC, symSize: 0x74 }
  - { offset: 0x4E04F, size: 0x8, addend: 0x0, symName: '__ZN4core6option15Option$LT$T$GT$10ok_or_else17h416269ddd471d5b9E', symObjAddr: 0xFB4, symBinAddr: 0x10040, symSize: 0x74 }
  - { offset: 0x4E0BA, size: 0x8, addend: 0x0, symName: '__ZN4core6option15Option$LT$T$GT$10ok_or_else17h435cdb53b4a4f9c5E', symObjAddr: 0x1028, symBinAddr: 0x100B4, symSize: 0x74 }
  - { offset: 0x4E125, size: 0x8, addend: 0x0, symName: '__ZN4core6option15Option$LT$T$GT$10ok_or_else17h4726d2fafa938077E', symObjAddr: 0x109C, symBinAddr: 0x10128, symSize: 0x74 }
  - { offset: 0x4E190, size: 0x8, addend: 0x0, symName: '__ZN4core6option15Option$LT$T$GT$10ok_or_else17h4a3a4af1b26a762eE', symObjAddr: 0x1110, symBinAddr: 0x1019C, symSize: 0x70 }
  - { offset: 0x4E1FB, size: 0x8, addend: 0x0, symName: '__ZN4core6option15Option$LT$T$GT$10ok_or_else17h4d4c53c1f1ea643cE', symObjAddr: 0x1180, symBinAddr: 0x1020C, symSize: 0x74 }
  - { offset: 0x4E266, size: 0x8, addend: 0x0, symName: '__ZN4core6option15Option$LT$T$GT$10ok_or_else17h4d83464fe8f41cacE', symObjAddr: 0x11F4, symBinAddr: 0x10280, symSize: 0x74 }
  - { offset: 0x4E2D1, size: 0x8, addend: 0x0, symName: '__ZN4core6option15Option$LT$T$GT$10ok_or_else17h4deb09b08d921ba1E', symObjAddr: 0x1268, symBinAddr: 0x102F4, symSize: 0x74 }
  - { offset: 0x4E349, size: 0x8, addend: 0x0, symName: '__ZN4core6option15Option$LT$T$GT$10ok_or_else17h553e655611db1574E', symObjAddr: 0x12DC, symBinAddr: 0x10368, symSize: 0x70 }
  - { offset: 0x4E3B4, size: 0x8, addend: 0x0, symName: '__ZN4core6option15Option$LT$T$GT$10ok_or_else17h55913ee486bf2ea1E', symObjAddr: 0x134C, symBinAddr: 0x103D8, symSize: 0x74 }
  - { offset: 0x4E45A, size: 0x8, addend: 0x0, symName: '__ZN4core6option15Option$LT$T$GT$10ok_or_else17h5890b9114a1c2f16E', symObjAddr: 0x13C0, symBinAddr: 0x1044C, symSize: 0xA0 }
  - { offset: 0x4E4C6, size: 0x8, addend: 0x0, symName: '__ZN4core6option15Option$LT$T$GT$10ok_or_else17h5adbb97c50512a2dE', symObjAddr: 0x1460, symBinAddr: 0x104EC, symSize: 0x74 }
  - { offset: 0x4E531, size: 0x8, addend: 0x0, symName: '__ZN4core6option15Option$LT$T$GT$10ok_or_else17h5bf1d09b68d9808dE', symObjAddr: 0x14D4, symBinAddr: 0x10560, symSize: 0x74 }
  - { offset: 0x4E59C, size: 0x8, addend: 0x0, symName: '__ZN4core6option15Option$LT$T$GT$10ok_or_else17h5c6be9114bf479c2E', symObjAddr: 0x1548, symBinAddr: 0x105D4, symSize: 0x74 }
  - { offset: 0x4E607, size: 0x8, addend: 0x0, symName: '__ZN4core6option15Option$LT$T$GT$10ok_or_else17h5c9d1528a1359af3E', symObjAddr: 0x15BC, symBinAddr: 0x10648, symSize: 0x74 }
  - { offset: 0x4E672, size: 0x8, addend: 0x0, symName: '__ZN4core6option15Option$LT$T$GT$10ok_or_else17h5ca0d4cb74cd0c86E', symObjAddr: 0x1630, symBinAddr: 0x106BC, symSize: 0x74 }
  - { offset: 0x4E6DD, size: 0x8, addend: 0x0, symName: '__ZN4core6option15Option$LT$T$GT$10ok_or_else17h5eaf7794072d5e12E', symObjAddr: 0x16A4, symBinAddr: 0x10730, symSize: 0x74 }
  - { offset: 0x4E748, size: 0x8, addend: 0x0, symName: '__ZN4core6option15Option$LT$T$GT$10ok_or_else17h607adcdb6cfefc05E', symObjAddr: 0x1718, symBinAddr: 0x107A4, symSize: 0x74 }
  - { offset: 0x4E7B3, size: 0x8, addend: 0x0, symName: '__ZN4core6option15Option$LT$T$GT$10ok_or_else17h63fe9a4959682678E', symObjAddr: 0x178C, symBinAddr: 0x10818, symSize: 0x74 }
  - { offset: 0x4E81E, size: 0x8, addend: 0x0, symName: '__ZN4core6option15Option$LT$T$GT$10ok_or_else17h6408843f2c64e6c6E', symObjAddr: 0x1800, symBinAddr: 0x1088C, symSize: 0x74 }
  - { offset: 0x4E8B7, size: 0x8, addend: 0x0, symName: '__ZN4core6option15Option$LT$T$GT$10ok_or_else17h64b0939ec2792929E', symObjAddr: 0x1874, symBinAddr: 0x10900, symSize: 0x90 }
  - { offset: 0x4E922, size: 0x8, addend: 0x0, symName: '__ZN4core6option15Option$LT$T$GT$10ok_or_else17h66fde523a0da0836E', symObjAddr: 0x1904, symBinAddr: 0x10990, symSize: 0x74 }
  - { offset: 0x4E98D, size: 0x8, addend: 0x0, symName: '__ZN4core6option15Option$LT$T$GT$10ok_or_else17h67b6e9bab7be59e9E', symObjAddr: 0x1978, symBinAddr: 0x10A04, symSize: 0x74 }
  - { offset: 0x4E9F8, size: 0x8, addend: 0x0, symName: '__ZN4core6option15Option$LT$T$GT$10ok_or_else17h699154d803f1d286E', symObjAddr: 0x19EC, symBinAddr: 0x10A78, symSize: 0x74 }
  - { offset: 0x4EA63, size: 0x8, addend: 0x0, symName: '__ZN4core6option15Option$LT$T$GT$10ok_or_else17h69a5f6465501838dE', symObjAddr: 0x1A60, symBinAddr: 0x10AEC, symSize: 0x6C }
  - { offset: 0x4EACE, size: 0x8, addend: 0x0, symName: '__ZN4core6option15Option$LT$T$GT$10ok_or_else17h739b6f969592aa55E', symObjAddr: 0x1ACC, symBinAddr: 0x10B58, symSize: 0x74 }
  - { offset: 0x4EB39, size: 0x8, addend: 0x0, symName: '__ZN4core6option15Option$LT$T$GT$10ok_or_else17h73cb3e7d979fd805E', symObjAddr: 0x1B40, symBinAddr: 0x10BCC, symSize: 0x74 }
  - { offset: 0x4EBA4, size: 0x8, addend: 0x0, symName: '__ZN4core6option15Option$LT$T$GT$10ok_or_else17h744d08ad1c591a3eE', symObjAddr: 0x1BB4, symBinAddr: 0x10C40, symSize: 0x74 }
  - { offset: 0x4EC0F, size: 0x8, addend: 0x0, symName: '__ZN4core6option15Option$LT$T$GT$10ok_or_else17h7490a816f2b36580E', symObjAddr: 0x1C28, symBinAddr: 0x10CB4, symSize: 0x74 }
  - { offset: 0x4EC7A, size: 0x8, addend: 0x0, symName: '__ZN4core6option15Option$LT$T$GT$10ok_or_else17h753e2417d22bfd0cE', symObjAddr: 0x1C9C, symBinAddr: 0x10D28, symSize: 0x74 }
  - { offset: 0x4ECE5, size: 0x8, addend: 0x0, symName: '__ZN4core6option15Option$LT$T$GT$10ok_or_else17h77bb678dca5aec43E', symObjAddr: 0x1D10, symBinAddr: 0x10D9C, symSize: 0x8C }
  - { offset: 0x4ED78, size: 0x8, addend: 0x0, symName: '__ZN4core6option15Option$LT$T$GT$10ok_or_else17h7a3ecdbcc2f6e1faE', symObjAddr: 0x1D9C, symBinAddr: 0x10E28, symSize: 0xA0 }
  - { offset: 0x4EDE4, size: 0x8, addend: 0x0, symName: '__ZN4core6option15Option$LT$T$GT$10ok_or_else17h7bcfff871b768b58E', symObjAddr: 0x1E3C, symBinAddr: 0x10EC8, symSize: 0x74 }
  - { offset: 0x4EE4F, size: 0x8, addend: 0x0, symName: '__ZN4core6option15Option$LT$T$GT$10ok_or_else17h7f777eae4984ec8aE', symObjAddr: 0x1EB0, symBinAddr: 0x10F3C, symSize: 0x74 }
  - { offset: 0x4EEBA, size: 0x8, addend: 0x0, symName: '__ZN4core6option15Option$LT$T$GT$10ok_or_else17h80670d1a8e8142ffE', symObjAddr: 0x1F24, symBinAddr: 0x10FB0, symSize: 0x74 }
  - { offset: 0x4EF32, size: 0x8, addend: 0x0, symName: '__ZN4core6option15Option$LT$T$GT$10ok_or_else17h82418115f1e2e860E', symObjAddr: 0x1F98, symBinAddr: 0x11024, symSize: 0x74 }
  - { offset: 0x4EF9D, size: 0x8, addend: 0x0, symName: '__ZN4core6option15Option$LT$T$GT$10ok_or_else17h859bbb354a5e94b9E', symObjAddr: 0x200C, symBinAddr: 0x11098, symSize: 0x74 }
  - { offset: 0x4F008, size: 0x8, addend: 0x0, symName: '__ZN4core6option15Option$LT$T$GT$10ok_or_else17h8757d2ed1041f9dfE', symObjAddr: 0x2080, symBinAddr: 0x1110C, symSize: 0x74 }
  - { offset: 0x4F073, size: 0x8, addend: 0x0, symName: '__ZN4core6option15Option$LT$T$GT$10ok_or_else17h8a873fc0beca80d6E', symObjAddr: 0x20F4, symBinAddr: 0x11180, symSize: 0x74 }
  - { offset: 0x4F0DE, size: 0x8, addend: 0x0, symName: '__ZN4core6option15Option$LT$T$GT$10ok_or_else17h8af82596edf46c58E', symObjAddr: 0x2168, symBinAddr: 0x111F4, symSize: 0x74 }
  - { offset: 0x4F149, size: 0x8, addend: 0x0, symName: '__ZN4core6option15Option$LT$T$GT$10ok_or_else17h8d76994b3f417d8eE', symObjAddr: 0x21DC, symBinAddr: 0x11268, symSize: 0x7C }
  - { offset: 0x4F1B4, size: 0x8, addend: 0x0, symName: '__ZN4core6option15Option$LT$T$GT$10ok_or_else17h933a2595f510b81cE', symObjAddr: 0x2258, symBinAddr: 0x112E4, symSize: 0x70 }
  - { offset: 0x4F21F, size: 0x8, addend: 0x0, symName: '__ZN4core6option15Option$LT$T$GT$10ok_or_else17h94977838df6c7360E', symObjAddr: 0x22C8, symBinAddr: 0x11354, symSize: 0x74 }
  - { offset: 0x4F28A, size: 0x8, addend: 0x0, symName: '__ZN4core6option15Option$LT$T$GT$10ok_or_else17h980011fafb695f38E', symObjAddr: 0x233C, symBinAddr: 0x113C8, symSize: 0x74 }
  - { offset: 0x4F2F5, size: 0x8, addend: 0x0, symName: '__ZN4core6option15Option$LT$T$GT$10ok_or_else17h9eea9868a262dcedE', symObjAddr: 0x23B0, symBinAddr: 0x1143C, symSize: 0x74 }
  - { offset: 0x4F360, size: 0x8, addend: 0x0, symName: '__ZN4core6option15Option$LT$T$GT$10ok_or_else17ha04ff365f81caaddE', symObjAddr: 0x2424, symBinAddr: 0x114B0, symSize: 0x84 }
  - { offset: 0x4F3CC, size: 0x8, addend: 0x0, symName: '__ZN4core6option15Option$LT$T$GT$10ok_or_else17ha4bc848a2ef81938E', symObjAddr: 0x24A8, symBinAddr: 0x11534, symSize: 0x74 }
  - { offset: 0x4F437, size: 0x8, addend: 0x0, symName: '__ZN4core6option15Option$LT$T$GT$10ok_or_else17ha5103d026c3b2bc6E', symObjAddr: 0x251C, symBinAddr: 0x115A8, symSize: 0x78 }
  - { offset: 0x4F4A2, size: 0x8, addend: 0x0, symName: '__ZN4core6option15Option$LT$T$GT$10ok_or_else17ha981e88592dc2832E', symObjAddr: 0x2594, symBinAddr: 0x11620, symSize: 0x74 }
  - { offset: 0x4F50D, size: 0x8, addend: 0x0, symName: '__ZN4core6option15Option$LT$T$GT$10ok_or_else17haf848210fe1d5858E', symObjAddr: 0x2608, symBinAddr: 0x11694, symSize: 0x74 }
  - { offset: 0x4F578, size: 0x8, addend: 0x0, symName: '__ZN4core6option15Option$LT$T$GT$10ok_or_else17hb0b4038f8161fd10E', symObjAddr: 0x267C, symBinAddr: 0x11708, symSize: 0x74 }
  - { offset: 0x4F5E3, size: 0x8, addend: 0x0, symName: '__ZN4core6option15Option$LT$T$GT$10ok_or_else17hb152214f14717283E', symObjAddr: 0x26F0, symBinAddr: 0x1177C, symSize: 0x74 }
  - { offset: 0x4F64E, size: 0x8, addend: 0x0, symName: '__ZN4core6option15Option$LT$T$GT$10ok_or_else17hb1cd77731f488e8eE', symObjAddr: 0x2764, symBinAddr: 0x117F0, symSize: 0x7C }
  - { offset: 0x4F6B9, size: 0x8, addend: 0x0, symName: '__ZN4core6option15Option$LT$T$GT$10ok_or_else17hb2808a04dd2f6acdE', symObjAddr: 0x27E0, symBinAddr: 0x1186C, symSize: 0x74 }
  - { offset: 0x4F724, size: 0x8, addend: 0x0, symName: '__ZN4core6option15Option$LT$T$GT$10ok_or_else17hb4c1adbf9885e4beE', symObjAddr: 0x2854, symBinAddr: 0x118E0, symSize: 0x74 }
  - { offset: 0x4F78F, size: 0x8, addend: 0x0, symName: '__ZN4core6option15Option$LT$T$GT$10ok_or_else17hb7816364f0eaa1a7E', symObjAddr: 0x28C8, symBinAddr: 0x11954, symSize: 0x74 }
  - { offset: 0x4F7FA, size: 0x8, addend: 0x0, symName: '__ZN4core6option15Option$LT$T$GT$10ok_or_else17hb7af5d8ee44ea1d6E', symObjAddr: 0x293C, symBinAddr: 0x119C8, symSize: 0x74 }
  - { offset: 0x4F865, size: 0x8, addend: 0x0, symName: '__ZN4core6option15Option$LT$T$GT$10ok_or_else17hb8b3cd2d5dd5cb1aE', symObjAddr: 0x29B0, symBinAddr: 0x11A3C, symSize: 0x74 }
  - { offset: 0x4F8D0, size: 0x8, addend: 0x0, symName: '__ZN4core6option15Option$LT$T$GT$10ok_or_else17hb9f4c2000697d5ecE', symObjAddr: 0x2A24, symBinAddr: 0x11AB0, symSize: 0x74 }
  - { offset: 0x4F93B, size: 0x8, addend: 0x0, symName: '__ZN4core6option15Option$LT$T$GT$10ok_or_else17hba76fd11f87e4c44E', symObjAddr: 0x2A98, symBinAddr: 0x11B24, symSize: 0x74 }
  - { offset: 0x4F9A6, size: 0x8, addend: 0x0, symName: '__ZN4core6option15Option$LT$T$GT$10ok_or_else17hbd4134f1f655888eE', symObjAddr: 0x2B0C, symBinAddr: 0x11B98, symSize: 0x74 }
  - { offset: 0x4FA11, size: 0x8, addend: 0x0, symName: '__ZN4core6option15Option$LT$T$GT$10ok_or_else17hbddccb284cc86db3E', symObjAddr: 0x2B80, symBinAddr: 0x11C0C, symSize: 0x74 }
  - { offset: 0x4FA7C, size: 0x8, addend: 0x0, symName: '__ZN4core6option15Option$LT$T$GT$10ok_or_else17hbefbd0ec5a0dd4a3E', symObjAddr: 0x2BF4, symBinAddr: 0x11C80, symSize: 0x74 }
  - { offset: 0x4FAE7, size: 0x8, addend: 0x0, symName: '__ZN4core6option15Option$LT$T$GT$10ok_or_else17hc2e2aedf28779bcfE', symObjAddr: 0x2C68, symBinAddr: 0x11CF4, symSize: 0x74 }
  - { offset: 0x4FB52, size: 0x8, addend: 0x0, symName: '__ZN4core6option15Option$LT$T$GT$10ok_or_else17hc5335a007293c088E', symObjAddr: 0x2CDC, symBinAddr: 0x11D68, symSize: 0x74 }
  - { offset: 0x4FBBD, size: 0x8, addend: 0x0, symName: '__ZN4core6option15Option$LT$T$GT$10ok_or_else17hc8ce27a899c03dd4E', symObjAddr: 0x2D50, symBinAddr: 0x11DDC, symSize: 0x7C }
  - { offset: 0x4FC28, size: 0x8, addend: 0x0, symName: '__ZN4core6option15Option$LT$T$GT$10ok_or_else17hcf7be2633ad9d927E', symObjAddr: 0x2DCC, symBinAddr: 0x11E58, symSize: 0x74 }
  - { offset: 0x4FC93, size: 0x8, addend: 0x0, symName: '__ZN4core6option15Option$LT$T$GT$10ok_or_else17hd03e402d7cc3996cE', symObjAddr: 0x2E40, symBinAddr: 0x11ECC, symSize: 0x74 }
  - { offset: 0x4FCFE, size: 0x8, addend: 0x0, symName: '__ZN4core6option15Option$LT$T$GT$10ok_or_else17hd17f6c058baee1d5E', symObjAddr: 0x2EB4, symBinAddr: 0x11F40, symSize: 0x74 }
  - { offset: 0x4FD69, size: 0x8, addend: 0x0, symName: '__ZN4core6option15Option$LT$T$GT$10ok_or_else17hd5656825a13e6967E', symObjAddr: 0x2F28, symBinAddr: 0x11FB4, symSize: 0x74 }
  - { offset: 0x4FDD4, size: 0x8, addend: 0x0, symName: '__ZN4core6option15Option$LT$T$GT$10ok_or_else17hd6b553392bbb11b5E', symObjAddr: 0x2F9C, symBinAddr: 0x12028, symSize: 0x74 }
  - { offset: 0x4FE3F, size: 0x8, addend: 0x0, symName: '__ZN4core6option15Option$LT$T$GT$10ok_or_else17hd75b5583ed48338cE', symObjAddr: 0x3010, symBinAddr: 0x1209C, symSize: 0x74 }
  - { offset: 0x4FEAA, size: 0x8, addend: 0x0, symName: '__ZN4core6option15Option$LT$T$GT$10ok_or_else17hd797be9adccddf22E', symObjAddr: 0x3084, symBinAddr: 0x12110, symSize: 0x74 }
  - { offset: 0x4FF15, size: 0x8, addend: 0x0, symName: '__ZN4core6option15Option$LT$T$GT$10ok_or_else17hd7a2edc3c22b14eaE', symObjAddr: 0x30F8, symBinAddr: 0x12184, symSize: 0x74 }
  - { offset: 0x4FF80, size: 0x8, addend: 0x0, symName: '__ZN4core6option15Option$LT$T$GT$10ok_or_else17hda44a65fa7340062E', symObjAddr: 0x316C, symBinAddr: 0x121F8, symSize: 0x74 }
  - { offset: 0x4FFEB, size: 0x8, addend: 0x0, symName: '__ZN4core6option15Option$LT$T$GT$10ok_or_else17hdb32f9973e41826fE', symObjAddr: 0x31E0, symBinAddr: 0x1226C, symSize: 0x74 }
  - { offset: 0x50056, size: 0x8, addend: 0x0, symName: '__ZN4core6option15Option$LT$T$GT$10ok_or_else17hdb9e2ca3538a67d4E', symObjAddr: 0x3254, symBinAddr: 0x122E0, symSize: 0x74 }
  - { offset: 0x500C1, size: 0x8, addend: 0x0, symName: '__ZN4core6option15Option$LT$T$GT$10ok_or_else17hdd64e0888f74221eE', symObjAddr: 0x32C8, symBinAddr: 0x12354, symSize: 0x74 }
  - { offset: 0x5012C, size: 0x8, addend: 0x0, symName: '__ZN4core6option15Option$LT$T$GT$10ok_or_else17hdd884f5ada43b006E', symObjAddr: 0x333C, symBinAddr: 0x123C8, symSize: 0x74 }
  - { offset: 0x501BE, size: 0x8, addend: 0x0, symName: '__ZN4core6option15Option$LT$T$GT$10ok_or_else17he1caccb08c9e504aE', symObjAddr: 0x33B0, symBinAddr: 0x1243C, symSize: 0x90 }
  - { offset: 0x50229, size: 0x8, addend: 0x0, symName: '__ZN4core6option15Option$LT$T$GT$10ok_or_else17he3a3282bd9f927feE', symObjAddr: 0x3440, symBinAddr: 0x124CC, symSize: 0x74 }
  - { offset: 0x50294, size: 0x8, addend: 0x0, symName: '__ZN4core6option15Option$LT$T$GT$10ok_or_else17he73fa96628fa00b2E', symObjAddr: 0x34B4, symBinAddr: 0x12540, symSize: 0x74 }
  - { offset: 0x502FF, size: 0x8, addend: 0x0, symName: '__ZN4core6option15Option$LT$T$GT$10ok_or_else17heb22e5075ac308aeE', symObjAddr: 0x3528, symBinAddr: 0x125B4, symSize: 0x74 }
  - { offset: 0x5036A, size: 0x8, addend: 0x0, symName: '__ZN4core6option15Option$LT$T$GT$10ok_or_else17hec1f7b2a652ef785E', symObjAddr: 0x359C, symBinAddr: 0x12628, symSize: 0x74 }
  - { offset: 0x503D5, size: 0x8, addend: 0x0, symName: '__ZN4core6option15Option$LT$T$GT$10ok_or_else17heeaba77a10e148f3E', symObjAddr: 0x3610, symBinAddr: 0x1269C, symSize: 0x74 }
  - { offset: 0x50440, size: 0x8, addend: 0x0, symName: '__ZN4core6option15Option$LT$T$GT$10ok_or_else17heeb0c1328f9ede9cE', symObjAddr: 0x3684, symBinAddr: 0x12710, symSize: 0x74 }
  - { offset: 0x504AB, size: 0x8, addend: 0x0, symName: '__ZN4core6option15Option$LT$T$GT$10ok_or_else17hf6fff6446f9051ddE', symObjAddr: 0x36F8, symBinAddr: 0x12784, symSize: 0x74 }
  - { offset: 0x50516, size: 0x8, addend: 0x0, symName: '__ZN4core6option15Option$LT$T$GT$10ok_or_else17hfa4bff60e71871c1E', symObjAddr: 0x376C, symBinAddr: 0x127F8, symSize: 0x74 }
  - { offset: 0x50581, size: 0x8, addend: 0x0, symName: '__ZN4core6option15Option$LT$T$GT$10ok_or_else17hfb3aa338219f816fE', symObjAddr: 0x37E0, symBinAddr: 0x1286C, symSize: 0x74 }
  - { offset: 0x505EC, size: 0x8, addend: 0x0, symName: '__ZN4core6option15Option$LT$T$GT$10ok_or_else17hfd4695f20255057bE', symObjAddr: 0x3854, symBinAddr: 0x128E0, symSize: 0x74 }
  - { offset: 0x50671, size: 0x8, addend: 0x0, symName: '__ZN4core6option15Option$LT$T$GT$11is_some_and17h1aeffceff68d2806E', symObjAddr: 0x38C8, symBinAddr: 0x12954, symSize: 0x60 }
  - { offset: 0x506E0, size: 0x8, addend: 0x0, symName: '__ZN4core6option15Option$LT$T$GT$11is_some_and17h390c1d407258eb0bE', symObjAddr: 0x3928, symBinAddr: 0x129B4, symSize: 0x60 }
  - { offset: 0x50742, size: 0x8, addend: 0x0, symName: '__ZN4core6option15Option$LT$T$GT$11is_some_and17h40c38e7f427d04f6E', symObjAddr: 0x3988, symBinAddr: 0x12A14, symSize: 0x78 }
  - { offset: 0x507A5, size: 0x8, addend: 0x0, symName: '__ZN4core6option15Option$LT$T$GT$11is_some_and17h96c311378491cf98E', symObjAddr: 0x3A00, symBinAddr: 0x12A8C, symSize: 0x5C }
  - { offset: 0x50807, size: 0x8, addend: 0x0, symName: '__ZN4core6option15Option$LT$T$GT$11is_some_and17hb5b79cce5471883dE', symObjAddr: 0x3A5C, symBinAddr: 0x12AE8, symSize: 0x5C }
  - { offset: 0x50876, size: 0x8, addend: 0x0, symName: '__ZN4core6option15Option$LT$T$GT$11is_some_and17hff506abda3b26230E', symObjAddr: 0x3AB8, symBinAddr: 0x12B44, symSize: 0x60 }
  - { offset: 0x508F7, size: 0x8, addend: 0x0, symName: '__ZN4core6option15Option$LT$T$GT$11map_or_else17hac8f25da816557afE', symObjAddr: 0x3B18, symBinAddr: 0x12BA4, symSize: 0xB8 }
  - { offset: 0x5098C, size: 0x8, addend: 0x0, symName: '__ZN4core6option15Option$LT$T$GT$11map_or_else17hc6b8e0beed7e9cfaE', symObjAddr: 0x3BD0, symBinAddr: 0x12C5C, symSize: 0xD0 }
  - { offset: 0x50A3F, size: 0x8, addend: 0x0, symName: '__ZN4core6option15Option$LT$T$GT$14unwrap_or_else17h94707f58fe20a3eeE', symObjAddr: 0x3CA0, symBinAddr: 0x12D2C, symSize: 0x68 }
  - { offset: 0x50A84, size: 0x8, addend: 0x0, symName: '__ZN4core6option15Option$LT$T$GT$17unwrap_or_default17h088aa7a9473c7621E', symObjAddr: 0x3D08, symBinAddr: 0x12D94, symSize: 0x60 }
  - { offset: 0x50AB1, size: 0x8, addend: 0x0, symName: '__ZN4core6option15Option$LT$T$GT$17unwrap_or_default17h3c02257935893ea9E', symObjAddr: 0x3D68, symBinAddr: 0x12DF4, symSize: 0x50 }
  - { offset: 0x50ADE, size: 0x8, addend: 0x0, symName: '__ZN4core6option15Option$LT$T$GT$17unwrap_or_default17h5daf480a728283caE', symObjAddr: 0x3DB8, symBinAddr: 0x12E44, symSize: 0x54 }
  - { offset: 0x50B0B, size: 0x8, addend: 0x0, symName: '__ZN4core6option15Option$LT$T$GT$17unwrap_or_default17h651cf5e8137618aaE', symObjAddr: 0x3E0C, symBinAddr: 0x12E98, symSize: 0x60 }
  - { offset: 0x50BE0, size: 0x8, addend: 0x0, symName: '__ZN4core6option15Option$LT$T$GT$18get_or_insert_with17h180645184b978ad5E', symObjAddr: 0x3E6C, symBinAddr: 0x12EF8, symSize: 0x174 }
  - { offset: 0x50CF9, size: 0x8, addend: 0x0, symName: '__ZN4core6option15Option$LT$T$GT$18get_or_insert_with17h5476977b955f75acE', symObjAddr: 0x3FE0, symBinAddr: 0x1306C, symSize: 0x170 }
  - { offset: 0x50E22, size: 0x8, addend: 0x0, symName: '__ZN4core6option15Option$LT$T$GT$18get_or_insert_with17h5d8826233c3056f7E', symObjAddr: 0x4150, symBinAddr: 0x131DC, symSize: 0x12C }
  - { offset: 0x50F43, size: 0x8, addend: 0x0, symName: '__ZN4core6option15Option$LT$T$GT$18get_or_insert_with17h6f02794399c121a0E', symObjAddr: 0x427C, symBinAddr: 0x13308, symSize: 0x118 }
  - { offset: 0x51082, size: 0x8, addend: 0x0, symName: '__ZN4core6option15Option$LT$T$GT$18get_or_insert_with17ha090aa028f249f31E', symObjAddr: 0x4394, symBinAddr: 0x13420, symSize: 0x16C }
  - { offset: 0x51119, size: 0x8, addend: 0x0, symName: '__ZN4core6option15Option$LT$T$GT$3map17h01bd2a7de73be3ceE', symObjAddr: 0x4500, symBinAddr: 0x1358C, symSize: 0x58 }
  - { offset: 0x51191, size: 0x8, addend: 0x0, symName: '__ZN4core6option15Option$LT$T$GT$3map17h02bb1fdbcdd5f8efE', symObjAddr: 0x4558, symBinAddr: 0x135E4, symSize: 0x5C }
  - { offset: 0x51209, size: 0x8, addend: 0x0, symName: '__ZN4core6option15Option$LT$T$GT$3map17h1cf1fab6e6dc4536E', symObjAddr: 0x45B4, symBinAddr: 0x13640, symSize: 0x6C }
  - { offset: 0x51274, size: 0x8, addend: 0x0, symName: '__ZN4core6option15Option$LT$T$GT$3map17h2a620a415a61f1abE', symObjAddr: 0x4620, symBinAddr: 0x136AC, symSize: 0x60 }
  - { offset: 0x51304, size: 0x8, addend: 0x0, symName: '__ZN4core6option15Option$LT$T$GT$3map17h5f9b2b7c23046a58E', symObjAddr: 0x4680, symBinAddr: 0x1370C, symSize: 0x50 }
  - { offset: 0x5136F, size: 0x8, addend: 0x0, symName: '__ZN4core6option15Option$LT$T$GT$3map17h7950dd7a4765c657E', symObjAddr: 0x46D0, symBinAddr: 0x1375C, symSize: 0x68 }
  - { offset: 0x513DA, size: 0x8, addend: 0x0, symName: '__ZN4core6option15Option$LT$T$GT$3map17h7d564fabae4ea1ceE', symObjAddr: 0x4738, symBinAddr: 0x137C4, symSize: 0x70 }
  - { offset: 0x51470, size: 0x8, addend: 0x0, symName: '__ZN4core6option15Option$LT$T$GT$3map17h99ba1d8092e51a86E', symObjAddr: 0x47A8, symBinAddr: 0x13834, symSize: 0x68 }
  - { offset: 0x514DB, size: 0x8, addend: 0x0, symName: '__ZN4core6option15Option$LT$T$GT$3map17h9abe3440e1f6e7fbE', symObjAddr: 0x4810, symBinAddr: 0x1389C, symSize: 0x7C }
  - { offset: 0x51546, size: 0x8, addend: 0x0, symName: '__ZN4core6option15Option$LT$T$GT$3map17h9df1d65b1fedbf78E', symObjAddr: 0x488C, symBinAddr: 0x13918, symSize: 0x5C }
  - { offset: 0x515B1, size: 0x8, addend: 0x0, symName: '__ZN4core6option15Option$LT$T$GT$3map17ha45fe98233666bb6E', symObjAddr: 0x48E8, symBinAddr: 0x13974, symSize: 0x68 }
  - { offset: 0x5161C, size: 0x8, addend: 0x0, symName: '__ZN4core6option15Option$LT$T$GT$3map17ha5aa5380d2197ce2E', symObjAddr: 0x4950, symBinAddr: 0x139DC, symSize: 0x50 }
  - { offset: 0x51694, size: 0x8, addend: 0x0, symName: '__ZN4core6option15Option$LT$T$GT$3map17hc38131fb4dcd9c23E', symObjAddr: 0x49A0, symBinAddr: 0x13A2C, symSize: 0x50 }
  - { offset: 0x516FF, size: 0x8, addend: 0x0, symName: '__ZN4core6option15Option$LT$T$GT$3map17hc702ddb75a4367a7E', symObjAddr: 0x49F0, symBinAddr: 0x13A7C, symSize: 0x6C }
  - { offset: 0x5176A, size: 0x8, addend: 0x0, symName: '__ZN4core6option15Option$LT$T$GT$3map17he12ae0ef91755305E', symObjAddr: 0x4A5C, symBinAddr: 0x13AE8, symSize: 0x6C }
  - { offset: 0x517D5, size: 0x8, addend: 0x0, symName: '__ZN4core6option15Option$LT$T$GT$3map17hff077abaf2fc416eE', symObjAddr: 0x4AC8, symBinAddr: 0x13B54, symSize: 0x6C }
  - { offset: 0x5184D, size: 0x8, addend: 0x0, symName: '__ZN4core6option15Option$LT$T$GT$4take17h4cdfadf7900a5789E', symObjAddr: 0x4B34, symBinAddr: 0x13BC0, symSize: 0x5C }
  - { offset: 0x518A4, size: 0x8, addend: 0x0, symName: '__ZN4core6option15Option$LT$T$GT$4take17h76b406aba73618bbE', symObjAddr: 0x4B90, symBinAddr: 0x13C1C, symSize: 0x40 }
  - { offset: 0x518FB, size: 0x8, addend: 0x0, symName: '__ZN4core6option15Option$LT$T$GT$4take17h9f2e4dbc6bf6d00aE', symObjAddr: 0x4BD0, symBinAddr: 0x13C5C, symSize: 0x60 }
  - { offset: 0x51945, size: 0x8, addend: 0x0, symName: '__ZN4core6option15Option$LT$T$GT$4take17hb998e5de762bad73E', symObjAddr: 0x4C30, symBinAddr: 0x13CBC, symSize: 0x60 }
  - { offset: 0x5199C, size: 0x8, addend: 0x0, symName: '__ZN4core6option15Option$LT$T$GT$4take17hd910cbb823b48b75E', symObjAddr: 0x4C90, symBinAddr: 0x13D1C, symSize: 0x28 }
  - { offset: 0x519F3, size: 0x8, addend: 0x0, symName: '__ZN4core6option15Option$LT$T$GT$6as_mut17h5c7e1b1d3d7f5c58E', symObjAddr: 0x4CB8, symBinAddr: 0x13D44, symSize: 0x4C }
  - { offset: 0x51A3D, size: 0x8, addend: 0x0, symName: '__ZN4core6option15Option$LT$T$GT$6as_mut17h617bbd7dfc641566E', symObjAddr: 0x4D04, symBinAddr: 0x13D90, symSize: 0x4C }
  - { offset: 0x51A87, size: 0x8, addend: 0x0, symName: '__ZN4core6option15Option$LT$T$GT$6as_mut17hf077467e4b1dbe10E', symObjAddr: 0x4D50, symBinAddr: 0x13DDC, symSize: 0x50 }
  - { offset: 0x51AEB, size: 0x8, addend: 0x0, symName: '__ZN4core6option15Option$LT$T$GT$6as_ref17h0935b98eaad7850bE', symObjAddr: 0x4DA0, symBinAddr: 0x13E2C, symSize: 0x4C }
  - { offset: 0x51B42, size: 0x8, addend: 0x0, symName: '__ZN4core6option15Option$LT$T$GT$6as_ref17h0ab060016d0fd07aE', symObjAddr: 0x4DEC, symBinAddr: 0x13E78, symSize: 0x50 }
  - { offset: 0x51BEB, size: 0x8, addend: 0x0, symName: '__ZN4core6option15Option$LT$T$GT$6as_ref17h11a19d31028ea1ceE', symObjAddr: 0x4E3C, symBinAddr: 0x13EC8, symSize: 0x4C }
  - { offset: 0x51C4F, size: 0x8, addend: 0x0, symName: '__ZN4core6option15Option$LT$T$GT$6as_ref17h1f1a49dcb59ec692E', symObjAddr: 0x4E88, symBinAddr: 0x13F14, symSize: 0x50 }
  - { offset: 0x51CA6, size: 0x8, addend: 0x0, symName: '__ZN4core6option15Option$LT$T$GT$6as_ref17h24be9388bb97605cE', symObjAddr: 0x4ED8, symBinAddr: 0x13F64, symSize: 0x4C }
  - { offset: 0x51D0A, size: 0x8, addend: 0x0, symName: '__ZN4core6option15Option$LT$T$GT$6as_ref17h38393a908998f83eE', symObjAddr: 0x4F24, symBinAddr: 0x13FB0, symSize: 0x48 }
  - { offset: 0x51D61, size: 0x8, addend: 0x0, symName: '__ZN4core6option15Option$LT$T$GT$6as_ref17h443ce74b75ad62f9E', symObjAddr: 0x4F6C, symBinAddr: 0x13FF8, symSize: 0x48 }
  - { offset: 0x51DB8, size: 0x8, addend: 0x0, symName: '__ZN4core6option15Option$LT$T$GT$6as_ref17h4509e4a54e72178eE', symObjAddr: 0x4FB4, symBinAddr: 0x14040, symSize: 0x48 }
  - { offset: 0x51E0F, size: 0x8, addend: 0x0, symName: '__ZN4core6option15Option$LT$T$GT$6as_ref17h94a5e04dd75afe34E', symObjAddr: 0x4FFC, symBinAddr: 0x14088, symSize: 0x4C }
  - { offset: 0x51E66, size: 0x8, addend: 0x0, symName: '__ZN4core6option15Option$LT$T$GT$6as_ref17h9b5355073ca80e13E', symObjAddr: 0x5048, symBinAddr: 0x140D4, symSize: 0x4C }
  - { offset: 0x51EBD, size: 0x8, addend: 0x0, symName: '__ZN4core6option15Option$LT$T$GT$6as_ref17hb5dc81ffa8662d90E', symObjAddr: 0x5094, symBinAddr: 0x14120, symSize: 0x4C }
  - { offset: 0x51F07, size: 0x8, addend: 0x0, symName: '__ZN4core6option15Option$LT$T$GT$6expect17h3c43f22be9ac9b28E', symObjAddr: 0x50E0, symBinAddr: 0x1416C, symSize: 0x5C }
  - { offset: 0x51F42, size: 0x8, addend: 0x0, symName: '__ZN4core6option15Option$LT$T$GT$6expect17h73192ce3cd1618dbE', symObjAddr: 0x513C, symBinAddr: 0x141C8, symSize: 0x74 }
  - { offset: 0x520BD, size: 0x8, addend: 0x0, symName: '__ZN4core6option15Option$LT$T$GT$6insert17h2968a2673eda866eE', symObjAddr: 0x51B0, symBinAddr: 0x1423C, symSize: 0xA8 }
  - { offset: 0x521C3, size: 0x8, addend: 0x0, symName: '__ZN4core6option15Option$LT$T$GT$6insert17h35c432a78713dfefE', symObjAddr: 0x5258, symBinAddr: 0x142E4, symSize: 0xA8 }
  - { offset: 0x522C9, size: 0x8, addend: 0x0, symName: '__ZN4core6option15Option$LT$T$GT$6insert17h39dfb5db6a9c7dd5E', symObjAddr: 0x5300, symBinAddr: 0x1438C, symSize: 0xA8 }
  - { offset: 0x523CF, size: 0x8, addend: 0x0, symName: '__ZN4core6option15Option$LT$T$GT$6insert17h45155747580636c2E', symObjAddr: 0x53A8, symBinAddr: 0x14434, symSize: 0xA8 }
  - { offset: 0x524D5, size: 0x8, addend: 0x0, symName: '__ZN4core6option15Option$LT$T$GT$6insert17h493599a54e545fa8E', symObjAddr: 0x5450, symBinAddr: 0x144DC, symSize: 0xA8 }
  - { offset: 0x525DB, size: 0x8, addend: 0x0, symName: '__ZN4core6option15Option$LT$T$GT$6insert17h5917abc31cf78898E', symObjAddr: 0x54F8, symBinAddr: 0x14584, symSize: 0xA8 }
  - { offset: 0x526E1, size: 0x8, addend: 0x0, symName: '__ZN4core6option15Option$LT$T$GT$6insert17h7096a506e015bfa9E', symObjAddr: 0x55A0, symBinAddr: 0x1462C, symSize: 0xA8 }
  - { offset: 0x527E7, size: 0x8, addend: 0x0, symName: '__ZN4core6option15Option$LT$T$GT$6insert17h71bfab9b8501c638E', symObjAddr: 0x5648, symBinAddr: 0x146D4, symSize: 0xA8 }
  - { offset: 0x528ED, size: 0x8, addend: 0x0, symName: '__ZN4core6option15Option$LT$T$GT$6insert17h75ad70d3d3ae1711E', symObjAddr: 0x56F0, symBinAddr: 0x1477C, symSize: 0xA8 }
  - { offset: 0x529F3, size: 0x8, addend: 0x0, symName: '__ZN4core6option15Option$LT$T$GT$6insert17h954e52aae5e0fa2bE', symObjAddr: 0x5798, symBinAddr: 0x14824, symSize: 0xA8 }
  - { offset: 0x52C52, size: 0x8, addend: 0x0, symName: '__ZN4core6option15Option$LT$T$GT$6insert17h95e5d39c129f96c8E', symObjAddr: 0x5840, symBinAddr: 0x148CC, symSize: 0xA8 }
  - { offset: 0x52D58, size: 0x8, addend: 0x0, symName: '__ZN4core6option15Option$LT$T$GT$6insert17hae27293d1718e53bE', symObjAddr: 0x58E8, symBinAddr: 0x14974, symSize: 0xA8 }
  - { offset: 0x52E5E, size: 0x8, addend: 0x0, symName: '__ZN4core6option15Option$LT$T$GT$6insert17hb3516e0546f033f4E', symObjAddr: 0x5990, symBinAddr: 0x14A1C, symSize: 0xA8 }
  - { offset: 0x52F64, size: 0x8, addend: 0x0, symName: '__ZN4core6option15Option$LT$T$GT$6insert17hc9c3405edd05e522E', symObjAddr: 0x5A38, symBinAddr: 0x14AC4, symSize: 0xA8 }
  - { offset: 0x5306A, size: 0x8, addend: 0x0, symName: '__ZN4core6option15Option$LT$T$GT$6insert17hcca4cc7aef4aff60E', symObjAddr: 0x5AE0, symBinAddr: 0x14B6C, symSize: 0xA8 }
  - { offset: 0x53170, size: 0x8, addend: 0x0, symName: '__ZN4core6option15Option$LT$T$GT$6insert17hcf981969f1eefe21E', symObjAddr: 0x5B88, symBinAddr: 0x14C14, symSize: 0xA8 }
  - { offset: 0x53276, size: 0x8, addend: 0x0, symName: '__ZN4core6option15Option$LT$T$GT$6insert17hd1d485871edeb96cE', symObjAddr: 0x5C30, symBinAddr: 0x14CBC, symSize: 0xA8 }
  - { offset: 0x5337C, size: 0x8, addend: 0x0, symName: '__ZN4core6option15Option$LT$T$GT$6insert17hd2c10a5bf713854eE', symObjAddr: 0x5CD8, symBinAddr: 0x14D64, symSize: 0xA8 }
  - { offset: 0x53482, size: 0x8, addend: 0x0, symName: '__ZN4core6option15Option$LT$T$GT$6insert17hdc452972acf6b3c0E', symObjAddr: 0x5D80, symBinAddr: 0x14E0C, symSize: 0xA8 }
  - { offset: 0x53588, size: 0x8, addend: 0x0, symName: '__ZN4core6option15Option$LT$T$GT$6insert17hdd2d9961e57ecbfaE', symObjAddr: 0x5E28, symBinAddr: 0x14EB4, symSize: 0xA8 }
  - { offset: 0x5368E, size: 0x8, addend: 0x0, symName: '__ZN4core6option15Option$LT$T$GT$6insert17hde7e3d4797530218E', symObjAddr: 0x5ED0, symBinAddr: 0x14F5C, symSize: 0xA8 }
  - { offset: 0x53794, size: 0x8, addend: 0x0, symName: '__ZN4core6option15Option$LT$T$GT$6insert17he33bcd15f7e47303E', symObjAddr: 0x5F78, symBinAddr: 0x15004, symSize: 0xA8 }
  - { offset: 0x5389A, size: 0x8, addend: 0x0, symName: '__ZN4core6option15Option$LT$T$GT$6insert17he899bc18e905e708E', symObjAddr: 0x6020, symBinAddr: 0x150AC, symSize: 0xA8 }
  - { offset: 0x539A0, size: 0x8, addend: 0x0, symName: '__ZN4core6option15Option$LT$T$GT$6insert17hf79fd13b676af007E', symObjAddr: 0x60C8, symBinAddr: 0x15154, symSize: 0xA8 }
  - { offset: 0x53A52, size: 0x8, addend: 0x0, symName: '__ZN4core6option15Option$LT$T$GT$7is_none17h4f943820bf51b3cbE', symObjAddr: 0x6170, symBinAddr: 0x151FC, symSize: 0x28 }
  - { offset: 0x53AB8, size: 0x8, addend: 0x0, symName: '__ZN4core6option15Option$LT$T$GT$7is_none17hdec4561dbf21a459E', symObjAddr: 0x6198, symBinAddr: 0x15224, symSize: 0x24 }
  - { offset: 0x53B0F, size: 0x8, addend: 0x0, symName: '__ZN4core6option15Option$LT$T$GT$7is_some17h0e29c2ebcb3879c9E', symObjAddr: 0x61BC, symBinAddr: 0x15248, symSize: 0x20 }
  - { offset: 0x53B3B, size: 0x8, addend: 0x0, symName: '__ZN4core6option15Option$LT$T$GT$7is_some17h1a5156b46679b4c4E', symObjAddr: 0x61DC, symBinAddr: 0x15268, symSize: 0x2C }
  - { offset: 0x53B67, size: 0x8, addend: 0x0, symName: '__ZN4core6option15Option$LT$T$GT$7is_some17h1bc906715f5aad45E', symObjAddr: 0x6208, symBinAddr: 0x15294, symSize: 0x28 }
  - { offset: 0x53BA0, size: 0x8, addend: 0x0, symName: '__ZN4core6option15Option$LT$T$GT$7is_some17h327e7a5052230abcE', symObjAddr: 0x6230, symBinAddr: 0x152BC, symSize: 0x28 }
  - { offset: 0x53BCC, size: 0x8, addend: 0x0, symName: '__ZN4core6option15Option$LT$T$GT$7is_some17h5df57496bba7e21bE', symObjAddr: 0x6258, symBinAddr: 0x152E4, symSize: 0x28 }
  - { offset: 0x53C05, size: 0x8, addend: 0x0, symName: '__ZN4core6option15Option$LT$T$GT$7is_some17h5e2945709b9fd186E', symObjAddr: 0x6280, symBinAddr: 0x1530C, symSize: 0x28 }
  - { offset: 0x53C3E, size: 0x8, addend: 0x0, symName: '__ZN4core6option15Option$LT$T$GT$7is_some17hcfc008bd3eefe52aE', symObjAddr: 0x62A8, symBinAddr: 0x15334, symSize: 0x20 }
  - { offset: 0x53C6A, size: 0x8, addend: 0x0, symName: '__ZN4core6option15Option$LT$T$GT$7or_else17h87cd78cbdf111b54E', symObjAddr: 0x62C8, symBinAddr: 0x15354, symSize: 0x94 }
  - { offset: 0x53CBC, size: 0x8, addend: 0x0, symName: '__ZN4core6option15Option$LT$T$GT$7replace17h95c37e41cbed6e86E', symObjAddr: 0x635C, symBinAddr: 0x153E8, symSize: 0x28 }
  - { offset: 0x53D22, size: 0x8, addend: 0x0, symName: '__ZN4core6option15Option$LT$T$GT$8and_then17h021aa005ff4af3fbE', symObjAddr: 0x6384, symBinAddr: 0x15410, symSize: 0x5C }
  - { offset: 0x53D8D, size: 0x8, addend: 0x0, symName: '__ZN4core6option15Option$LT$T$GT$8and_then17h39b00b4acc615673E', symObjAddr: 0x63E0, symBinAddr: 0x1546C, symSize: 0x64 }
  - { offset: 0x53DF8, size: 0x8, addend: 0x0, symName: '__ZN4core6option15Option$LT$T$GT$8and_then17h4ef917964a8e9596E', symObjAddr: 0x6444, symBinAddr: 0x154D0, symSize: 0x60 }
  - { offset: 0x53E63, size: 0x8, addend: 0x0, symName: '__ZN4core6option15Option$LT$T$GT$8and_then17h6138b0d6b049bdb2E', symObjAddr: 0x64A4, symBinAddr: 0x15530, symSize: 0x68 }
  - { offset: 0x53ECE, size: 0x8, addend: 0x0, symName: '__ZN4core6option15Option$LT$T$GT$8and_then17h672972798e73d808E', symObjAddr: 0x650C, symBinAddr: 0x15598, symSize: 0x58 }
  - { offset: 0x53F39, size: 0x8, addend: 0x0, symName: '__ZN4core6option15Option$LT$T$GT$8and_then17hac75cc39962bd982E', symObjAddr: 0x6564, symBinAddr: 0x155F0, symSize: 0x60 }
  - { offset: 0x53FA4, size: 0x8, addend: 0x0, symName: '__ZN4core6option15Option$LT$T$GT$8and_then17hcbf21302a7c0aee1E', symObjAddr: 0x65C4, symBinAddr: 0x15650, symSize: 0x50 }
  - { offset: 0x54029, size: 0x8, addend: 0x0, symName: '__ZN4core6option15Option$LT$T$GT$8and_then17he16175d5bf9f7c45E', symObjAddr: 0x6614, symBinAddr: 0x156A0, symSize: 0x5C }
  - { offset: 0x54094, size: 0x8, addend: 0x0, symName: '__ZN4core6option15Option$LT$T$GT$8and_then17he6b24247baeac037E', symObjAddr: 0x6670, symBinAddr: 0x156FC, symSize: 0x5C }
  - { offset: 0x540FF, size: 0x8, addend: 0x0, symName: '__ZN4core6option15Option$LT$T$GT$8and_then17hf464a52ae7b85b98E', symObjAddr: 0x66CC, symBinAddr: 0x15758, symSize: 0x64 }
  - { offset: 0x54217, size: 0x8, addend: 0x0, symName: '__ZN4core6option15Option$LT$T$GT$8as_deref17h52b29becfcc53042E', symObjAddr: 0x6730, symBinAddr: 0x157BC, symSize: 0x78 }
  - { offset: 0x5436D, size: 0x8, addend: 0x0, symName: '__ZN4core6option15Option$LT$T$GT$8as_deref17h58ebd5a97907f7ddE', symObjAddr: 0x67A8, symBinAddr: 0x15834, symSize: 0x6C }
  - { offset: 0x54416, size: 0x8, addend: 0x0, symName: '__ZN4core6option15Option$LT$T$GT$9unwrap_or17ha0ba3b772935f04dE', symObjAddr: 0x6814, symBinAddr: 0x158A0, symSize: 0x74 }
  - { offset: 0x54453, size: 0x8, addend: 0x0, symName: '__ZN4core6option15Option$LT$T$GT$9unwrap_or17ha22461834711ec47E', symObjAddr: 0x6888, symBinAddr: 0x15914, symSize: 0x4C }
  - { offset: 0x5448E, size: 0x8, addend: 0x0, symName: '__ZN4core6option15Option$LT$T$GT$9unwrap_or17hc8ad97680849408eE', symObjAddr: 0x68D4, symBinAddr: 0x15960, symSize: 0x44 }
  - { offset: 0x544D6, size: 0x8, addend: 0x0, symName: '__ZN4core6option19Option$LT$$RF$T$GT$6cloned17h5e09ad48cf21c29eE', symObjAddr: 0x6918, symBinAddr: 0x159A4, symSize: 0x6C }
  - { offset: 0x54520, size: 0x8, addend: 0x0, symName: '__ZN4core6option19Option$LT$$RF$T$GT$6cloned17h814e8357e33d66b8E', symObjAddr: 0x6984, symBinAddr: 0x15A10, symSize: 0x64 }
  - { offset: 0x5456A, size: 0x8, addend: 0x0, symName: '__ZN4core6option19Option$LT$$RF$T$GT$6cloned17h8bb4fafbd99b97f2E', symObjAddr: 0x69E8, symBinAddr: 0x15A74, symSize: 0x6C }
  - { offset: 0x545B4, size: 0x8, addend: 0x0, symName: '__ZN4core6option19Option$LT$$RF$T$GT$6cloned17hd04fbb1ca61448d5E', symObjAddr: 0x6A54, symBinAddr: 0x15AE0, symSize: 0x6C }
  - { offset: 0x5460B, size: 0x8, addend: 0x0, symName: '__ZN4core6option19Option$LT$$RF$T$GT$6copied17h085df97e47ab3964E', symObjAddr: 0x6AC0, symBinAddr: 0x15B4C, symSize: 0x48 }
  - { offset: 0x54662, size: 0x8, addend: 0x0, symName: '__ZN4core6option19Option$LT$$RF$T$GT$6copied17h20d29ef7056d9889E', symObjAddr: 0x6B08, symBinAddr: 0x15B94, symSize: 0x50 }
  - { offset: 0x546B9, size: 0x8, addend: 0x0, symName: '__ZN4core6option19Option$LT$$RF$T$GT$6copied17h7f4f7108b65bae61E', symObjAddr: 0x6B58, symBinAddr: 0x15BE4, symSize: 0x50 }
  - { offset: 0x54703, size: 0x8, addend: 0x0, symName: '__ZN4core6option19Option$LT$$RF$T$GT$6copied17h8db12c4002ae23f1E', symObjAddr: 0x6BA8, symBinAddr: 0x15C34, symSize: 0x58 }
  - { offset: 0x5474D, size: 0x8, addend: 0x0, symName: '__ZN4core6option19Option$LT$$RF$T$GT$6copied17hb3a6f120dd366840E', symObjAddr: 0x6C00, symBinAddr: 0x15C8C, symSize: 0x50 }
  - { offset: 0x547A4, size: 0x8, addend: 0x0, symName: '__ZN4core6option19Option$LT$$RF$T$GT$6copied17hf58d8df22980cb3eE', symObjAddr: 0x6C50, symBinAddr: 0x15CDC, symSize: 0x48 }
  - { offset: 0x547EE, size: 0x8, addend: 0x0, symName: '__ZN4core6option43Option$LT$core..option..Option$LT$T$GT$$GT$7flatten17habaeb07eb3a3ef93E', symObjAddr: 0x6C98, symBinAddr: 0x15D24, symSize: 0x40 }
  - { offset: 0x54F40, size: 0x8, addend: 0x0, symName: __ZN5alloc11collections5btree3mem7replace17h0a918ff939308bc5E, symObjAddr: 0x0, symBinAddr: 0x164DC, symSize: 0xCC }
  - { offset: 0x58ABA, size: 0x8, addend: 0x0, symName: __ZN5alloc11collections5btree3mem7replace17h0a918ff939308bc5E, symObjAddr: 0x0, symBinAddr: 0x164DC, symSize: 0xCC }
  - { offset: 0x58BAA, size: 0x8, addend: 0x0, symName: __ZN5alloc11collections5btree3mem7replace17h1cb692b26da2e3d8E, symObjAddr: 0xCC, symBinAddr: 0x165A8, symSize: 0xCC }
  - { offset: 0x58C9A, size: 0x8, addend: 0x0, symName: __ZN5alloc11collections5btree3mem7replace17h251724e06cddb62aE, symObjAddr: 0x198, symBinAddr: 0x16674, symSize: 0xCC }
  - { offset: 0x58D8A, size: 0x8, addend: 0x0, symName: __ZN5alloc11collections5btree3mem7replace17h26a0de450678c0b4E, symObjAddr: 0x264, symBinAddr: 0x16740, symSize: 0xCC }
  - { offset: 0x58E7A, size: 0x8, addend: 0x0, symName: __ZN5alloc11collections5btree3mem7replace17h2a1b4f2d326ca500E, symObjAddr: 0x330, symBinAddr: 0x1680C, symSize: 0xCC }
  - { offset: 0x58F6A, size: 0x8, addend: 0x0, symName: __ZN5alloc11collections5btree3mem7replace17h2d427d8e076ad93dE, symObjAddr: 0x3FC, symBinAddr: 0x168D8, symSize: 0x90 }
  - { offset: 0x59053, size: 0x8, addend: 0x0, symName: __ZN5alloc11collections5btree3mem7replace17h2e9bccc17f36301bE, symObjAddr: 0x48C, symBinAddr: 0x16968, symSize: 0x90 }
  - { offset: 0x5913C, size: 0x8, addend: 0x0, symName: __ZN5alloc11collections5btree3mem7replace17h42142e509baad763E, symObjAddr: 0x51C, symBinAddr: 0x169F8, symSize: 0xC4 }
  - { offset: 0x5922B, size: 0x8, addend: 0x0, symName: __ZN5alloc11collections5btree3mem7replace17h42c29788d32eb827E, symObjAddr: 0x5E0, symBinAddr: 0x16ABC, symSize: 0x90 }
  - { offset: 0x59314, size: 0x8, addend: 0x0, symName: __ZN5alloc11collections5btree3mem7replace17h45c5acc6ec61faeaE, symObjAddr: 0x670, symBinAddr: 0x16B4C, symSize: 0xC4 }
  - { offset: 0x59403, size: 0x8, addend: 0x0, symName: __ZN5alloc11collections5btree3mem7replace17h5a4d910ebb70aeaaE, symObjAddr: 0x734, symBinAddr: 0x16C10, symSize: 0x90 }
  - { offset: 0x594EC, size: 0x8, addend: 0x0, symName: __ZN5alloc11collections5btree3mem7replace17h6fff53b6a7809b41E, symObjAddr: 0x7C4, symBinAddr: 0x16CA0, symSize: 0xCC }
  - { offset: 0x595DC, size: 0x8, addend: 0x0, symName: __ZN5alloc11collections5btree3mem7replace17h7cce3fdb9aff4faaE, symObjAddr: 0x890, symBinAddr: 0x16D6C, symSize: 0xC4 }
  - { offset: 0x596CB, size: 0x8, addend: 0x0, symName: __ZN5alloc11collections5btree3mem7replace17h85d2c0ea7d32597fE, symObjAddr: 0x954, symBinAddr: 0x16E30, symSize: 0x90 }
  - { offset: 0x597B4, size: 0x8, addend: 0x0, symName: __ZN5alloc11collections5btree3mem7replace17h932914645fd39f53E, symObjAddr: 0x9E4, symBinAddr: 0x16EC0, symSize: 0xCC }
  - { offset: 0x598A4, size: 0x8, addend: 0x0, symName: __ZN5alloc11collections5btree3mem7replace17h97351f7d59d99757E, symObjAddr: 0xAB0, symBinAddr: 0x16F8C, symSize: 0x90 }
  - { offset: 0x5998D, size: 0x8, addend: 0x0, symName: __ZN5alloc11collections5btree3mem7replace17ha0e81c175e02dfc8E, symObjAddr: 0xB40, symBinAddr: 0x1701C, symSize: 0x90 }
  - { offset: 0x59A76, size: 0x8, addend: 0x0, symName: __ZN5alloc11collections5btree3mem7replace17hb97534a0921994feE, symObjAddr: 0xBD0, symBinAddr: 0x170AC, symSize: 0xC4 }
  - { offset: 0x59B65, size: 0x8, addend: 0x0, symName: __ZN5alloc11collections5btree3mem7replace17hcabd8d5c82b948b2E, symObjAddr: 0xC94, symBinAddr: 0x17170, symSize: 0xCC }
  - { offset: 0x59C55, size: 0x8, addend: 0x0, symName: __ZN5alloc11collections5btree3mem7replace17hcd2c3fb8300cba72E, symObjAddr: 0xD60, symBinAddr: 0x1723C, symSize: 0xC4 }
  - { offset: 0x59D44, size: 0x8, addend: 0x0, symName: __ZN5alloc11collections5btree3mem7replace17hd7f7106db5bd6c29E, symObjAddr: 0xE24, symBinAddr: 0x17300, symSize: 0x90 }
  - { offset: 0x59E2D, size: 0x8, addend: 0x0, symName: __ZN5alloc11collections5btree3mem7replace17hda9f47e8dd6d9399E, symObjAddr: 0xEB4, symBinAddr: 0x17390, symSize: 0x90 }
  - { offset: 0x59F16, size: 0x8, addend: 0x0, symName: __ZN5alloc11collections5btree3mem7replace17hdda0c421d05ac36eE, symObjAddr: 0xF44, symBinAddr: 0x17420, symSize: 0xCC }
  - { offset: 0x5A006, size: 0x8, addend: 0x0, symName: __ZN5alloc11collections5btree3mem7replace17he41a5bde9e42d011E, symObjAddr: 0x1010, symBinAddr: 0x174EC, symSize: 0x90 }
  - { offset: 0x5A0EF, size: 0x8, addend: 0x0, symName: __ZN5alloc11collections5btree3mem7replace17he470da55cd693d30E, symObjAddr: 0x10A0, symBinAddr: 0x1757C, symSize: 0x90 }
  - { offset: 0x5A1D8, size: 0x8, addend: 0x0, symName: __ZN5alloc11collections5btree3mem7replace17hf5718dcc119f0c8eE, symObjAddr: 0x1130, symBinAddr: 0x1760C, symSize: 0xCC }
  - { offset: 0x5A2C8, size: 0x8, addend: 0x0, symName: __ZN5alloc11collections5btree3mem7replace17hf83eb01aa7e87f8eE, symObjAddr: 0x11FC, symBinAddr: 0x176D8, symSize: 0xC4 }
  - { offset: 0x5A3B7, size: 0x8, addend: 0x0, symName: __ZN5alloc11collections5btree3mem7replace17hfa1db13d9692655cE, symObjAddr: 0x12C0, symBinAddr: 0x1779C, symSize: 0xCC }
  - { offset: 0x5A4AC, size: 0x8, addend: 0x0, symName: '__ZN5alloc11collections5btree3mem8take_mut28_$u7b$$u7b$closure$u7d$$u7d$17h0a77cf1da7d6cd45E', symObjAddr: 0x138C, symBinAddr: 0x17868, symSize: 0x28 }
  - { offset: 0x5A4F9, size: 0x8, addend: 0x0, symName: '__ZN5alloc11collections5btree3mem8take_mut28_$u7b$$u7b$closure$u7d$$u7d$17h1eed57508a8e9047E', symObjAddr: 0x13B4, symBinAddr: 0x17890, symSize: 0x28 }
  - { offset: 0x5A546, size: 0x8, addend: 0x0, symName: '__ZN5alloc11collections5btree3mem8take_mut28_$u7b$$u7b$closure$u7d$$u7d$17h1f116b84194593b9E', symObjAddr: 0x13DC, symBinAddr: 0x178B8, symSize: 0x28 }
  - { offset: 0x5A593, size: 0x8, addend: 0x0, symName: '__ZN5alloc11collections5btree3mem8take_mut28_$u7b$$u7b$closure$u7d$$u7d$17h42fab0c1a559e2a3E', symObjAddr: 0x1404, symBinAddr: 0x178E0, symSize: 0x28 }
  - { offset: 0x5A5E0, size: 0x8, addend: 0x0, symName: '__ZN5alloc11collections5btree3mem8take_mut28_$u7b$$u7b$closure$u7d$$u7d$17h61db6c352415be75E', symObjAddr: 0x142C, symBinAddr: 0x17908, symSize: 0x28 }
  - { offset: 0x5A62D, size: 0x8, addend: 0x0, symName: '__ZN5alloc11collections5btree3mem8take_mut28_$u7b$$u7b$closure$u7d$$u7d$17h79b043bcca4625a8E', symObjAddr: 0x1454, symBinAddr: 0x17930, symSize: 0x28 }
  - { offset: 0x5A67A, size: 0x8, addend: 0x0, symName: '__ZN5alloc11collections5btree3mem8take_mut28_$u7b$$u7b$closure$u7d$$u7d$17h92a22c22fb2f83a2E', symObjAddr: 0x147C, symBinAddr: 0x17958, symSize: 0x28 }
  - { offset: 0x5A6C7, size: 0x8, addend: 0x0, symName: '__ZN5alloc11collections5btree3mem8take_mut28_$u7b$$u7b$closure$u7d$$u7d$17h9362ae378ae21300E', symObjAddr: 0x14A4, symBinAddr: 0x17980, symSize: 0x28 }
  - { offset: 0x5A714, size: 0x8, addend: 0x0, symName: '__ZN5alloc11collections5btree3mem8take_mut28_$u7b$$u7b$closure$u7d$$u7d$17ha3bbec3d36e65de9E', symObjAddr: 0x14CC, symBinAddr: 0x179A8, symSize: 0x28 }
  - { offset: 0x5A761, size: 0x8, addend: 0x0, symName: '__ZN5alloc11collections5btree3mem8take_mut28_$u7b$$u7b$closure$u7d$$u7d$17hd25150b5983d03dfE', symObjAddr: 0x14F4, symBinAddr: 0x179D0, symSize: 0x28 }
  - { offset: 0x5A7AE, size: 0x8, addend: 0x0, symName: '__ZN5alloc11collections5btree3mem8take_mut28_$u7b$$u7b$closure$u7d$$u7d$17hef05f99a081f33a1E', symObjAddr: 0x151C, symBinAddr: 0x179F8, symSize: 0x28 }
  - { offset: 0x5B4CC, size: 0x8, addend: 0x0, symName: '__ZN69_$LT$managym..state..target..Target$u20$as$u20$core..clone..Clone$GT$5clone17hadb42d7bbaf7ffe3E', symObjAddr: 0x0, symBinAddr: 0x17A20, symSize: 0x20 }
  - { offset: 0x5B4ED, size: 0x8, addend: 0x0, symName: '__ZN69_$LT$managym..state..target..Target$u20$as$u20$core..clone..Clone$GT$5clone17hadb42d7bbaf7ffe3E', symObjAddr: 0x0, symBinAddr: 0x17A20, symSize: 0x20 }
  - { offset: 0x5B61A, size: 0x8, addend: 0x0, symName: '__ZN102_$LT$pyo3..internal..get_slot..Slot$LT$74_i32$GT$$u20$as$u20$pyo3..internal..get_slot..GetSlotImpl$GT$8get_slot17h51d09caf188d6962E', symObjAddr: 0x0, symBinAddr: 0x17A40, symSize: 0x74 }
  - { offset: 0x5C6A8, size: 0x8, addend: 0x0, symName: '__ZN102_$LT$pyo3..internal..get_slot..Slot$LT$74_i32$GT$$u20$as$u20$pyo3..internal..get_slot..GetSlotImpl$GT$8get_slot17h51d09caf188d6962E', symObjAddr: 0x0, symBinAddr: 0x17A40, symSize: 0x74 }
  - { offset: 0x5CB6F, size: 0x8, addend: 0x0, symName: '__ZN100_$LT$core..iter..adapters..take..Take$LT$I$GT$$u20$as$u20$core..iter..traits..iterator..Iterator$GT$4next17h165dda5c28dc1627E', symObjAddr: 0x0, symBinAddr: 0x17AB4, symSize: 0x58 }
  - { offset: 0x5D60E, size: 0x8, addend: 0x0, symName: '__ZN100_$LT$core..iter..adapters..take..Take$LT$I$GT$$u20$as$u20$core..iter..traits..iterator..Iterator$GT$4next17h165dda5c28dc1627E', symObjAddr: 0x0, symBinAddr: 0x17AB4, symSize: 0x58 }
  - { offset: 0x5D643, size: 0x8, addend: 0x0, symName: '__ZN100_$LT$core..iter..adapters..take..Take$LT$I$GT$$u20$as$u20$core..iter..traits..iterator..Iterator$GT$4next17h3094de50e7044154E', symObjAddr: 0x58, symBinAddr: 0x17B0C, symSize: 0x58 }
  - { offset: 0x5D678, size: 0x8, addend: 0x0, symName: '__ZN100_$LT$core..iter..adapters..take..Take$LT$I$GT$$u20$as$u20$core..iter..traits..iterator..Iterator$GT$4next17h7d4fe17ebf14e7deE', symObjAddr: 0xB0, symBinAddr: 0x17B64, symSize: 0x58 }
  - { offset: 0x5D6AD, size: 0x8, addend: 0x0, symName: '__ZN100_$LT$core..iter..adapters..take..Take$LT$I$GT$$u20$as$u20$core..iter..traits..iterator..Iterator$GT$4next17he476a8f57b5541abE', symObjAddr: 0x108, symBinAddr: 0x17BBC, symSize: 0x58 }
  - { offset: 0x5D6E2, size: 0x8, addend: 0x0, symName: '__ZN100_$LT$core..iter..adapters..take..Take$LT$I$GT$$u20$as$u20$core..iter..traits..iterator..Iterator$GT$4next17he510d223633aee94E', symObjAddr: 0x160, symBinAddr: 0x17C14, symSize: 0x58 }
  - { offset: 0x5D969, size: 0x8, addend: 0x0, symName: __ZN4core4iter6traits8iterator8Iterator9enumerate17h56440b17057c346bE, symObjAddr: 0x1B8, symBinAddr: 0x17C6C, symSize: 0x18 }
  - { offset: 0x5D99A, size: 0x8, addend: 0x0, symName: __ZN4core4iter6traits8iterator8Iterator9enumerate17h56440b17057c346bE, symObjAddr: 0x1B8, symBinAddr: 0x17C6C, symSize: 0x18 }
  - { offset: 0x5D9B5, size: 0x8, addend: 0x0, symName: __ZN4core4iter6traits8iterator8Iterator9enumerate17h7a677cc15a118d72E, symObjAddr: 0x1D0, symBinAddr: 0x17C84, symSize: 0x18 }
  - { offset: 0x5D9E6, size: 0x8, addend: 0x0, symName: __ZN4core4iter6traits8iterator8Iterator9enumerate17h7a677cc15a118d72E, symObjAddr: 0x1D0, symBinAddr: 0x17C84, symSize: 0x18 }
  - { offset: 0x5DA01, size: 0x8, addend: 0x0, symName: __ZN4core4iter6traits8iterator8Iterator9enumerate17h939a5d704bd649d6E, symObjAddr: 0x1E8, symBinAddr: 0x17C9C, symSize: 0x18 }
  - { offset: 0x5DA32, size: 0x8, addend: 0x0, symName: __ZN4core4iter6traits8iterator8Iterator9enumerate17h939a5d704bd649d6E, symObjAddr: 0x1E8, symBinAddr: 0x17C9C, symSize: 0x18 }
  - { offset: 0x5DA4D, size: 0x8, addend: 0x0, symName: __ZN4core4iter6traits8iterator8Iterator9enumerate17h9873322b2f6ae403E, symObjAddr: 0x200, symBinAddr: 0x17CB4, symSize: 0x18 }
  - { offset: 0x5DA7E, size: 0x8, addend: 0x0, symName: __ZN4core4iter6traits8iterator8Iterator9enumerate17h9873322b2f6ae403E, symObjAddr: 0x200, symBinAddr: 0x17CB4, symSize: 0x18 }
  - { offset: 0x5DA99, size: 0x8, addend: 0x0, symName: __ZN4core4iter6traits8iterator8Iterator9enumerate17hf0504f0fa8bd7a83E, symObjAddr: 0x218, symBinAddr: 0x17CCC, symSize: 0x18 }
  - { offset: 0x5DACA, size: 0x8, addend: 0x0, symName: __ZN4core4iter6traits8iterator8Iterator9enumerate17hf0504f0fa8bd7a83E, symObjAddr: 0x218, symBinAddr: 0x17CCC, symSize: 0x18 }
  - { offset: 0x5F0FA, size: 0x8, addend: 0x0, symName: '__ZN4core5slice29_$LT$impl$u20$$u5b$T$u5d$$GT$18split_at_unchecked18precondition_check17h14589eb63209b037E', symObjAddr: 0x0, symBinAddr: 0x17CE4, symSize: 0x60 }
  - { offset: 0x5F11B, size: 0x8, addend: 0x0, symName: '__ZN4core5slice29_$LT$impl$u20$$u5b$T$u5d$$GT$18split_at_unchecked18precondition_check17h14589eb63209b037E', symObjAddr: 0x0, symBinAddr: 0x17CE4, symSize: 0x60 }
  - { offset: 0x5F174, size: 0x8, addend: 0x0, symName: '__ZN4core5slice29_$LT$impl$u20$$u5b$T$u5d$$GT$22split_at_mut_unchecked18precondition_check17hbb802bf530c3f7e9E', symObjAddr: 0x60, symBinAddr: 0x17D44, symSize: 0x60 }
  - { offset: 0x5F21E, size: 0x8, addend: 0x0, symName: __ZN3std4sync6poison10map_result17h67cbe2398e62bf26E, symObjAddr: 0x0, symBinAddr: 0x17DA4, symSize: 0xC4 }
  - { offset: 0x60435, size: 0x8, addend: 0x0, symName: __ZN3std4sync6poison10map_result17h67cbe2398e62bf26E, symObjAddr: 0x0, symBinAddr: 0x17DA4, symSize: 0xC4 }
  - { offset: 0x604C9, size: 0x8, addend: 0x0, symName: __ZN3std4sync6poison10map_result17hb2cbed989442d06bE, symObjAddr: 0xC4, symBinAddr: 0x17E68, symSize: 0xC4 }
  - { offset: 0x62DA2, size: 0x8, addend: 0x0, symName: '__ZN113_$LT$core..ops..try_trait..Wrapped$LT$T$C$A$C$F$GT$$u20$as$u20$core..ops..function..FnMut$LT$$LP$A$C$$RP$$GT$$GT$8call_mut17h1ef61dd9e5ce7e8aE', symObjAddr: 0x0, symBinAddr: 0x17F2C, symSize: 0x50 }
  - { offset: 0x62E7C, size: 0x8, addend: 0x0, symName: '__ZN113_$LT$core..ops..try_trait..Wrapped$LT$T$C$A$C$F$GT$$u20$as$u20$core..ops..function..FnMut$LT$$LP$A$C$$RP$$GT$$GT$8call_mut17h1ef61dd9e5ce7e8aE', symObjAddr: 0x0, symBinAddr: 0x17F2C, symSize: 0x50 }
  - { offset: 0x62EEE, size: 0x8, addend: 0x0, symName: '__ZN113_$LT$core..ops..try_trait..Wrapped$LT$T$C$A$C$F$GT$$u20$as$u20$core..ops..function..FnMut$LT$$LP$A$C$$RP$$GT$$GT$8call_mut17h56ba5e93e53b6fcaE', symObjAddr: 0x50, symBinAddr: 0x17F7C, symSize: 0x50 }
  - { offset: 0x62F60, size: 0x8, addend: 0x0, symName: '__ZN113_$LT$core..ops..try_trait..Wrapped$LT$T$C$A$C$F$GT$$u20$as$u20$core..ops..function..FnMut$LT$$LP$A$C$$RP$$GT$$GT$8call_mut17h6a9865c00978162fE', symObjAddr: 0xA0, symBinAddr: 0x17FCC, symSize: 0x50 }
  - { offset: 0x62FD2, size: 0x8, addend: 0x0, symName: '__ZN113_$LT$core..ops..try_trait..Wrapped$LT$T$C$A$C$F$GT$$u20$as$u20$core..ops..function..FnMut$LT$$LP$A$C$$RP$$GT$$GT$8call_mut17h75cd59d25689a47dE', symObjAddr: 0xF0, symBinAddr: 0x1801C, symSize: 0x50 }
  - { offset: 0x63044, size: 0x8, addend: 0x0, symName: '__ZN113_$LT$core..ops..try_trait..Wrapped$LT$T$C$A$C$F$GT$$u20$as$u20$core..ops..function..FnMut$LT$$LP$A$C$$RP$$GT$$GT$8call_mut17h93e320e4701f2df3E', symObjAddr: 0x140, symBinAddr: 0x1806C, symSize: 0x50 }
  - { offset: 0x630B6, size: 0x8, addend: 0x0, symName: '__ZN113_$LT$core..ops..try_trait..Wrapped$LT$T$C$A$C$F$GT$$u20$as$u20$core..ops..function..FnMut$LT$$LP$A$C$$RP$$GT$$GT$8call_mut17hb43a9c14c17bcc47E', symObjAddr: 0x190, symBinAddr: 0x180BC, symSize: 0x50 }
  - { offset: 0x63128, size: 0x8, addend: 0x0, symName: '__ZN113_$LT$core..ops..try_trait..Wrapped$LT$T$C$A$C$F$GT$$u20$as$u20$core..ops..function..FnMut$LT$$LP$A$C$$RP$$GT$$GT$8call_mut17hd3e98fdc817ce1f7E', symObjAddr: 0x1E0, symBinAddr: 0x1810C, symSize: 0x50 }
  - { offset: 0x631A5, size: 0x8, addend: 0x0, symName: '__ZN4core3ops9try_trait26NeverShortCircuit$LT$T$GT$10wrap_mut_228_$u7b$$u7b$closure$u7d$$u7d$17hfdbc8c44c944e85fE', symObjAddr: 0x238, symBinAddr: 0x1815C, symSize: 0x28 }
  - { offset: 0x6321A, size: 0x8, addend: 0x0, symName: '__ZN94_$LT$core..ops..try_trait..NeverShortCircuit$LT$T$GT$$u20$as$u20$core..ops..try_trait..Try$GT$11from_output17h6c12a15499d90756E', symObjAddr: 0x260, symBinAddr: 0x18184, symSize: 0x30 }
  - { offset: 0x63252, size: 0x8, addend: 0x0, symName: '__ZN94_$LT$core..ops..try_trait..NeverShortCircuit$LT$T$GT$$u20$as$u20$core..ops..try_trait..Try$GT$6branch17h40a910842bf1ebf5E', symObjAddr: 0x290, symBinAddr: 0x181B4, symSize: 0x30 }
  - { offset: 0x637DE, size: 0x8, addend: 0x0, symName: __ZN4pyo35impl_16extract_argument16extract_argument17h021ca6f7c9a9e67aE, symObjAddr: 0x0, symBinAddr: 0x181E4, symSize: 0x130 }
  - { offset: 0x6AAA4, size: 0x8, addend: 0x0, symName: __ZN4pyo35impl_16extract_argument16extract_argument17h021ca6f7c9a9e67aE, symObjAddr: 0x0, symBinAddr: 0x181E4, symSize: 0x130 }
  - { offset: 0x6AB28, size: 0x8, addend: 0x0, symName: __ZN4pyo35impl_16extract_argument16extract_argument17h07ac65c4c9ce801aE, symObjAddr: 0x130, symBinAddr: 0x18314, symSize: 0x11C }
  - { offset: 0x6ABAC, size: 0x8, addend: 0x0, symName: __ZN4pyo35impl_16extract_argument16extract_argument17h08f034873872fe7fE, symObjAddr: 0x24C, symBinAddr: 0x18430, symSize: 0x11C }
  - { offset: 0x6AC30, size: 0x8, addend: 0x0, symName: __ZN4pyo35impl_16extract_argument16extract_argument17h0b6c390552f31b92E, symObjAddr: 0x368, symBinAddr: 0x1854C, symSize: 0x134 }
  - { offset: 0x6ACB5, size: 0x8, addend: 0x0, symName: __ZN4pyo35impl_16extract_argument16extract_argument17h1018fa1dd3835149E, symObjAddr: 0x49C, symBinAddr: 0x18680, symSize: 0x11C }
  - { offset: 0x6AD39, size: 0x8, addend: 0x0, symName: __ZN4pyo35impl_16extract_argument16extract_argument17h1438b5329a6ac6cbE, symObjAddr: 0x5B8, symBinAddr: 0x1879C, symSize: 0x14C }
  - { offset: 0x6ADBE, size: 0x8, addend: 0x0, symName: __ZN4pyo35impl_16extract_argument16extract_argument17h1a66304fc8117c83E, symObjAddr: 0x704, symBinAddr: 0x188E8, symSize: 0x134 }
  - { offset: 0x6AE43, size: 0x8, addend: 0x0, symName: __ZN4pyo35impl_16extract_argument16extract_argument17h27251a318dd9a44fE, symObjAddr: 0x838, symBinAddr: 0x18A1C, symSize: 0x124 }
  - { offset: 0x6AEC7, size: 0x8, addend: 0x0, symName: __ZN4pyo35impl_16extract_argument16extract_argument17h293f791d9a94291fE, symObjAddr: 0x95C, symBinAddr: 0x18B40, symSize: 0x144 }
  - { offset: 0x6AF4C, size: 0x8, addend: 0x0, symName: __ZN4pyo35impl_16extract_argument16extract_argument17h29dabf0ef4cdc869E, symObjAddr: 0xAA0, symBinAddr: 0x18C84, symSize: 0x11C }
  - { offset: 0x6AFD0, size: 0x8, addend: 0x0, symName: __ZN4pyo35impl_16extract_argument16extract_argument17h2c1542f0acbdfb7fE, symObjAddr: 0xBBC, symBinAddr: 0x18DA0, symSize: 0x124 }
  - { offset: 0x6B054, size: 0x8, addend: 0x0, symName: __ZN4pyo35impl_16extract_argument16extract_argument17h3206f0408eaa99bcE, symObjAddr: 0xCE0, symBinAddr: 0x18EC4, symSize: 0x128 }
  - { offset: 0x6B0D8, size: 0x8, addend: 0x0, symName: __ZN4pyo35impl_16extract_argument16extract_argument17h460e6652c5446190E, symObjAddr: 0xE08, symBinAddr: 0x18FEC, symSize: 0x14C }
  - { offset: 0x6B15D, size: 0x8, addend: 0x0, symName: __ZN4pyo35impl_16extract_argument16extract_argument17h4a0d056a11839483E, symObjAddr: 0xF54, symBinAddr: 0x19138, symSize: 0x134 }
  - { offset: 0x6B1E2, size: 0x8, addend: 0x0, symName: __ZN4pyo35impl_16extract_argument16extract_argument17h576f38c10b534e31E, symObjAddr: 0x1088, symBinAddr: 0x1926C, symSize: 0x124 }
  - { offset: 0x6B266, size: 0x8, addend: 0x0, symName: __ZN4pyo35impl_16extract_argument16extract_argument17h63829e1cb06230f4E, symObjAddr: 0x11AC, symBinAddr: 0x19390, symSize: 0x134 }
  - { offset: 0x6B2EB, size: 0x8, addend: 0x0, symName: __ZN4pyo35impl_16extract_argument16extract_argument17h707e20f53bc0f2afE, symObjAddr: 0x12E0, symBinAddr: 0x194C4, symSize: 0x134 }
  - { offset: 0x6B370, size: 0x8, addend: 0x0, symName: __ZN4pyo35impl_16extract_argument16extract_argument17h77bf76e1f992970aE, symObjAddr: 0x1414, symBinAddr: 0x195F8, symSize: 0x128 }
  - { offset: 0x6B3F4, size: 0x8, addend: 0x0, symName: __ZN4pyo35impl_16extract_argument16extract_argument17h79f260fb32533104E, symObjAddr: 0x153C, symBinAddr: 0x19720, symSize: 0x124 }
  - { offset: 0x6B478, size: 0x8, addend: 0x0, symName: __ZN4pyo35impl_16extract_argument16extract_argument17h88b295e4462c667dE, symObjAddr: 0x1660, symBinAddr: 0x19844, symSize: 0x124 }
  - { offset: 0x6B4FC, size: 0x8, addend: 0x0, symName: __ZN4pyo35impl_16extract_argument16extract_argument17h89b2d58c7279f7b1E, symObjAddr: 0x1784, symBinAddr: 0x19968, symSize: 0x138 }
  - { offset: 0x6B581, size: 0x8, addend: 0x0, symName: __ZN4pyo35impl_16extract_argument16extract_argument17h8b79426599a275e3E, symObjAddr: 0x18BC, symBinAddr: 0x19AA0, symSize: 0x13C }
  - { offset: 0x6B606, size: 0x8, addend: 0x0, symName: __ZN4pyo35impl_16extract_argument16extract_argument17h8da3361b30853b7cE, symObjAddr: 0x19F8, symBinAddr: 0x19BDC, symSize: 0x13C }
  - { offset: 0x6B68B, size: 0x8, addend: 0x0, symName: __ZN4pyo35impl_16extract_argument16extract_argument17h9e5cff2be9717e5cE, symObjAddr: 0x1B34, symBinAddr: 0x19D18, symSize: 0x14C }
  - { offset: 0x6B710, size: 0x8, addend: 0x0, symName: __ZN4pyo35impl_16extract_argument16extract_argument17ha6e6af3c55f584c6E, symObjAddr: 0x1C80, symBinAddr: 0x19E64, symSize: 0x124 }
  - { offset: 0x6B794, size: 0x8, addend: 0x0, symName: __ZN4pyo35impl_16extract_argument16extract_argument17hb2cdf976f7d69d39E, symObjAddr: 0x1DA4, symBinAddr: 0x19F88, symSize: 0x134 }
  - { offset: 0x6B819, size: 0x8, addend: 0x0, symName: __ZN4pyo35impl_16extract_argument16extract_argument17hc2da8bb65a62907fE, symObjAddr: 0x1ED8, symBinAddr: 0x1A0BC, symSize: 0x134 }
  - { offset: 0x6B89E, size: 0x8, addend: 0x0, symName: __ZN4pyo35impl_16extract_argument16extract_argument17hc2dd0bd89752600bE, symObjAddr: 0x200C, symBinAddr: 0x1A1F0, symSize: 0x124 }
  - { offset: 0x6B922, size: 0x8, addend: 0x0, symName: __ZN4pyo35impl_16extract_argument16extract_argument17hd2f6fb9aa583128dE, symObjAddr: 0x2130, symBinAddr: 0x1A314, symSize: 0x11C }
  - { offset: 0x6B9A6, size: 0x8, addend: 0x0, symName: __ZN4pyo35impl_16extract_argument16extract_argument17hdd7cc04767b2acfbE, symObjAddr: 0x224C, symBinAddr: 0x1A430, symSize: 0x134 }
  - { offset: 0x6BA2B, size: 0x8, addend: 0x0, symName: __ZN4pyo35impl_16extract_argument16extract_argument17he40a0d5cbf8ce517E, symObjAddr: 0x2380, symBinAddr: 0x1A564, symSize: 0x134 }
  - { offset: 0x6BAB0, size: 0x8, addend: 0x0, symName: __ZN4pyo35impl_16extract_argument16extract_argument17he7c8c07c9643ea96E, symObjAddr: 0x24B4, symBinAddr: 0x1A698, symSize: 0x134 }
  - { offset: 0x6BB35, size: 0x8, addend: 0x0, symName: __ZN4pyo35impl_16extract_argument16extract_argument17heb5baac325bf7aa0E, symObjAddr: 0x25E8, symBinAddr: 0x1A7CC, symSize: 0x124 }
  - { offset: 0x6BD3A, size: 0x8, addend: 0x0, symName: '__ZN4pyo35impl_16extract_argument19FunctionDescription26extract_arguments_fastcall28_$u7b$$u7b$closure$u7d$$u7d$17hcef27d6b51522d94E', symObjAddr: 0x3B04, symBinAddr: 0x1BCE8, symSize: 0x24 }
  - { offset: 0x6BD92, size: 0x8, addend: 0x0, symName: '__ZN4pyo35impl_16extract_argument19FunctionDescription28extract_arguments_tuple_dict28_$u7b$$u7b$closure$u7d$$u7d$17hf49b41e757a9f3e1E', symObjAddr: 0x3FC8, symBinAddr: 0x1C1AC, symSize: 0x24 }
  - { offset: 0x6BDEA, size: 0x8, addend: 0x0, symName: '__ZN4pyo35impl_16extract_argument19FunctionDescription36find_keyword_parameter_in_positional28_$u7b$$u7b$closure$u7d$$u7d$17ha915f941ba554f0cE', symObjAddr: 0x3FEC, symBinAddr: 0x1C1D0, symSize: 0x48 }
  - { offset: 0x6BE4A, size: 0x8, addend: 0x0, symName: '__ZN4pyo35impl_16extract_argument19FunctionDescription38find_keyword_parameter_in_keyword_only28_$u7b$$u7b$closure$u7d$$u7d$17h16690b9608498b10E', symObjAddr: 0x4034, symBinAddr: 0x1C218, symSize: 0x38 }
  - { offset: 0x6BE8C, size: 0x8, addend: 0x0, symName: __ZN4pyo35impl_16extract_argument19extract_pyclass_ref17h0ad77ade7bb46ae0E, symObjAddr: 0x406C, symBinAddr: 0x1C250, symSize: 0xB0 }
  - { offset: 0x6BEED, size: 0x8, addend: 0x0, symName: __ZN4pyo35impl_16extract_argument19extract_pyclass_ref17h1052a3b16df23720E, symObjAddr: 0x411C, symBinAddr: 0x1C300, symSize: 0xB0 }
  - { offset: 0x6BF4E, size: 0x8, addend: 0x0, symName: __ZN4pyo35impl_16extract_argument19extract_pyclass_ref17h1451f5ec02e0aca1E, symObjAddr: 0x41CC, symBinAddr: 0x1C3B0, symSize: 0xB0 }
  - { offset: 0x6BFAF, size: 0x8, addend: 0x0, symName: __ZN4pyo35impl_16extract_argument19extract_pyclass_ref17h425f39d9b7aad94dE, symObjAddr: 0x427C, symBinAddr: 0x1C460, symSize: 0xB0 }
  - { offset: 0x6C010, size: 0x8, addend: 0x0, symName: __ZN4pyo35impl_16extract_argument19extract_pyclass_ref17h4bfe232b69def3f9E, symObjAddr: 0x432C, symBinAddr: 0x1C510, symSize: 0xB0 }
  - { offset: 0x6C071, size: 0x8, addend: 0x0, symName: __ZN4pyo35impl_16extract_argument19extract_pyclass_ref17h6f6ffda6f29af2d3E, symObjAddr: 0x43DC, symBinAddr: 0x1C5C0, symSize: 0xB0 }
  - { offset: 0x6C0D2, size: 0x8, addend: 0x0, symName: __ZN4pyo35impl_16extract_argument19extract_pyclass_ref17h7388bc85ababd704E, symObjAddr: 0x448C, symBinAddr: 0x1C670, symSize: 0xB0 }
  - { offset: 0x6C133, size: 0x8, addend: 0x0, symName: __ZN4pyo35impl_16extract_argument19extract_pyclass_ref17hb57b1446a33ccbd6E, symObjAddr: 0x453C, symBinAddr: 0x1C720, symSize: 0xB0 }
  - { offset: 0x6C194, size: 0x8, addend: 0x0, symName: __ZN4pyo35impl_16extract_argument19extract_pyclass_ref17hf8ccefd8ad1ac398E, symObjAddr: 0x45EC, symBinAddr: 0x1C7D0, symSize: 0xB0 }
  - { offset: 0x6C1F5, size: 0x8, addend: 0x0, symName: __ZN4pyo35impl_16extract_argument19extract_pyclass_ref17hffcad1b27fc9adfaE, symObjAddr: 0x469C, symBinAddr: 0x1C880, symSize: 0xB0 }
  - { offset: 0x6C256, size: 0x8, addend: 0x0, symName: __ZN4pyo35impl_16extract_argument23extract_pyclass_ref_mut17h1e838fcae5975c9fE, symObjAddr: 0x474C, symBinAddr: 0x1C930, symSize: 0xB0 }
  - { offset: 0x6C2B7, size: 0x8, addend: 0x0, symName: __ZN4pyo35impl_16extract_argument23extract_pyclass_ref_mut17h4e75ae74772e91a2E, symObjAddr: 0x47FC, symBinAddr: 0x1C9E0, symSize: 0xB0 }
  - { offset: 0x6C318, size: 0x8, addend: 0x0, symName: __ZN4pyo35impl_16extract_argument23extract_pyclass_ref_mut17h528b3dae81711a99E, symObjAddr: 0x48AC, symBinAddr: 0x1CA90, symSize: 0xB0 }
  - { offset: 0x6C379, size: 0x8, addend: 0x0, symName: __ZN4pyo35impl_16extract_argument23extract_pyclass_ref_mut17h588cd3a67760e9b1E, symObjAddr: 0x495C, symBinAddr: 0x1CB40, symSize: 0xB0 }
  - { offset: 0x6C3DA, size: 0x8, addend: 0x0, symName: __ZN4pyo35impl_16extract_argument23extract_pyclass_ref_mut17h5c7fb2f5719f2cb4E, symObjAddr: 0x4A0C, symBinAddr: 0x1CBF0, symSize: 0xB0 }
  - { offset: 0x6C43B, size: 0x8, addend: 0x0, symName: __ZN4pyo35impl_16extract_argument23extract_pyclass_ref_mut17h81e9e061aedf03bdE, symObjAddr: 0x4ABC, symBinAddr: 0x1CCA0, symSize: 0xB0 }
  - { offset: 0x6C49C, size: 0x8, addend: 0x0, symName: __ZN4pyo35impl_16extract_argument23extract_pyclass_ref_mut17h87fa086f90feacd9E, symObjAddr: 0x4B6C, symBinAddr: 0x1CD50, symSize: 0xB0 }
  - { offset: 0x6C4FD, size: 0x8, addend: 0x0, symName: __ZN4pyo35impl_16extract_argument23extract_pyclass_ref_mut17h98974f325dfd4637E, symObjAddr: 0x4C1C, symBinAddr: 0x1CE00, symSize: 0xB0 }
  - { offset: 0x6C55E, size: 0x8, addend: 0x0, symName: __ZN4pyo35impl_16extract_argument23extract_pyclass_ref_mut17ha2478c2be6e8d286E, symObjAddr: 0x4CCC, symBinAddr: 0x1CEB0, symSize: 0xB0 }
  - { offset: 0x6C5BF, size: 0x8, addend: 0x0, symName: __ZN4pyo35impl_16extract_argument23extract_pyclass_ref_mut17haa8c8065feb6de99E, symObjAddr: 0x4D7C, symBinAddr: 0x1CF60, symSize: 0xB0 }
  - { offset: 0x6C620, size: 0x8, addend: 0x0, symName: __ZN4pyo35impl_16extract_argument23extract_pyclass_ref_mut17hb1fdf79888f08a56E, symObjAddr: 0x4E2C, symBinAddr: 0x1D010, symSize: 0xB0 }
  - { offset: 0x6C681, size: 0x8, addend: 0x0, symName: __ZN4pyo35impl_16extract_argument23extract_pyclass_ref_mut17hc6d3017fa9191fd8E, symObjAddr: 0x4EDC, symBinAddr: 0x1D0C0, symSize: 0xB0 }
  - { offset: 0x6C6E2, size: 0x8, addend: 0x0, symName: __ZN4pyo35impl_16extract_argument23extract_pyclass_ref_mut17hcd6763fd29a58485E, symObjAddr: 0x4F8C, symBinAddr: 0x1D170, symSize: 0xB0 }
  - { offset: 0x6C743, size: 0x8, addend: 0x0, symName: __ZN4pyo35impl_16extract_argument23extract_pyclass_ref_mut17he01ded9c78afc28bE, symObjAddr: 0x503C, symBinAddr: 0x1D220, symSize: 0xB0 }
  - { offset: 0x6C7A4, size: 0x8, addend: 0x0, symName: __ZN4pyo35impl_16extract_argument29extract_argument_with_default17h3f856ffea9dc6caeE, symObjAddr: 0x50EC, symBinAddr: 0x1D2D0, symSize: 0x8C }
  - { offset: 0x6C820, size: 0x8, addend: 0x0, symName: __ZN4pyo35impl_16extract_argument29extract_argument_with_default17hac3e9dbff89c761eE, symObjAddr: 0x5178, symBinAddr: 0x1D35C, symSize: 0x8C }
  - { offset: 0x6C89C, size: 0x8, addend: 0x0, symName: __ZN4pyo35impl_16extract_argument29extract_argument_with_default17hf4f7755036926caaE, symObjAddr: 0x5204, symBinAddr: 0x1D3E8, symSize: 0x90 }
  - { offset: 0x6C91D, size: 0x8, addend: 0x0, symName: '__ZN71_$LT$T$u20$as$u20$pyo3..impl_..extract_argument..PyFunctionArgument$GT$7extract17h0a8a1a41256a69fcE', symObjAddr: 0x5294, symBinAddr: 0x1D478, symSize: 0x28 }
  - { offset: 0x6C95C, size: 0x8, addend: 0x0, symName: '__ZN71_$LT$T$u20$as$u20$pyo3..impl_..extract_argument..PyFunctionArgument$GT$7extract17h9dd1e19b0b8a7898E', symObjAddr: 0x52BC, symBinAddr: 0x1D4A0, symSize: 0x28 }
  - { offset: 0x6C99B, size: 0x8, addend: 0x0, symName: '__ZN71_$LT$T$u20$as$u20$pyo3..impl_..extract_argument..PyFunctionArgument$GT$7extract17hace526a4a70cf506E', symObjAddr: 0x52E4, symBinAddr: 0x1D4C8, symSize: 0x28 }
  - { offset: 0x6C9DA, size: 0x8, addend: 0x0, symName: '__ZN71_$LT$T$u20$as$u20$pyo3..impl_..extract_argument..PyFunctionArgument$GT$7extract17hc0e9d941cc52dcbfE', symObjAddr: 0x530C, symBinAddr: 0x1D4F0, symSize: 0x28 }
  - { offset: 0x6CA19, size: 0x8, addend: 0x0, symName: '__ZN71_$LT$T$u20$as$u20$pyo3..impl_..extract_argument..PyFunctionArgument$GT$7extract17hd956af17f3ede9f1E', symObjAddr: 0x5334, symBinAddr: 0x1D518, symSize: 0x28 }
  - { offset: 0x6CA58, size: 0x8, addend: 0x0, symName: '__ZN71_$LT$T$u20$as$u20$pyo3..impl_..extract_argument..PyFunctionArgument$GT$7extract17hfb4ece4773cfe2d5E', symObjAddr: 0x535C, symBinAddr: 0x1D540, symSize: 0x28 }
  - { offset: 0x6DE10, size: 0x8, addend: 0x0, symName: __ZN4pyo35impl_16extract_argument19FunctionDescription13handle_kwargs17h097f2d8f26d7ee35E, symObjAddr: 0x270C, symBinAddr: 0x1A8F0, symSize: 0x6F8 }
  - { offset: 0x6E00F, size: 0x8, addend: 0x0, symName: __ZN4pyo35impl_16extract_argument19FunctionDescription13handle_kwargs17h0fa326c45518087eE, symObjAddr: 0x2E04, symBinAddr: 0x1AFE8, symSize: 0x6F0 }
  - { offset: 0x6E22C, size: 0x8, addend: 0x0, symName: __ZN4pyo35impl_16extract_argument19FunctionDescription26extract_arguments_fastcall17ha122b4df7aeb5479E, symObjAddr: 0x34F4, symBinAddr: 0x1B6D8, symSize: 0x610 }
  - { offset: 0x6E55E, size: 0x8, addend: 0x0, symName: __ZN4pyo35impl_16extract_argument19FunctionDescription28extract_arguments_tuple_dict17h79369da30335d57cE, symObjAddr: 0x3B28, symBinAddr: 0x1BD0C, symSize: 0x4A0 }
  - { offset: 0x70798, size: 0x8, addend: 0x0, symName: __ZN7managym4flow8priority13PriorityState11start_round17hb0334a8d1bb22f17E, symObjAddr: 0x0, symBinAddr: 0x1D568, symSize: 0x24 }
  - { offset: 0x70834, size: 0x8, addend: 0x0, symName: '__ZN81_$LT$managym..flow..priority..PriorityState$u20$as$u20$core..default..Default$GT$7default17h747abe0f258a830fE', symObjAddr: 0xAC, symBinAddr: 0x1D614, symSize: 0x14 }
  - { offset: 0x70891, size: 0x8, addend: 0x0, symName: __ZN7managym4flow8priority13PriorityState11start_round17hb0334a8d1bb22f17E, symObjAddr: 0x0, symBinAddr: 0x1D568, symSize: 0x24 }
  - { offset: 0x708C1, size: 0x8, addend: 0x0, symName: __ZN7managym4flow8priority13PriorityState18on_non_pass_action17h40af9edeab12316fE, symObjAddr: 0x24, symBinAddr: 0x1D58C, symSize: 0x24 }
  - { offset: 0x708F1, size: 0x8, addend: 0x0, symName: __ZN7managym4flow8priority13PriorityState7on_pass17h174c88763b250e2bE, symObjAddr: 0x48, symBinAddr: 0x1D5B0, symSize: 0x64 }
  - { offset: 0x7093F, size: 0x8, addend: 0x0, symName: '__ZN108_$LT$core..iter..adapters..filter..Filter$LT$I$C$P$GT$$u20$as$u20$core..iter..traits..iterator..Iterator$GT$4next17h8846009bf471490fE', symObjAddr: 0x0, symBinAddr: 0x1D628, symSize: 0x2C }
  - { offset: 0x70965, size: 0x8, addend: 0x0, symName: '__ZN108_$LT$core..iter..adapters..filter..Filter$LT$I$C$P$GT$$u20$as$u20$core..iter..traits..iterator..Iterator$GT$4next17h8846009bf471490fE', symObjAddr: 0x0, symBinAddr: 0x1D628, symSize: 0x2C }
  - { offset: 0x709C0, size: 0x8, addend: 0x0, symName: '__ZN108_$LT$core..iter..adapters..filter..Filter$LT$I$C$P$GT$$u20$as$u20$core..iter..traits..iterator..Iterator$GT$5count8to_usize28_$u7b$$u7b$closure$u7d$$u7d$17h91a85628b4579a07E', symObjAddr: 0x7C, symBinAddr: 0x1D6A4, symSize: 0x5C }
  - { offset: 0x70A10, size: 0x8, addend: 0x0, symName: '__ZN108_$LT$core..iter..adapters..filter..Filter$LT$I$C$P$GT$$u20$as$u20$core..iter..traits..iterator..Iterator$GT$5count17h237ea96636d9fcecE', symObjAddr: 0x2C, symBinAddr: 0x1D654, symSize: 0x50 }
  - { offset: 0x70A9E, size: 0x8, addend: 0x0, symName: '__ZN108_$LT$core..iter..adapters..filter..Filter$LT$I$C$P$GT$$u20$as$u20$core..iter..traits..iterator..Iterator$GT$9size_hint17h4d5e848e45442829E', symObjAddr: 0xD8, symBinAddr: 0x1D700, symSize: 0x4C }
  - { offset: 0x70CA3, size: 0x8, addend: 0x0, symName: __ZN4core4iter6traits8iterator8Iterator7collect17hbfccd39b36ec28d8E, symObjAddr: 0x124, symBinAddr: 0x1D74C, symSize: 0x14 }
  - { offset: 0x70CF0, size: 0x8, addend: 0x0, symName: '__ZN63_$LT$I$u20$as$u20$core..iter..traits..collect..IntoIterator$GT$9into_iter17hec1c0e37e7838043E', symObjAddr: 0x138, symBinAddr: 0x1D760, symSize: 0x18 }
  - { offset: 0x714B0, size: 0x8, addend: 0x0, symName: '__ZN103_$LT$managym..python..vector_env_bindings..PyVectorEnv$u20$as$u20$pyo3..impl_..pyclass..PyClassImpl$GT$10items_iter17hbef8ce0f65ee9483E', symObjAddr: 0x0, symBinAddr: 0x1D778, symSize: 0x38 }
  - { offset: 0x714E3, size: 0x8, addend: 0x0, symName: '__ZN103_$LT$managym..python..vector_env_bindings..PyVectorEnv$u20$as$u20$pyo3..impl_..pyclass..PyClassImpl$GT$10items_iter15INTRINSIC_ITEMS17h881100048b58d2a2E', symObjAddr: 0x6FB8, symBinAddr: 0x1D12C8, symSize: 0x0 }
  - { offset: 0x71503, size: 0x8, addend: 0x0, symName: '__ZN103_$LT$managym..python..vector_env_bindings..PyVectorEnv$u20$as$u20$pyo3..impl_..pyclass..PyClassImpl$GT$16lazy_type_object11TYPE_OBJECT17ha5c4f5650af85c45E', symObjAddr: 0x7178, symBinAddr: 0x2AC408, symSize: 0x0 }
  - { offset: 0x71523, size: 0x8, addend: 0x0, symName: '__ZN103_$LT$managym..python..vector_env_bindings..PyVectorEnv$u20$as$u20$pyo3..impl_..pyclass..PyClassImpl$GT$3doc3DOC17h6a61a0d3f36ddac3E', symObjAddr: 0x71C0, symBinAddr: 0x2AC450, symSize: 0x0 }
  - { offset: 0x71531, size: 0x8, addend: 0x0, symName: '__ZN103_$LT$managym..python..vector_env_bindings..PyVectorEnv$u20$as$u20$pyo3..impl_..pyclass..PyClassImpl$GT$10items_iter17hbef8ce0f65ee9483E', symObjAddr: 0x0, symBinAddr: 0x1D778, symSize: 0x38 }
  - { offset: 0x7156C, size: 0x8, addend: 0x0, symName: '__ZN103_$LT$managym..python..vector_env_bindings..PyVectorEnv$u20$as$u20$pyo3..impl_..pyclass..PyClassImpl$GT$16lazy_type_object17hc8989d59595e45deE', symObjAddr: 0x38, symBinAddr: 0x1D7B0, symSize: 0xC }
  - { offset: 0x71589, size: 0x8, addend: 0x0, symName: '__ZN103_$LT$managym..python..vector_env_bindings..PyVectorEnv$u20$as$u20$pyo3..impl_..pyclass..PyClassImpl$GT$3doc17h1b176549e3f47515E', symObjAddr: 0x44, symBinAddr: 0x1D7BC, symSize: 0x3C }
  - { offset: 0x718E0, size: 0x8, addend: 0x0, symName: '__ZN7managym6python19vector_env_bindings218_$LT$impl$u20$pyo3..impl_..pyclass..PyMethods$LT$managym..python..vector_env_bindings..PyVectorEnv$GT$$u20$for$u20$pyo3..impl_..pyclass..PyClassImplCollector$LT$managym..python..vector_env_bindings..PyVectorEnv$GT$$GT$10py_methods5ITEMS17h2bc8c86a4374c07eE', symObjAddr: 0x7AE0, symBinAddr: 0x298F98, symSize: 0x0 }
  - { offset: 0x718F2, size: 0x8, addend: 0x0, symName: '__ZN7managym6python19vector_env_bindings218_$LT$impl$u20$pyo3..impl_..pyclass..PyMethods$LT$managym..python..vector_env_bindings..PyVectorEnv$GT$$u20$for$u20$pyo3..impl_..pyclass..PyClassImplCollector$LT$managym..python..vector_env_bindings..PyVectorEnv$GT$$GT$10py_methods5ITEMS10trampoline17h0ba5febc6d2615acE', symObjAddr: 0x53C0, symBinAddr: 0x22B38, symSize: 0x4C }
  - { offset: 0x7193A, size: 0x8, addend: 0x0, symName: '__ZN7managym6python19vector_env_bindings218_$LT$impl$u20$pyo3..impl_..pyclass..PyMethods$LT$managym..python..vector_env_bindings..PyVectorEnv$GT$$u20$for$u20$pyo3..impl_..pyclass..PyClassImplCollector$LT$managym..python..vector_env_bindings..PyVectorEnv$GT$$GT$10py_methods5ITEMS10trampoline17h114a8dedea5ac305E', symObjAddr: 0x540C, symBinAddr: 0x22B84, symSize: 0x50 }
  - { offset: 0x71990, size: 0x8, addend: 0x0, symName: '__ZN7managym6python19vector_env_bindings218_$LT$impl$u20$pyo3..impl_..pyclass..PyMethods$LT$managym..python..vector_env_bindings..PyVectorEnv$GT$$u20$for$u20$pyo3..impl_..pyclass..PyClassImplCollector$LT$managym..python..vector_env_bindings..PyVectorEnv$GT$$GT$10py_methods5ITEMS10trampoline17h2d24c3c882df48f6E', symObjAddr: 0x545C, symBinAddr: 0x22BD4, symSize: 0x44 }
  - { offset: 0x719CA, size: 0x8, addend: 0x0, symName: '__ZN7managym6python19vector_env_bindings218_$LT$impl$u20$pyo3..impl_..pyclass..PyMethods$LT$managym..python..vector_env_bindings..PyVectorEnv$GT$$u20$for$u20$pyo3..impl_..pyclass..PyClassImplCollector$LT$managym..python..vector_env_bindings..PyVectorEnv$GT$$GT$10py_methods5ITEMS10trampoline17h2efcf31695cd9f83E', symObjAddr: 0x54A0, symBinAddr: 0x22C18, symSize: 0x50 }
  - { offset: 0x71A20, size: 0x8, addend: 0x0, symName: '__ZN7managym6python19vector_env_bindings218_$LT$impl$u20$pyo3..impl_..pyclass..PyMethods$LT$managym..python..vector_env_bindings..PyVectorEnv$GT$$u20$for$u20$pyo3..impl_..pyclass..PyClassImplCollector$LT$managym..python..vector_env_bindings..PyVectorEnv$GT$$GT$10py_methods5ITEMS10trampoline17h6167e3fcab0a4227E', symObjAddr: 0x54F0, symBinAddr: 0x22C68, symSize: 0x50 }
  - { offset: 0x71A76, size: 0x8, addend: 0x0, symName: '__ZN7managym6python19vector_env_bindings218_$LT$impl$u20$pyo3..impl_..pyclass..PyMethods$LT$managym..python..vector_env_bindings..PyVectorEnv$GT$$u20$for$u20$pyo3..impl_..pyclass..PyClassImplCollector$LT$managym..python..vector_env_bindings..PyVectorEnv$GT$$GT$10py_methods5ITEMS10trampoline17ha9aaf6d29db6148fE', symObjAddr: 0x5540, symBinAddr: 0x22CB8, symSize: 0x50 }
  - { offset: 0x71ACC, size: 0x8, addend: 0x0, symName: '__ZN7managym6python19vector_env_bindings218_$LT$impl$u20$pyo3..impl_..pyclass..PyMethods$LT$managym..python..vector_env_bindings..PyVectorEnv$GT$$u20$for$u20$pyo3..impl_..pyclass..PyClassImplCollector$LT$managym..python..vector_env_bindings..PyVectorEnv$GT$$GT$10py_methods5ITEMS10trampoline17hdbc83c94d5e990c9E', symObjAddr: 0x5590, symBinAddr: 0x22D08, symSize: 0x50 }
  - { offset: 0x71C8D, size: 0x8, addend: 0x0, symName: __ZN7managym6python19vector_env_bindings21parse_opponent_policy17h8bdc2745eed6986aE, symObjAddr: 0x55E0, symBinAddr: 0x22D58, symSize: 0x138 }
  - { offset: 0x71D16, size: 0x8, addend: 0x0, symName: __ZN7managym6python19vector_env_bindings28register_vector_env_bindings17hcabc2d694b2d89ffE, symObjAddr: 0x6250, symBinAddr: 0x239C8, symSize: 0x24 }
  - { offset: 0x71D44, size: 0x8, addend: 0x0, symName: __ZN7managym6python19vector_env_bindings31write_step_results_into_buffers17h506da1ae4402cb0fE, symObjAddr: 0x6274, symBinAddr: 0x239EC, symSize: 0x4C }
  - { offset: 0x71DAB, size: 0x8, addend: 0x0, symName: __ZN7managym6python19vector_env_bindings32write_reset_results_into_buffers17h17aa8ab4cc380280E, symObjAddr: 0x62C0, symBinAddr: 0x23A38, symSize: 0x4C }
  - { offset: 0x71E17, size: 0x8, addend: 0x0, symName: '__ZN99_$LT$managym..python..vector_env_bindings..PyVectorEnv$u20$as$u20$pyo3..type_object..PyTypeInfo$GT$15type_object_raw17hf24415a827032fadE', symObjAddr: 0x630C, symBinAddr: 0x23A84, symSize: 0x24 }
  - { offset: 0x7A560, size: 0x8, addend: 0x0, symName: __ZN7managym6python19vector_env_bindings11PyVectorEnv11set_buffers17h798c404ab15a128aE, symObjAddr: 0x80, symBinAddr: 0x1D7F8, symSize: 0x2940 }
  - { offset: 0x7A7DF, size: 0x8, addend: 0x0, symName: __ZN7managym6python19vector_env_bindings11PyVectorEnv13get_last_info17hacbf75f5a7343c85E, symObjAddr: 0x29C0, symBinAddr: 0x20138, symSize: 0x48 }
  - { offset: 0x7A81D, size: 0x8, addend: 0x0, symName: __ZN7managym6python19vector_env_bindings11PyVectorEnv17__pymethod_step__17hbce3d71d5e2fe06dE, symObjAddr: 0x2A08, symBinAddr: 0x20180, symSize: 0x3A0 }
  - { offset: 0x7A9BE, size: 0x8, addend: 0x0, symName: __ZN7managym6python19vector_env_bindings11PyVectorEnv17step_into_buffers17h69298551abcb758eE, symObjAddr: 0x2DA8, symBinAddr: 0x20520, symSize: 0x2BC }
  - { offset: 0x7AA8A, size: 0x8, addend: 0x0, symName: __ZN7managym6python19vector_env_bindings11PyVectorEnv20__pymethod___new____17h399928617a3f5407E, symObjAddr: 0x3064, symBinAddr: 0x207DC, symSize: 0x5F4 }
  - { offset: 0x7ACFC, size: 0x8, addend: 0x0, symName: __ZN7managym6python19vector_env_bindings11PyVectorEnv22__pymethod_reset_all__17h55b771690cd5e756E, symObjAddr: 0x3658, symBinAddr: 0x20DD0, symSize: 0x3A0 }
  - { offset: 0x7AF6C, size: 0x8, addend: 0x0, symName: __ZN7managym6python19vector_env_bindings11PyVectorEnv22reset_all_into_buffers17h05dd6dbac8976174E, symObjAddr: 0x39F8, symBinAddr: 0x21170, symSize: 0x324 }
  - { offset: 0x7B049, size: 0x8, addend: 0x0, symName: __ZN7managym6python19vector_env_bindings11PyVectorEnv24__pymethod_set_buffers__17h8842772461f4b2e4E, symObjAddr: 0x3D1C, symBinAddr: 0x21494, symSize: 0x380 }
  - { offset: 0x7B1EA, size: 0x8, addend: 0x0, symName: __ZN7managym6python19vector_env_bindings11PyVectorEnv26__pymethod_get_last_info__17h056c8722c75c8080E, symObjAddr: 0x409C, symBinAddr: 0x21814, symSize: 0x1FC }
  - { offset: 0x7B2CA, size: 0x8, addend: 0x0, symName: __ZN7managym6python19vector_env_bindings11PyVectorEnv30__pymethod_step_into_buffers__17h8eafdc10ea05b98eE, symObjAddr: 0x4298, symBinAddr: 0x21A10, symSize: 0x3A0 }
  - { offset: 0x7B46F, size: 0x8, addend: 0x0, symName: __ZN7managym6python19vector_env_bindings11PyVectorEnv35__pymethod_reset_all_into_buffers__17h02e19f6623493ebcE, symObjAddr: 0x4638, symBinAddr: 0x21DB0, symSize: 0x3A0 }
  - { offset: 0x7B62E, size: 0x8, addend: 0x0, symName: __ZN7managym6python19vector_env_bindings11PyVectorEnv3new17h5e677b2fc8bbd06bE, symObjAddr: 0x49D8, symBinAddr: 0x22150, symSize: 0x1B4 }
  - { offset: 0x7B6FE, size: 0x8, addend: 0x0, symName: __ZN7managym6python19vector_env_bindings11PyVectorEnv4step17hb0eb045e8bfb2ed5E, symObjAddr: 0x4B8C, symBinAddr: 0x22304, symSize: 0x298 }
  - { offset: 0x7B7BD, size: 0x8, addend: 0x0, symName: __ZN7managym6python19vector_env_bindings11PyVectorEnv9reset_all17h2972b5f7c7281f66E, symObjAddr: 0x4E24, symBinAddr: 0x2259C, symSize: 0x290 }
  - { offset: 0x7B919, size: 0x8, addend: 0x0, symName: __ZN7managym6python19vector_env_bindings12WriteBuffers16write_step_state17h89a75af57ba670daE, symObjAddr: 0x50B4, symBinAddr: 0x2282C, symSize: 0x1F8 }
  - { offset: 0x7BA01, size: 0x8, addend: 0x0, symName: __ZN7managym6python19vector_env_bindings12WriteBuffers18encode_observation17hc1b69bdc4cb0a7c6E, symObjAddr: 0x52AC, symBinAddr: 0x22A24, symSize: 0x114 }
  - { offset: 0x7BAA0, size: 0x8, addend: 0x0, symName: __ZN7managym6python19vector_env_bindings22ObservationFieldSlices15encoded_row_mut17hf97501ab5a29b4e8E, symObjAddr: 0x5718, symBinAddr: 0x22E90, symSize: 0xB38 }
  - { offset: 0x7BF58, size: 0x8, addend: 0x0, symName: '__ZN7managym5agent3env3Env19random_action_index28_$u7b$$u7b$closure$u7d$$u7d$17h3c861e3ddb468cfcE', symObjAddr: 0x0, symBinAddr: 0x23AA8, symSize: 0x48 }
  - { offset: 0x7BF7E, size: 0x8, addend: 0x0, symName: '__ZN7managym5agent3env3Env19random_action_index28_$u7b$$u7b$closure$u7d$$u7d$17h3c861e3ddb468cfcE', symObjAddr: 0x0, symBinAddr: 0x23AA8, symSize: 0x48 }
  - { offset: 0x7BFA6, size: 0x8, addend: 0x0, symName: '__ZN7managym5agent3env3Env19random_action_index28_$u7b$$u7b$closure$u7d$$u7d$17hfeaa65c90ad23077E', symObjAddr: 0x48, symBinAddr: 0x23AF0, symSize: 0x48 }
  - { offset: 0x7BFE2, size: 0x8, addend: 0x0, symName: '__ZN7managym5agent3env3Env26pass_priority_action_index28_$u7b$$u7b$closure$u7d$$u7d$17h251c592c8f3737feE', symObjAddr: 0x90, symBinAddr: 0x23B38, symSize: 0x34 }
  - { offset: 0x7C018, size: 0x8, addend: 0x0, symName: '__ZN7managym5agent3env3Env26pass_priority_action_index28_$u7b$$u7b$closure$u7d$$u7d$17hdc23f566bcb7847dE', symObjAddr: 0xC4, symBinAddr: 0x23B6C, symSize: 0x48 }
  - { offset: 0x7C040, size: 0x8, addend: 0x0, symName: '__ZN7managym5agent3env3Env26pass_priority_action_index28_$u7b$$u7b$closure$u7d$$u7d$17hee2eca13d7fa5e2bE', symObjAddr: 0x10C, symBinAddr: 0x23BB4, symSize: 0x48 }
  - { offset: 0x7C083, size: 0x8, addend: 0x0, symName: '__ZN7managym5agent3env3Env4step28_$u7b$$u7b$closure$u7d$$u7d$17h97f5f89f7a70f02aE', symObjAddr: 0x154, symBinAddr: 0x23BFC, symSize: 0x9C }
  - { offset: 0x7C11D, size: 0x8, addend: 0x0, symName: '__ZN7managym5agent3env3Env4step28_$u7b$$u7b$closure$u7d$$u7d$17haadd6ae3156284eeE', symObjAddr: 0x1F0, symBinAddr: 0x23C98, symSize: 0x48 }
  - { offset: 0x7C145, size: 0x8, addend: 0x0, symName: '__ZN7managym5agent3env3Env4step28_$u7b$$u7b$closure$u7d$$u7d$17hc820d8e8a78b31c8E', symObjAddr: 0x238, symBinAddr: 0x23CE0, symSize: 0x48 }
  - { offset: 0x7C16D, size: 0x8, addend: 0x0, symName: '__ZN7managym5agent3env3Env4step28_$u7b$$u7b$closure$u7d$$u7d$17hd8ae5f4849f352a7E', symObjAddr: 0x280, symBinAddr: 0x23D28, symSize: 0x48 }
  - { offset: 0x7C90A, size: 0x8, addend: 0x0, symName: '__ZN4pyo311conversions3std6string80_$LT$impl$u20$pyo3..conversion..ToPyObject$u20$for$u20$alloc..string..String$GT$9to_object17h29f8ce5cfc534d0bE', symObjAddr: 0x0, symBinAddr: 0x23D70, symSize: 0x34 }
  - { offset: 0x7E3C0, size: 0x8, addend: 0x0, symName: '__ZN4pyo311conversions3std6string80_$LT$impl$u20$pyo3..conversion..ToPyObject$u20$for$u20$alloc..string..String$GT$9to_object17h29f8ce5cfc534d0bE', symObjAddr: 0x0, symBinAddr: 0x23D70, symSize: 0x34 }
  - { offset: 0x7E584, size: 0x8, addend: 0x0, symName: '__ZN5alloc3str83_$LT$impl$u20$core..borrow..Borrow$LT$str$GT$$u20$for$u20$alloc..string..String$GT$6borrow17h743628354776e9c7E', symObjAddr: 0x184, symBinAddr: 0x23EF4, symSize: 0x2C }
  - { offset: 0x7E6AA, size: 0x8, addend: 0x0, symName: '__ZN51_$LT$str$u20$as$u20$alloc..string..SpecToString$GT$14spec_to_string17hf6aa2ce409e7bbb2E', symObjAddr: 0x34, symBinAddr: 0x23DA4, symSize: 0x50 }
  - { offset: 0x7E82D, size: 0x8, addend: 0x0, symName: '__ZN53_$LT$usize$u20$as$u20$alloc..string..SpecToString$GT$14spec_to_string17hdafbbf04c5c1a4ecE', symObjAddr: 0x84, symBinAddr: 0x23DF4, symSize: 0x6C }
  - { offset: 0x7E9AC, size: 0x8, addend: 0x0, symName: '__ZN56_$LT$alloc..string..String$u20$as$u20$core..cmp..Ord$GT$3cmp17hdb47db6b16968af9E', symObjAddr: 0xF0, symBinAddr: 0x23E60, symSize: 0x2C }
  - { offset: 0x7E9EF, size: 0x8, addend: 0x0, symName: '__ZN58_$LT$alloc..string..String$u20$as$u20$core..fmt..Write$GT$10write_char17h9c13d7b1ed1a30bdE', symObjAddr: 0x11C, symBinAddr: 0x23E8C, symSize: 0x30 }
  - { offset: 0x7EA2C, size: 0x8, addend: 0x0, symName: '__ZN58_$LT$alloc..string..String$u20$as$u20$core..fmt..Write$GT$9write_str17he6fc594b0c96d18eE', symObjAddr: 0x14C, symBinAddr: 0x23EBC, symSize: 0x38 }
  - { offset: 0x7EA8D, size: 0x8, addend: 0x0, symName: '__ZN65_$LT$alloc..string..String$u20$as$u20$core..ops..deref..Deref$GT$5deref17ha9fc22e5578ad26bE', symObjAddr: 0x490, symBinAddr: 0x24200, symSize: 0x24 }
  - { offset: 0x7EAC1, size: 0x8, addend: 0x0, symName: '__ZN60_$LT$alloc..string..String$u20$as$u20$core..fmt..Display$GT$3fmt17h6ce1883a4f2fbc53E', symObjAddr: 0x3B4, symBinAddr: 0x24124, symSize: 0x80 }
  - { offset: 0x7EC26, size: 0x8, addend: 0x0, symName: '__ZN62_$LT$alloc..string..String$u20$as$u20$core..cmp..PartialEq$GT$2eq17haf54236a8c034e06E', symObjAddr: 0x434, symBinAddr: 0x241A4, symSize: 0x2C }
  - { offset: 0x7EC69, size: 0x8, addend: 0x0, symName: '__ZN64_$LT$alloc..string..String$u20$as$u20$core..default..Default$GT$7default17h3867602ab125d5bdE', symObjAddr: 0x460, symBinAddr: 0x241D0, symSize: 0x30 }
  - { offset: 0x7ED27, size: 0x8, addend: 0x0, symName: '__ZN73_$LT$alloc..string..String$u20$as$u20$core..cmp..PartialEq$LT$str$GT$$GT$2eq17haf8e3762114f9ad1E', symObjAddr: 0x4B4, symBinAddr: 0x24224, symSize: 0x100 }
  - { offset: 0x7EFB5, size: 0x8, addend: 0x0, symName: '__ZN77_$LT$alloc..string..String$u20$as$u20$core..cmp..PartialEq$LT$$RF$str$GT$$GT$2ne17hd4e563eef66ff0e0E', symObjAddr: 0x5B4, symBinAddr: 0x24324, symSize: 0x110 }
  - { offset: 0x7F680, size: 0x8, addend: 0x0, symName: __ZN5alloc6string6String3new17h0323afe09aa87449E, symObjAddr: 0x1B0, symBinAddr: 0x23F20, symSize: 0x30 }
  - { offset: 0x7F87A, size: 0x8, addend: 0x0, symName: __ZN5alloc6string6String4push17ha058addf8039d05eE, symObjAddr: 0x1E0, symBinAddr: 0x23F50, symSize: 0x114 }
  - { offset: 0x7FB5B, size: 0x8, addend: 0x0, symName: __ZN5alloc6string6String6as_str17hd0154d1fd87beca7E, symObjAddr: 0x2F4, symBinAddr: 0x24064, symSize: 0x70 }
  - { offset: 0x7FD29, size: 0x8, addend: 0x0, symName: __ZN5alloc6string6String8push_str17hc537b41c83ca6ba6E, symObjAddr: 0x364, symBinAddr: 0x240D4, symSize: 0x50 }
  - { offset: 0x805B9, size: 0x8, addend: 0x0, symName: __ZN4core5slice3raw14from_raw_parts17h4e857f0796ab93f3E, symObjAddr: 0x0, symBinAddr: 0x24434, symSize: 0x58 }
  - { offset: 0x80D96, size: 0x8, addend: 0x0, symName: __ZN4core5slice3raw14from_raw_parts17h4e857f0796ab93f3E, symObjAddr: 0x0, symBinAddr: 0x24434, symSize: 0x58 }
  - { offset: 0x80DD9, size: 0x8, addend: 0x0, symName: __ZN4core5slice3raw14from_raw_parts17h658566038571625aE, symObjAddr: 0x58, symBinAddr: 0x2448C, symSize: 0x58 }
  - { offset: 0x80E1C, size: 0x8, addend: 0x0, symName: __ZN4core5slice3raw14from_raw_parts17h8b2a13f64b3dd82aE, symObjAddr: 0xB0, symBinAddr: 0x244E4, symSize: 0x58 }
  - { offset: 0x80E5F, size: 0x8, addend: 0x0, symName: __ZN4core5slice3raw14from_raw_parts17h9c098837f544124fE, symObjAddr: 0x108, symBinAddr: 0x2453C, symSize: 0x58 }
  - { offset: 0x80EA2, size: 0x8, addend: 0x0, symName: __ZN4core5slice3raw14from_raw_parts17hd924790fe8df3c53E, symObjAddr: 0x160, symBinAddr: 0x24594, symSize: 0x58 }
  - { offset: 0x80EE5, size: 0x8, addend: 0x0, symName: __ZN4core5slice3raw14from_raw_parts17hdec29b0519945c53E, symObjAddr: 0x1B8, symBinAddr: 0x245EC, symSize: 0x58 }
  - { offset: 0x80F28, size: 0x8, addend: 0x0, symName: __ZN4core5slice3raw18from_raw_parts_mut17h6f6148896d6781d5E, symObjAddr: 0x210, symBinAddr: 0x24644, symSize: 0x58 }
  - { offset: 0x80F6B, size: 0x8, addend: 0x0, symName: __ZN4core5slice3raw18from_raw_parts_mut17h985f082763d46f9fE, symObjAddr: 0x268, symBinAddr: 0x2469C, symSize: 0x58 }
  - { offset: 0x80FAE, size: 0x8, addend: 0x0, symName: __ZN4core5slice3raw18from_raw_parts_mut17hc649204790eb4f78E, symObjAddr: 0x2C0, symBinAddr: 0x246F4, symSize: 0x58 }
  - { offset: 0x8226C, size: 0x8, addend: 0x0, symName: __ZN7managym5agent3env3Env15compare_profile17ha8c257d45e8e4c5eE, symObjAddr: 0x0, symBinAddr: 0x2474C, symSize: 0x7C }
  - { offset: 0x878F4, size: 0x8, addend: 0x0, symName: __ZN7managym5agent3env3Env15compare_profile17ha8c257d45e8e4c5eE, symObjAddr: 0x0, symBinAddr: 0x2474C, symSize: 0x7C }
  - { offset: 0x87990, size: 0x8, addend: 0x0, symName: __ZN7managym5agent3env3Env17add_behavior_info17hce1141ffecd34609E, symObjAddr: 0x7C, symBinAddr: 0x247C8, symSize: 0x420 }
  - { offset: 0x87A7B, size: 0x8, addend: 0x0, symName: __ZN7managym5agent3env3Env17add_profiler_info17h9fc63ef35020674eE, symObjAddr: 0x49C, symBinAddr: 0x24BE8, symSize: 0x2E8 }
  - { offset: 0x87B32, size: 0x8, addend: 0x0, symName: __ZN7managym5agent3env3Env18encode_observation17h5124fd17fc0a9a00E, symObjAddr: 0x784, symBinAddr: 0x24ED0, symSize: 0x44 }
  - { offset: 0x87B6F, size: 0x8, addend: 0x0, symName: __ZN7managym5agent3env3Env19random_action_index17ha8221bd5df4532abE, symObjAddr: 0x7C8, symBinAddr: 0x24F14, symSize: 0x1A8 }
  - { offset: 0x87BFA, size: 0x8, addend: 0x0, symName: __ZN7managym5agent3env3Env23export_profile_baseline17hcc15109f5c75090cE, symObjAddr: 0x970, symBinAddr: 0x250BC, symSize: 0x54 }
  - { offset: 0x87C1C, size: 0x8, addend: 0x0, symName: __ZN7managym5agent3env3Env26pass_priority_action_index17hb6c01fc37dfbeccfE, symObjAddr: 0x9C4, symBinAddr: 0x25110, symSize: 0x1A8 }
  - { offset: 0x87CA7, size: 0x8, addend: 0x0, symName: __ZN7managym5agent3env3Env3new17h4649e9233156ec88E, symObjAddr: 0xB6C, symBinAddr: 0x252B8, symSize: 0x130 }
  - { offset: 0x87CF3, size: 0x8, addend: 0x0, symName: __ZN7managym5agent3env3Env4info17h9d5666c449724e11E, symObjAddr: 0xC9C, symBinAddr: 0x253E8, symSize: 0xCC }
  - { offset: 0x87D83, size: 0x8, addend: 0x0, symName: __ZN7managym5agent3env3Env4step17hedb55e4832943af3E, symObjAddr: 0xD68, symBinAddr: 0x254B4, symSize: 0x8AC }
  - { offset: 0x88040, size: 0x8, addend: 0x0, symName: __ZN7managym5agent3env3Env5reset17h3a06832226c5bb6bE, symObjAddr: 0x1614, symBinAddr: 0x25D60, symSize: 0x2A4 }
  - { offset: 0x880BA, size: 0x8, addend: 0x0, symName: __ZN7managym5agent3env3Env8set_seed17hb34811a78b68237eE, symObjAddr: 0x18B8, symBinAddr: 0x26004, symSize: 0x1C }
  - { offset: 0x882B3, size: 0x8, addend: 0x0, symName: '__ZN93_$LT$core..ops..index_range..IndexRange$u20$as$u20$core..iter..traits..iterator..Iterator$GT$8try_fold17hd148329b01906e72E', symObjAddr: 0x0, symBinAddr: 0x26020, symSize: 0x160 }
  - { offset: 0x883AD, size: 0x8, addend: 0x0, symName: '__ZN93_$LT$core..ops..index_range..IndexRange$u20$as$u20$core..iter..traits..iterator..Iterator$GT$8try_fold17hd148329b01906e72E', symObjAddr: 0x0, symBinAddr: 0x26020, symSize: 0x160 }
  - { offset: 0x886F4, size: 0x8, addend: 0x0, symName: '__ZN70_$LT$managym..infra..profiler..Stats$u20$as$u20$core..clone..Clone$GT$5clone17h98ee222ca0e0fd65E', symObjAddr: 0x0, symBinAddr: 0x26180, symSize: 0x1C }
  - { offset: 0x88715, size: 0x8, addend: 0x0, symName: '__ZN70_$LT$managym..infra..profiler..Stats$u20$as$u20$core..clone..Clone$GT$5clone17h98ee222ca0e0fd65E', symObjAddr: 0x0, symBinAddr: 0x26180, symSize: 0x1C }
  - { offset: 0x88747, size: 0x8, addend: 0x0, symName: '__ZN74_$LT$managym..infra..profiler..InfoValue$u20$as$u20$core..clone..Clone$GT$5clone17hdbd38bfeefa77b3dE', symObjAddr: 0x1C, symBinAddr: 0x2619C, symSize: 0x110 }
  - { offset: 0x887ED, size: 0x8, addend: 0x0, symName: '__ZN74_$LT$managym..infra..profiler..Stats$u20$as$u20$core..default..Default$GT$7default17he9199640c2ac0442E', symObjAddr: 0x12C, symBinAddr: 0x262AC, symSize: 0xC }
  - { offset: 0x88884, size: 0x8, addend: 0x0, symName: __ZN7managym5infra8profiler15empty_info_dict17hb9c99d237a934cfeE, symObjAddr: 0x254, symBinAddr: 0x263D4, symSize: 0x14 }
  - { offset: 0x8A656, size: 0x8, addend: 0x0, symName: __ZN7managym5infra8profiler10TimingNode13push_duration17hd8da294125d0ed85E, symObjAddr: 0x138, symBinAddr: 0x262B8, symSize: 0xB8 }
  - { offset: 0x8A6A3, size: 0x8, addend: 0x0, symName: __ZN7managym5infra8profiler10TimingNode3new17hf90c32d041b7c621E, symObjAddr: 0x1F0, symBinAddr: 0x26370, symSize: 0x64 }
  - { offset: 0x8A950, size: 0x8, addend: 0x0, symName: __ZN7managym5infra8profiler5Scope8disabled17h4ea4dd30c4068a63E, symObjAddr: 0x268, symBinAddr: 0x263E8, symSize: 0x84 }
  - { offset: 0x8A963, size: 0x8, addend: 0x0, symName: __ZN7managym5infra8profiler8Profiler10is_enabled17h9d03b876a7f416e2E, symObjAddr: 0x2EC, symBinAddr: 0x2646C, symSize: 0x1C }
  - { offset: 0x8AA29, size: 0x8, addend: 0x0, symName: __ZN7managym5infra8profiler8Profiler14parse_baseline17h07dfb39b4132ccabE, symObjAddr: 0x308, symBinAddr: 0x26488, symSize: 0x2A0 }
  - { offset: 0x8AB02, size: 0x8, addend: 0x0, symName: __ZN7managym5infra8profiler8Profiler15export_baseline17h9e643dff2e61f17bE, symObjAddr: 0x5A8, symBinAddr: 0x26728, symSize: 0x294 }
  - { offset: 0x8ABDD, size: 0x8, addend: 0x0, symName: __ZN7managym5infra8profiler8Profiler19compare_to_baseline17hd06924cc33f530d6E, symObjAddr: 0x83C, symBinAddr: 0x269BC, symSize: 0xAB4 }
  - { offset: 0x8AF27, size: 0x8, addend: 0x0, symName: __ZN7managym5infra8profiler8Profiler3new17h431128a08a6117dcE, symObjAddr: 0x12F0, symBinAddr: 0x27470, symSize: 0xC4 }
  - { offset: 0x8AF57, size: 0x8, addend: 0x0, symName: __ZN7managym5infra8profiler8Profiler5track17hf1e894879cb094c6E, symObjAddr: 0x13B4, symBinAddr: 0x27534, symSize: 0x38C }
  - { offset: 0x8B04F, size: 0x8, addend: 0x0, symName: __ZN7managym5infra8profiler8Profiler9end_scope17h8fcb47d716d1c14aE, symObjAddr: 0x1740, symBinAddr: 0x278C0, symSize: 0x2CC }
  - { offset: 0x8B12D, size: 0x8, addend: 0x0, symName: __ZN7managym5infra8profiler8Profiler9get_stats17h8ee64080d6bf3dfbE, symObjAddr: 0x1A0C, symBinAddr: 0x27B8C, symSize: 0x104 }
  - { offset: 0x8B528, size: 0x8, addend: 0x0, symName: '__ZN108_$LT$core..iter..adapters..peekable..Peekable$LT$I$GT$$u20$as$u20$core..iter..traits..iterator..Iterator$GT$4next17h84f12f48bddd08b3E', symObjAddr: 0x0, symBinAddr: 0x27C90, symSize: 0x6C }
  - { offset: 0x8B8C5, size: 0x8, addend: 0x0, symName: '__ZN108_$LT$core..iter..adapters..peekable..Peekable$LT$I$GT$$u20$as$u20$core..iter..traits..iterator..Iterator$GT$4next17h84f12f48bddd08b3E', symObjAddr: 0x0, symBinAddr: 0x27C90, symSize: 0x6C }
  - { offset: 0x8B98A, size: 0x8, addend: 0x0, symName: '__ZN4core4iter8adapters8peekable17Peekable$LT$I$GT$4peek28_$u7b$$u7b$closure$u7d$$u7d$17h3260a315e51046bdE', symObjAddr: 0xDC, symBinAddr: 0x27D6C, symSize: 0x24 }
  - { offset: 0x8B9C1, size: 0x8, addend: 0x0, symName: '__ZN4core4iter8adapters8peekable17Peekable$LT$I$GT$4peek28_$u7b$$u7b$closure$u7d$$u7d$17hb3b33a67a33eb492E', symObjAddr: 0x100, symBinAddr: 0x27D90, symSize: 0x24 }
  - { offset: 0x8B9F8, size: 0x8, addend: 0x0, symName: '__ZN4core4iter8adapters8peekable17Peekable$LT$I$GT$4peek28_$u7b$$u7b$closure$u7d$$u7d$17hee7196474ca61eabE', symObjAddr: 0x124, symBinAddr: 0x27DB4, symSize: 0x24 }
  - { offset: 0x8BA2F, size: 0x8, addend: 0x0, symName: '__ZN4core4iter8adapters8peekable17Peekable$LT$I$GT$4peek28_$u7b$$u7b$closure$u7d$$u7d$17hf6743894510d40d7E', symObjAddr: 0x148, symBinAddr: 0x27DD8, symSize: 0x24 }
  - { offset: 0x8BCF4, size: 0x8, addend: 0x0, symName: '__ZN4core4iter8adapters8peekable17Peekable$LT$I$GT$4peek17h3be2124ecdae5de8E', symObjAddr: 0x6C, symBinAddr: 0x27CFC, symSize: 0x70 }
  - { offset: 0x8C066, size: 0x8, addend: 0x0, symName: '__ZN4core3ptr7mut_ptr31_$LT$impl$u20$$BP$mut$u20$T$GT$7is_null17h6823d7712e09d1efE', symObjAddr: 0x0, symBinAddr: 0x27DFC, symSize: 0x18 }
  - { offset: 0x8C0EF, size: 0x8, addend: 0x0, symName: '__ZN4core3ptr7mut_ptr31_$LT$impl$u20$$BP$mut$u20$T$GT$7is_null17h6823d7712e09d1efE', symObjAddr: 0x0, symBinAddr: 0x27DFC, symSize: 0x18 }
  - { offset: 0x8C14E, size: 0x8, addend: 0x0, symName: '__ZN4core3ptr7mut_ptr31_$LT$impl$u20$$BP$mut$u20$T$GT$7is_null17hc69f485c7424643bE', symObjAddr: 0x18, symBinAddr: 0x27E14, symSize: 0x18 }
  - { offset: 0x8C1FE, size: 0x8, addend: 0x0, symName: '__ZN5alloc11collections5btree3fix178_$LT$impl$u20$alloc..collections..btree..node..NodeRef$LT$alloc..collections..btree..node..marker..Owned$C$K$C$V$C$alloc..collections..btree..node..marker..LeafOrInternal$GT$$GT$29fix_right_border_of_plentiful17h1d94c4a2cd0cba18E', symObjAddr: 0x0, symBinAddr: 0x27E2C, symSize: 0x14C }
  - { offset: 0xB6B17, size: 0x8, addend: 0x0, symName: '__ZN5alloc11collections5btree4node127NodeRef$LT$alloc..collections..btree..node..marker..Owned$C$K$C$V$C$alloc..collections..btree..node..marker..LeafOrInternal$GT$19push_internal_level28_$u7b$$u7b$closure$u7d$$u7d$17h13924276dfc5a2e1E', symObjAddr: 0x6D50, symBinAddr: 0x2EB7C, symSize: 0x34 }
  - { offset: 0xB6B70, size: 0x8, addend: 0x0, symName: '__ZN5alloc11collections5btree4node127NodeRef$LT$alloc..collections..btree..node..marker..Owned$C$K$C$V$C$alloc..collections..btree..node..marker..LeafOrInternal$GT$19push_internal_level28_$u7b$$u7b$closure$u7d$$u7d$17h1501088fb36cd14dE', symObjAddr: 0x6D84, symBinAddr: 0x2EBB0, symSize: 0x34 }
  - { offset: 0xB6BC9, size: 0x8, addend: 0x0, symName: '__ZN5alloc11collections5btree4node127NodeRef$LT$alloc..collections..btree..node..marker..Owned$C$K$C$V$C$alloc..collections..btree..node..marker..LeafOrInternal$GT$19push_internal_level28_$u7b$$u7b$closure$u7d$$u7d$17h1f595f09cb45dd07E', symObjAddr: 0x6DB8, symBinAddr: 0x2EBE4, symSize: 0x34 }
  - { offset: 0xB6C22, size: 0x8, addend: 0x0, symName: '__ZN5alloc11collections5btree4node127NodeRef$LT$alloc..collections..btree..node..marker..Owned$C$K$C$V$C$alloc..collections..btree..node..marker..LeafOrInternal$GT$19push_internal_level28_$u7b$$u7b$closure$u7d$$u7d$17h2681607d09f4f404E', symObjAddr: 0x6DEC, symBinAddr: 0x2EC18, symSize: 0x34 }
  - { offset: 0xB6C7B, size: 0x8, addend: 0x0, symName: '__ZN5alloc11collections5btree4node127NodeRef$LT$alloc..collections..btree..node..marker..Owned$C$K$C$V$C$alloc..collections..btree..node..marker..LeafOrInternal$GT$19push_internal_level28_$u7b$$u7b$closure$u7d$$u7d$17h27752de3e0e5c058E', symObjAddr: 0x6E20, symBinAddr: 0x2EC4C, symSize: 0x34 }
  - { offset: 0xB6CD4, size: 0x8, addend: 0x0, symName: '__ZN5alloc11collections5btree4node127NodeRef$LT$alloc..collections..btree..node..marker..Owned$C$K$C$V$C$alloc..collections..btree..node..marker..LeafOrInternal$GT$19push_internal_level28_$u7b$$u7b$closure$u7d$$u7d$17h6adcb733c9189a3dE', symObjAddr: 0x6E54, symBinAddr: 0x2EC80, symSize: 0x34 }
  - { offset: 0xB6D2D, size: 0x8, addend: 0x0, symName: '__ZN5alloc11collections5btree4node127NodeRef$LT$alloc..collections..btree..node..marker..Owned$C$K$C$V$C$alloc..collections..btree..node..marker..LeafOrInternal$GT$19push_internal_level28_$u7b$$u7b$closure$u7d$$u7d$17h731bdcac7c57a3c8E', symObjAddr: 0x6E88, symBinAddr: 0x2ECB4, symSize: 0x34 }
  - { offset: 0xB6D86, size: 0x8, addend: 0x0, symName: '__ZN5alloc11collections5btree4node127NodeRef$LT$alloc..collections..btree..node..marker..Owned$C$K$C$V$C$alloc..collections..btree..node..marker..LeafOrInternal$GT$19push_internal_level28_$u7b$$u7b$closure$u7d$$u7d$17ha2bdb7969330857fE', symObjAddr: 0x6EBC, symBinAddr: 0x2ECE8, symSize: 0x34 }
  - { offset: 0xB6DDF, size: 0x8, addend: 0x0, symName: '__ZN5alloc11collections5btree4node127NodeRef$LT$alloc..collections..btree..node..marker..Owned$C$K$C$V$C$alloc..collections..btree..node..marker..LeafOrInternal$GT$19push_internal_level28_$u7b$$u7b$closure$u7d$$u7d$17haac71c675fd318d1E', symObjAddr: 0x6EF0, symBinAddr: 0x2ED1C, symSize: 0x34 }
  - { offset: 0xB6E38, size: 0x8, addend: 0x0, symName: '__ZN5alloc11collections5btree4node127NodeRef$LT$alloc..collections..btree..node..marker..Owned$C$K$C$V$C$alloc..collections..btree..node..marker..LeafOrInternal$GT$19push_internal_level28_$u7b$$u7b$closure$u7d$$u7d$17hcbc09a80a536f143E', symObjAddr: 0x6F24, symBinAddr: 0x2ED50, symSize: 0x34 }
  - { offset: 0xB6E91, size: 0x8, addend: 0x0, symName: '__ZN5alloc11collections5btree4node127NodeRef$LT$alloc..collections..btree..node..marker..Owned$C$K$C$V$C$alloc..collections..btree..node..marker..LeafOrInternal$GT$19push_internal_level28_$u7b$$u7b$closure$u7d$$u7d$17hdb100dd422cda39aE', symObjAddr: 0x6F58, symBinAddr: 0x2ED84, symSize: 0x34 }
  - { offset: 0xB6F25, size: 0x8, addend: 0x0, symName: __ZN5alloc11collections5btree4node12slice_insert17h025aec8a7f248b6bE, symObjAddr: 0x703C, symBinAddr: 0x2EE68, symSize: 0x114 }
  - { offset: 0xB708B, size: 0x8, addend: 0x0, symName: __ZN5alloc11collections5btree4node12slice_insert17h0b02bb8b2c801e7aE, symObjAddr: 0x7150, symBinAddr: 0x2EF7C, symSize: 0x114 }
  - { offset: 0xB71F1, size: 0x8, addend: 0x0, symName: __ZN5alloc11collections5btree4node12slice_insert17h1c6fd2bdfadf462fE, symObjAddr: 0x7264, symBinAddr: 0x2F090, symSize: 0x11C }
  - { offset: 0xB7359, size: 0x8, addend: 0x0, symName: __ZN5alloc11collections5btree4node12slice_insert17h1cd662fdb18929dcE, symObjAddr: 0x7380, symBinAddr: 0x2F1AC, symSize: 0x158 }
  - { offset: 0xB74E0, size: 0x8, addend: 0x0, symName: __ZN5alloc11collections5btree4node12slice_insert17h2241d053904fab5fE, symObjAddr: 0x74D8, symBinAddr: 0x2F304, symSize: 0x144 }
  - { offset: 0xB7667, size: 0x8, addend: 0x0, symName: __ZN5alloc11collections5btree4node12slice_insert17h43d9a12a6531c6ceE, symObjAddr: 0x761C, symBinAddr: 0x2F448, symSize: 0x16C }
  - { offset: 0xB77F2, size: 0x8, addend: 0x0, symName: __ZN5alloc11collections5btree4node12slice_insert17h51a06740e56508adE, symObjAddr: 0x7788, symBinAddr: 0x2F5B4, symSize: 0x16C }
  - { offset: 0xB797D, size: 0x8, addend: 0x0, symName: __ZN5alloc11collections5btree4node12slice_insert17h5bbc03599ac6c354E, symObjAddr: 0x78F4, symBinAddr: 0x2F720, symSize: 0xD8 }
  - { offset: 0xB7A92, size: 0x8, addend: 0x0, symName: __ZN5alloc11collections5btree4node12slice_insert17h6743129959b3a08bE, symObjAddr: 0x79CC, symBinAddr: 0x2F7F8, symSize: 0x114 }
  - { offset: 0xB7BF8, size: 0x8, addend: 0x0, symName: __ZN5alloc11collections5btree4node12slice_insert17h7297d104985a3f69E, symObjAddr: 0x7AE0, symBinAddr: 0x2F90C, symSize: 0x114 }
  - { offset: 0xB7D5E, size: 0x8, addend: 0x0, symName: __ZN5alloc11collections5btree4node12slice_insert17hce9d32ad6dc1e646E, symObjAddr: 0x7BF4, symBinAddr: 0x2FA20, symSize: 0x10C }
  - { offset: 0xB7EC4, size: 0x8, addend: 0x0, symName: __ZN5alloc11collections5btree4node12slice_insert17hceee1a6698848f22E, symObjAddr: 0x7D00, symBinAddr: 0x2FB2C, symSize: 0x114 }
  - { offset: 0xB802A, size: 0x8, addend: 0x0, symName: __ZN5alloc11collections5btree4node12slice_insert17hd8c1d7badcec48f3E, symObjAddr: 0x7E14, symBinAddr: 0x2FC40, symSize: 0x114 }
  - { offset: 0xB8190, size: 0x8, addend: 0x0, symName: __ZN5alloc11collections5btree4node12slice_insert17hdc04094db0d375e4E, symObjAddr: 0x7F28, symBinAddr: 0x2FD54, symSize: 0x114 }
  - { offset: 0xB82F6, size: 0x8, addend: 0x0, symName: __ZN5alloc11collections5btree4node12slice_insert17he8027dfac792329cE, symObjAddr: 0x803C, symBinAddr: 0x2FE68, symSize: 0x114 }
  - { offset: 0xB845C, size: 0x8, addend: 0x0, symName: __ZN5alloc11collections5btree4node12slice_insert17hf4750e2573116fe9E, symObjAddr: 0x8150, symBinAddr: 0x2FF7C, symSize: 0x114 }
  - { offset: 0xB85C2, size: 0x8, addend: 0x0, symName: __ZN5alloc11collections5btree4node13move_to_slice17h0621f6d460f627feE, symObjAddr: 0x8264, symBinAddr: 0x30090, symSize: 0xB8 }
  - { offset: 0xB866E, size: 0x8, addend: 0x0, symName: __ZN5alloc11collections5btree4node13move_to_slice17h26b4989d32f4649cE, symObjAddr: 0x831C, symBinAddr: 0x30148, symSize: 0xB0 }
  - { offset: 0xB871A, size: 0x8, addend: 0x0, symName: __ZN5alloc11collections5btree4node13move_to_slice17h2cfbd5ca13bb6580E, symObjAddr: 0x83CC, symBinAddr: 0x301F8, symSize: 0xB0 }
  - { offset: 0xB87C6, size: 0x8, addend: 0x0, symName: __ZN5alloc11collections5btree4node13move_to_slice17h312484134d4d9272E, symObjAddr: 0x847C, symBinAddr: 0x302A8, symSize: 0xB0 }
  - { offset: 0xB8872, size: 0x8, addend: 0x0, symName: __ZN5alloc11collections5btree4node13move_to_slice17h421a40939c28e607E, symObjAddr: 0x852C, symBinAddr: 0x30358, symSize: 0xB0 }
  - { offset: 0xB891E, size: 0x8, addend: 0x0, symName: __ZN5alloc11collections5btree4node13move_to_slice17h44088378c50df770E, symObjAddr: 0x85DC, symBinAddr: 0x30408, symSize: 0xB0 }
  - { offset: 0xB89CA, size: 0x8, addend: 0x0, symName: __ZN5alloc11collections5btree4node13move_to_slice17h460a1ce1cd03ccacE, symObjAddr: 0x868C, symBinAddr: 0x304B8, symSize: 0xB4 }
  - { offset: 0xB8A76, size: 0x8, addend: 0x0, symName: __ZN5alloc11collections5btree4node13move_to_slice17h5565bd9345253ab4E, symObjAddr: 0x8740, symBinAddr: 0x3056C, symSize: 0xB4 }
  - { offset: 0xB8B22, size: 0x8, addend: 0x0, symName: __ZN5alloc11collections5btree4node13move_to_slice17h57601b4efecb582cE, symObjAddr: 0x87F4, symBinAddr: 0x30620, symSize: 0xB8 }
  - { offset: 0xB8BCE, size: 0x8, addend: 0x0, symName: __ZN5alloc11collections5btree4node13move_to_slice17h57c849e69214a33bE, symObjAddr: 0x88AC, symBinAddr: 0x306D8, symSize: 0xB0 }
  - { offset: 0xB8C7A, size: 0x8, addend: 0x0, symName: __ZN5alloc11collections5btree4node13move_to_slice17h62e4d502a1923a90E, symObjAddr: 0x895C, symBinAddr: 0x30788, symSize: 0xB0 }
  - { offset: 0xB8D26, size: 0x8, addend: 0x0, symName: __ZN5alloc11collections5btree4node13move_to_slice17h634dadccdba97259E, symObjAddr: 0x8A0C, symBinAddr: 0x30838, symSize: 0xB4 }
  - { offset: 0xB8DD2, size: 0x8, addend: 0x0, symName: __ZN5alloc11collections5btree4node13move_to_slice17h70c34eb4b8ab1938E, symObjAddr: 0x8AC0, symBinAddr: 0x308EC, symSize: 0xB0 }
  - { offset: 0xB8E7E, size: 0x8, addend: 0x0, symName: __ZN5alloc11collections5btree4node13move_to_slice17h85b39785f456b5bcE, symObjAddr: 0x8B70, symBinAddr: 0x3099C, symSize: 0xB0 }
  - { offset: 0xB8F2A, size: 0x8, addend: 0x0, symName: __ZN5alloc11collections5btree4node13move_to_slice17h95e5685d6143410cE, symObjAddr: 0x8C20, symBinAddr: 0x30A4C, symSize: 0xB8 }
  - { offset: 0xB8FD6, size: 0x8, addend: 0x0, symName: __ZN5alloc11collections5btree4node13move_to_slice17ha1e411a8b0623265E, symObjAddr: 0x8CD8, symBinAddr: 0x30B04, symSize: 0xB0 }
  - { offset: 0xB9082, size: 0x8, addend: 0x0, symName: __ZN5alloc11collections5btree4node13move_to_slice17ha4d3d2bdfa194e59E, symObjAddr: 0x8D88, symBinAddr: 0x30BB4, symSize: 0xB0 }
  - { offset: 0xB912E, size: 0x8, addend: 0x0, symName: __ZN5alloc11collections5btree4node13move_to_slice17hae7e654a87911cc4E, symObjAddr: 0x8E38, symBinAddr: 0x30C64, symSize: 0xB0 }
  - { offset: 0xB91DA, size: 0x8, addend: 0x0, symName: __ZN5alloc11collections5btree4node13move_to_slice17hbb215daeb675bb33E, symObjAddr: 0x8EE8, symBinAddr: 0x30D14, symSize: 0xB4 }
  - { offset: 0xB9286, size: 0x8, addend: 0x0, symName: __ZN5alloc11collections5btree4node13move_to_slice17hd7c84c5d635bdcc7E, symObjAddr: 0x8F9C, symBinAddr: 0x30DC8, symSize: 0xB0 }
  - { offset: 0xB9332, size: 0x8, addend: 0x0, symName: __ZN5alloc11collections5btree4node13move_to_slice17he4ba7452703b5228E, symObjAddr: 0x904C, symBinAddr: 0x30E78, symSize: 0xB0 }
  - { offset: 0xB93DE, size: 0x8, addend: 0x0, symName: __ZN5alloc11collections5btree4node13move_to_slice17hefd7461ee7ee4280E, symObjAddr: 0x90FC, symBinAddr: 0x30F28, symSize: 0xB0 }
  - { offset: 0xC1CC1, size: 0x8, addend: 0x0, symName: __ZN5alloc11collections5btree4node9slice_shr17h0f860b0c919d0a6aE, symObjAddr: 0x1FC94, symBinAddr: 0x47AC0, symSize: 0xB4 }
  - { offset: 0xC1D83, size: 0x8, addend: 0x0, symName: __ZN5alloc11collections5btree4node9slice_shr17h1bba37c3027f5456E, symObjAddr: 0x1FD48, symBinAddr: 0x47B74, symSize: 0xB4 }
  - { offset: 0xC1E45, size: 0x8, addend: 0x0, symName: __ZN5alloc11collections5btree4node9slice_shr17h570af4cd8f67ff35E, symObjAddr: 0x1FDFC, symBinAddr: 0x47C28, symSize: 0xB4 }
  - { offset: 0xC1F07, size: 0x8, addend: 0x0, symName: __ZN5alloc11collections5btree4node9slice_shr17h6b86932b4146ac69E, symObjAddr: 0x1FEB0, symBinAddr: 0x47CDC, symSize: 0xB8 }
  - { offset: 0xC1FC9, size: 0x8, addend: 0x0, symName: __ZN5alloc11collections5btree4node9slice_shr17h873a2c6fb4835314E, symObjAddr: 0x1FF68, symBinAddr: 0x47D94, symSize: 0xA0 }
  - { offset: 0xC209B, size: 0x8, addend: 0x0, symName: __ZN5alloc11collections5btree4node9slice_shr17h907e10f440942516E, symObjAddr: 0x20008, symBinAddr: 0x47E34, symSize: 0xB0 }
  - { offset: 0xC215D, size: 0x8, addend: 0x0, symName: __ZN5alloc11collections5btree4node9slice_shr17haaba8159fb7dc01cE, symObjAddr: 0x200B8, symBinAddr: 0x47EE4, symSize: 0xB4 }
  - { offset: 0xC221F, size: 0x8, addend: 0x0, symName: __ZN5alloc11collections5btree4node9slice_shr17hdbc482d0e27b8662E, symObjAddr: 0x2016C, symBinAddr: 0x47F98, symSize: 0xB4 }
  - { offset: 0xCBCC8, size: 0x8, addend: 0x0, symName: '__ZN5alloc11collections5btree3fix178_$LT$impl$u20$alloc..collections..btree..node..NodeRef$LT$alloc..collections..btree..node..marker..Owned$C$K$C$V$C$alloc..collections..btree..node..marker..LeafOrInternal$GT$$GT$29fix_right_border_of_plentiful17h1d94c4a2cd0cba18E', symObjAddr: 0x0, symBinAddr: 0x27E2C, symSize: 0x14C }
  - { offset: 0xCC084, size: 0x8, addend: 0x0, symName: '__ZN5alloc11collections5btree3fix178_$LT$impl$u20$alloc..collections..btree..node..NodeRef$LT$alloc..collections..btree..node..marker..Owned$C$K$C$V$C$alloc..collections..btree..node..marker..LeafOrInternal$GT$$GT$29fix_right_border_of_plentiful17ha21987002353489aE', symObjAddr: 0x14C, symBinAddr: 0x27F78, symSize: 0x14C }
  - { offset: 0xCC446, size: 0x8, addend: 0x0, symName: '__ZN5alloc11collections5btree3fix178_$LT$impl$u20$alloc..collections..btree..node..NodeRef$LT$alloc..collections..btree..node..marker..Owned$C$K$C$V$C$alloc..collections..btree..node..marker..LeafOrInternal$GT$$GT$29fix_right_border_of_plentiful17hc679be0d37dd11edE', symObjAddr: 0x298, symBinAddr: 0x280C4, symSize: 0x14C }
  - { offset: 0xCC8FD, size: 0x8, addend: 0x0, symName: '__ZN5alloc11collections5btree4node115NodeRef$LT$alloc..collections..btree..node..marker..Mut$C$K$C$V$C$alloc..collections..btree..node..marker..Leaf$GT$16push_with_handle17h2c6da6cb1768055bE', symObjAddr: 0x3E4, symBinAddr: 0x28210, symSize: 0x1EC }
  - { offset: 0xCCF64, size: 0x8, addend: 0x0, symName: '__ZN5alloc11collections5btree4node115NodeRef$LT$alloc..collections..btree..node..marker..Mut$C$K$C$V$C$alloc..collections..btree..node..marker..Leaf$GT$16push_with_handle17h34bfe38a4f13f9f6E', symObjAddr: 0x5D0, symBinAddr: 0x283FC, symSize: 0x1F8 }
  - { offset: 0xCD52D, size: 0x8, addend: 0x0, symName: '__ZN5alloc11collections5btree4node115NodeRef$LT$alloc..collections..btree..node..marker..Mut$C$K$C$V$C$alloc..collections..btree..node..marker..Leaf$GT$16push_with_handle17h3a4273e734cea99dE', symObjAddr: 0x7C8, symBinAddr: 0x285F4, symSize: 0x200 }
  - { offset: 0xCDB94, size: 0x8, addend: 0x0, symName: '__ZN5alloc11collections5btree4node115NodeRef$LT$alloc..collections..btree..node..marker..Mut$C$K$C$V$C$alloc..collections..btree..node..marker..Leaf$GT$16push_with_handle17h4edaff1b64f7697eE', symObjAddr: 0x9C8, symBinAddr: 0x287F4, symSize: 0x22C }
  - { offset: 0xCE124, size: 0x8, addend: 0x0, symName: '__ZN5alloc11collections5btree4node115NodeRef$LT$alloc..collections..btree..node..marker..Mut$C$K$C$V$C$alloc..collections..btree..node..marker..Leaf$GT$16push_with_handle17h5c35a8f4009e66fbE', symObjAddr: 0xBF4, symBinAddr: 0x28A20, symSize: 0x244 }
  - { offset: 0xCE70E, size: 0x8, addend: 0x0, symName: '__ZN5alloc11collections5btree4node115NodeRef$LT$alloc..collections..btree..node..marker..Mut$C$K$C$V$C$alloc..collections..btree..node..marker..Leaf$GT$16push_with_handle17h676462c7c63ebbeaE', symObjAddr: 0xE38, symBinAddr: 0x28C64, symSize: 0x194 }
  - { offset: 0xCECE2, size: 0x8, addend: 0x0, symName: '__ZN5alloc11collections5btree4node115NodeRef$LT$alloc..collections..btree..node..marker..Mut$C$K$C$V$C$alloc..collections..btree..node..marker..Leaf$GT$16push_with_handle17h82a591cc754b65daE', symObjAddr: 0xFCC, symBinAddr: 0x28DF8, symSize: 0x244 }
  - { offset: 0xCF3A6, size: 0x8, addend: 0x0, symName: '__ZN5alloc11collections5btree4node115NodeRef$LT$alloc..collections..btree..node..marker..Mut$C$K$C$V$C$alloc..collections..btree..node..marker..Leaf$GT$16push_with_handle17hb84f0b6546daba08E', symObjAddr: 0x1210, symBinAddr: 0x2903C, symSize: 0x254 }
  - { offset: 0xCFA02, size: 0x8, addend: 0x0, symName: '__ZN5alloc11collections5btree4node115NodeRef$LT$alloc..collections..btree..node..marker..Mut$C$K$C$V$C$alloc..collections..btree..node..marker..Leaf$GT$16push_with_handle17hd360492bb450a3dcE', symObjAddr: 0x1464, symBinAddr: 0x29290, symSize: 0x200 }
  - { offset: 0xCFF76, size: 0x8, addend: 0x0, symName: '__ZN5alloc11collections5btree4node115NodeRef$LT$alloc..collections..btree..node..marker..Mut$C$K$C$V$C$alloc..collections..btree..node..marker..Leaf$GT$16push_with_handle17hd524ba7b98100507E', symObjAddr: 0x1664, symBinAddr: 0x29490, symSize: 0x194 }
  - { offset: 0xD04DD, size: 0x8, addend: 0x0, symName: '__ZN5alloc11collections5btree4node115NodeRef$LT$alloc..collections..btree..node..marker..Mut$C$K$C$V$C$alloc..collections..btree..node..marker..Leaf$GT$16push_with_handle17hedbfbae23595d77dE', symObjAddr: 0x17F8, symBinAddr: 0x29624, symSize: 0x1F8 }
  - { offset: 0xD08EE, size: 0x8, addend: 0x0, symName: '__ZN5alloc11collections5btree4node117NodeRef$LT$alloc..collections..btree..node..marker..Owned$C$K$C$V$C$alloc..collections..btree..node..marker..Leaf$GT$13from_new_leaf17h11c2341b40f6c30dE', symObjAddr: 0x19F0, symBinAddr: 0x2981C, symSize: 0x58 }
  - { offset: 0xD0A0A, size: 0x8, addend: 0x0, symName: '__ZN5alloc11collections5btree4node117NodeRef$LT$alloc..collections..btree..node..marker..Owned$C$K$C$V$C$alloc..collections..btree..node..marker..Leaf$GT$13from_new_leaf17h29dbd45712c5b595E', symObjAddr: 0x1A48, symBinAddr: 0x29874, symSize: 0x58 }
  - { offset: 0xD0B26, size: 0x8, addend: 0x0, symName: '__ZN5alloc11collections5btree4node117NodeRef$LT$alloc..collections..btree..node..marker..Owned$C$K$C$V$C$alloc..collections..btree..node..marker..Leaf$GT$13from_new_leaf17h2e0a5a2bc2dd3d2aE', symObjAddr: 0x1AA0, symBinAddr: 0x298CC, symSize: 0x58 }
  - { offset: 0xD0C42, size: 0x8, addend: 0x0, symName: '__ZN5alloc11collections5btree4node117NodeRef$LT$alloc..collections..btree..node..marker..Owned$C$K$C$V$C$alloc..collections..btree..node..marker..Leaf$GT$13from_new_leaf17h42523b533c8b75caE', symObjAddr: 0x1AF8, symBinAddr: 0x29924, symSize: 0x58 }
  - { offset: 0xD0D5E, size: 0x8, addend: 0x0, symName: '__ZN5alloc11collections5btree4node117NodeRef$LT$alloc..collections..btree..node..marker..Owned$C$K$C$V$C$alloc..collections..btree..node..marker..Leaf$GT$13from_new_leaf17h621f34622da5386bE', symObjAddr: 0x1B50, symBinAddr: 0x2997C, symSize: 0x58 }
  - { offset: 0xD0E7A, size: 0x8, addend: 0x0, symName: '__ZN5alloc11collections5btree4node117NodeRef$LT$alloc..collections..btree..node..marker..Owned$C$K$C$V$C$alloc..collections..btree..node..marker..Leaf$GT$13from_new_leaf17h6adcb7e1c3eaffc4E', symObjAddr: 0x1BA8, symBinAddr: 0x299D4, symSize: 0x58 }
  - { offset: 0xD0F96, size: 0x8, addend: 0x0, symName: '__ZN5alloc11collections5btree4node117NodeRef$LT$alloc..collections..btree..node..marker..Owned$C$K$C$V$C$alloc..collections..btree..node..marker..Leaf$GT$13from_new_leaf17h87dceb1e7b93f4ebE', symObjAddr: 0x1C00, symBinAddr: 0x29A2C, symSize: 0x58 }
  - { offset: 0xD10B2, size: 0x8, addend: 0x0, symName: '__ZN5alloc11collections5btree4node117NodeRef$LT$alloc..collections..btree..node..marker..Owned$C$K$C$V$C$alloc..collections..btree..node..marker..Leaf$GT$13from_new_leaf17h8829fb7bf8701022E', symObjAddr: 0x1C58, symBinAddr: 0x29A84, symSize: 0x58 }
  - { offset: 0xD11CE, size: 0x8, addend: 0x0, symName: '__ZN5alloc11collections5btree4node117NodeRef$LT$alloc..collections..btree..node..marker..Owned$C$K$C$V$C$alloc..collections..btree..node..marker..Leaf$GT$13from_new_leaf17h9b415a2eb3b2bc26E', symObjAddr: 0x1CB0, symBinAddr: 0x29ADC, symSize: 0x58 }
  - { offset: 0xD12EA, size: 0x8, addend: 0x0, symName: '__ZN5alloc11collections5btree4node117NodeRef$LT$alloc..collections..btree..node..marker..Owned$C$K$C$V$C$alloc..collections..btree..node..marker..Leaf$GT$13from_new_leaf17hc7e4fcfcde8de849E', symObjAddr: 0x1D08, symBinAddr: 0x29B34, symSize: 0x58 }
  - { offset: 0xD1406, size: 0x8, addend: 0x0, symName: '__ZN5alloc11collections5btree4node117NodeRef$LT$alloc..collections..btree..node..marker..Owned$C$K$C$V$C$alloc..collections..btree..node..marker..Leaf$GT$13from_new_leaf17he743efc7ceac018dE', symObjAddr: 0x1D60, symBinAddr: 0x29B8C, symSize: 0x58 }
  - { offset: 0xD153C, size: 0x8, addend: 0x0, symName: '__ZN5alloc11collections5btree4node119NodeRef$LT$alloc..collections..btree..node..marker..Mut$C$K$C$V$C$alloc..collections..btree..node..marker..Internal$GT$30correct_childrens_parent_links17h09a4f98f34e4dd5eE', symObjAddr: 0x1DB8, symBinAddr: 0x29BE4, symSize: 0xB4 }
  - { offset: 0xD1680, size: 0x8, addend: 0x0, symName: '__ZN5alloc11collections5btree4node119NodeRef$LT$alloc..collections..btree..node..marker..Mut$C$K$C$V$C$alloc..collections..btree..node..marker..Internal$GT$30correct_childrens_parent_links17h23a2899ec0501b38E', symObjAddr: 0x1E6C, symBinAddr: 0x29C98, symSize: 0xB4 }
  - { offset: 0xD17C4, size: 0x8, addend: 0x0, symName: '__ZN5alloc11collections5btree4node119NodeRef$LT$alloc..collections..btree..node..marker..Mut$C$K$C$V$C$alloc..collections..btree..node..marker..Internal$GT$30correct_childrens_parent_links17h3cb379ae4366bb35E', symObjAddr: 0x1F20, symBinAddr: 0x29D4C, symSize: 0xB4 }
  - { offset: 0xD1907, size: 0x8, addend: 0x0, symName: '__ZN5alloc11collections5btree4node119NodeRef$LT$alloc..collections..btree..node..marker..Mut$C$K$C$V$C$alloc..collections..btree..node..marker..Internal$GT$30correct_childrens_parent_links17h3d7349087e67f88bE', symObjAddr: 0x1FD4, symBinAddr: 0x29E00, symSize: 0xB4 }
  - { offset: 0xD1A4B, size: 0x8, addend: 0x0, symName: '__ZN5alloc11collections5btree4node119NodeRef$LT$alloc..collections..btree..node..marker..Mut$C$K$C$V$C$alloc..collections..btree..node..marker..Internal$GT$30correct_childrens_parent_links17h4fefba3582b7c226E', symObjAddr: 0x2088, symBinAddr: 0x29EB4, symSize: 0xB4 }
  - { offset: 0xD1B82, size: 0x8, addend: 0x0, symName: '__ZN5alloc11collections5btree4node119NodeRef$LT$alloc..collections..btree..node..marker..Mut$C$K$C$V$C$alloc..collections..btree..node..marker..Internal$GT$30correct_childrens_parent_links17h69b9be516d181279E', symObjAddr: 0x213C, symBinAddr: 0x29F68, symSize: 0xB4 }
  - { offset: 0xD1CC5, size: 0x8, addend: 0x0, symName: '__ZN5alloc11collections5btree4node119NodeRef$LT$alloc..collections..btree..node..marker..Mut$C$K$C$V$C$alloc..collections..btree..node..marker..Internal$GT$30correct_childrens_parent_links17h6d1ef3ff0a3026e3E', symObjAddr: 0x21F0, symBinAddr: 0x2A01C, symSize: 0xB4 }
  - { offset: 0xD1DFC, size: 0x8, addend: 0x0, symName: '__ZN5alloc11collections5btree4node119NodeRef$LT$alloc..collections..btree..node..marker..Mut$C$K$C$V$C$alloc..collections..btree..node..marker..Internal$GT$30correct_childrens_parent_links17h7ea9a9f9f5be70d2E', symObjAddr: 0x22A4, symBinAddr: 0x2A0D0, symSize: 0xB4 }
  - { offset: 0xD1F32, size: 0x8, addend: 0x0, symName: '__ZN5alloc11collections5btree4node119NodeRef$LT$alloc..collections..btree..node..marker..Mut$C$K$C$V$C$alloc..collections..btree..node..marker..Internal$GT$30correct_childrens_parent_links17h82b39f8cb0d39844E', symObjAddr: 0x2358, symBinAddr: 0x2A184, symSize: 0xB4 }
  - { offset: 0xD2075, size: 0x8, addend: 0x0, symName: '__ZN5alloc11collections5btree4node119NodeRef$LT$alloc..collections..btree..node..marker..Mut$C$K$C$V$C$alloc..collections..btree..node..marker..Internal$GT$30correct_childrens_parent_links17h8349a9eb0e9a6723E', symObjAddr: 0x240C, symBinAddr: 0x2A238, symSize: 0xB4 }
  - { offset: 0xD21B8, size: 0x8, addend: 0x0, symName: '__ZN5alloc11collections5btree4node119NodeRef$LT$alloc..collections..btree..node..marker..Mut$C$K$C$V$C$alloc..collections..btree..node..marker..Internal$GT$30correct_childrens_parent_links17h8fc0c1be28e6ff21E', symObjAddr: 0x24C0, symBinAddr: 0x2A2EC, symSize: 0xB4 }
  - { offset: 0xD22EF, size: 0x8, addend: 0x0, symName: '__ZN5alloc11collections5btree4node119NodeRef$LT$alloc..collections..btree..node..marker..Mut$C$K$C$V$C$alloc..collections..btree..node..marker..Internal$GT$30correct_childrens_parent_links17h9d68ad71732271daE', symObjAddr: 0x2574, symBinAddr: 0x2A3A0, symSize: 0xB4 }
  - { offset: 0xD2432, size: 0x8, addend: 0x0, symName: '__ZN5alloc11collections5btree4node119NodeRef$LT$alloc..collections..btree..node..marker..Mut$C$K$C$V$C$alloc..collections..btree..node..marker..Internal$GT$30correct_childrens_parent_links17h9f4ff46ff4f9c762E', symObjAddr: 0x2628, symBinAddr: 0x2A454, symSize: 0xB4 }
  - { offset: 0xD2576, size: 0x8, addend: 0x0, symName: '__ZN5alloc11collections5btree4node119NodeRef$LT$alloc..collections..btree..node..marker..Mut$C$K$C$V$C$alloc..collections..btree..node..marker..Internal$GT$30correct_childrens_parent_links17ha3bf04bf6845e0f5E', symObjAddr: 0x26DC, symBinAddr: 0x2A508, symSize: 0xB4 }
  - { offset: 0xD26AD, size: 0x8, addend: 0x0, symName: '__ZN5alloc11collections5btree4node119NodeRef$LT$alloc..collections..btree..node..marker..Mut$C$K$C$V$C$alloc..collections..btree..node..marker..Internal$GT$30correct_childrens_parent_links17ha84ef827705a2afeE', symObjAddr: 0x2790, symBinAddr: 0x2A5BC, symSize: 0xB4 }
  - { offset: 0xD27E4, size: 0x8, addend: 0x0, symName: '__ZN5alloc11collections5btree4node119NodeRef$LT$alloc..collections..btree..node..marker..Mut$C$K$C$V$C$alloc..collections..btree..node..marker..Internal$GT$30correct_childrens_parent_links17hb55e1f8049eb58c5E', symObjAddr: 0x2844, symBinAddr: 0x2A670, symSize: 0xB4 }
  - { offset: 0xD291B, size: 0x8, addend: 0x0, symName: '__ZN5alloc11collections5btree4node119NodeRef$LT$alloc..collections..btree..node..marker..Mut$C$K$C$V$C$alloc..collections..btree..node..marker..Internal$GT$30correct_childrens_parent_links17hb8d29c33b3baad95E', symObjAddr: 0x28F8, symBinAddr: 0x2A724, symSize: 0xB4 }
  - { offset: 0xD2A5E, size: 0x8, addend: 0x0, symName: '__ZN5alloc11collections5btree4node119NodeRef$LT$alloc..collections..btree..node..marker..Mut$C$K$C$V$C$alloc..collections..btree..node..marker..Internal$GT$30correct_childrens_parent_links17hc29bb20396aa9f3bE', symObjAddr: 0x29AC, symBinAddr: 0x2A7D8, symSize: 0xB4 }
  - { offset: 0xD2B94, size: 0x8, addend: 0x0, symName: '__ZN5alloc11collections5btree4node119NodeRef$LT$alloc..collections..btree..node..marker..Mut$C$K$C$V$C$alloc..collections..btree..node..marker..Internal$GT$30correct_childrens_parent_links17he037b7079440e69cE', symObjAddr: 0x2A60, symBinAddr: 0x2A88C, symSize: 0xB4 }
  - { offset: 0xD2CCB, size: 0x8, addend: 0x0, symName: '__ZN5alloc11collections5btree4node119NodeRef$LT$alloc..collections..btree..node..marker..Mut$C$K$C$V$C$alloc..collections..btree..node..marker..Internal$GT$30correct_childrens_parent_links17heaf9e6f509a79781E', symObjAddr: 0x2B14, symBinAddr: 0x2A940, symSize: 0xB4 }
  - { offset: 0xD2E01, size: 0x8, addend: 0x0, symName: '__ZN5alloc11collections5btree4node119NodeRef$LT$alloc..collections..btree..node..marker..Mut$C$K$C$V$C$alloc..collections..btree..node..marker..Internal$GT$30correct_childrens_parent_links17hfe4a3e1d1c550501E', symObjAddr: 0x2BC8, symBinAddr: 0x2A9F4, symSize: 0xB4 }
  - { offset: 0xD2F37, size: 0x8, addend: 0x0, symName: '__ZN5alloc11collections5btree4node119NodeRef$LT$alloc..collections..btree..node..marker..Mut$C$K$C$V$C$alloc..collections..btree..node..marker..Internal$GT$30correct_childrens_parent_links17hffacee687f00f238E', symObjAddr: 0x2C7C, symBinAddr: 0x2AAA8, symSize: 0xB4 }
  - { offset: 0xD3391, size: 0x8, addend: 0x0, symName: '__ZN5alloc11collections5btree4node119NodeRef$LT$alloc..collections..btree..node..marker..Mut$C$K$C$V$C$alloc..collections..btree..node..marker..Internal$GT$4push17h114ffe24e88ddeb8E', symObjAddr: 0x2D30, symBinAddr: 0x2AB5C, symSize: 0x334 }
  - { offset: 0xD3B97, size: 0x8, addend: 0x0, symName: '__ZN5alloc11collections5btree4node119NodeRef$LT$alloc..collections..btree..node..marker..Mut$C$K$C$V$C$alloc..collections..btree..node..marker..Internal$GT$4push17h186810cd8a9c1c39E', symObjAddr: 0x3064, symBinAddr: 0x2AE90, symSize: 0x2F8 }
  - { offset: 0xD4393, size: 0x8, addend: 0x0, symName: '__ZN5alloc11collections5btree4node119NodeRef$LT$alloc..collections..btree..node..marker..Mut$C$K$C$V$C$alloc..collections..btree..node..marker..Internal$GT$4push17h267a798c8a02ebc7E', symObjAddr: 0x335C, symBinAddr: 0x2B188, symSize: 0x348 }
  - { offset: 0xD4BED, size: 0x8, addend: 0x0, symName: '__ZN5alloc11collections5btree4node119NodeRef$LT$alloc..collections..btree..node..marker..Mut$C$K$C$V$C$alloc..collections..btree..node..marker..Internal$GT$4push17h3217330563030d93E', symObjAddr: 0x36A4, symBinAddr: 0x2B4D0, symSize: 0x334 }
  - { offset: 0xD53BA, size: 0x8, addend: 0x0, symName: '__ZN5alloc11collections5btree4node119NodeRef$LT$alloc..collections..btree..node..marker..Mut$C$K$C$V$C$alloc..collections..btree..node..marker..Internal$GT$4push17h59bee9a38254a955E', symObjAddr: 0x39D8, symBinAddr: 0x2B804, symSize: 0x2B4 }
  - { offset: 0xD5B7F, size: 0x8, addend: 0x0, symName: '__ZN5alloc11collections5btree4node119NodeRef$LT$alloc..collections..btree..node..marker..Mut$C$K$C$V$C$alloc..collections..btree..node..marker..Internal$GT$4push17h5fcc0b4963a34d1aE', symObjAddr: 0x3C8C, symBinAddr: 0x2BAB8, symSize: 0x334 }
  - { offset: 0xD6359, size: 0x8, addend: 0x0, symName: '__ZN5alloc11collections5btree4node119NodeRef$LT$alloc..collections..btree..node..marker..Mut$C$K$C$V$C$alloc..collections..btree..node..marker..Internal$GT$4push17h7d0ccebbc0cfb385E', symObjAddr: 0x3FC0, symBinAddr: 0x2BDEC, symSize: 0x2B4 }
  - { offset: 0xD6B11, size: 0x8, addend: 0x0, symName: '__ZN5alloc11collections5btree4node119NodeRef$LT$alloc..collections..btree..node..marker..Mut$C$K$C$V$C$alloc..collections..btree..node..marker..Internal$GT$4push17h80e1574b33047c28E', symObjAddr: 0x4274, symBinAddr: 0x2C0A0, symSize: 0x318 }
  - { offset: 0xD736B, size: 0x8, addend: 0x0, symName: '__ZN5alloc11collections5btree4node119NodeRef$LT$alloc..collections..btree..node..marker..Mut$C$K$C$V$C$alloc..collections..btree..node..marker..Internal$GT$4push17h87369fb4e82f8768E', symObjAddr: 0x458C, symBinAddr: 0x2C3B8, symSize: 0x358 }
  - { offset: 0xD7B99, size: 0x8, addend: 0x0, symName: '__ZN5alloc11collections5btree4node119NodeRef$LT$alloc..collections..btree..node..marker..Mut$C$K$C$V$C$alloc..collections..btree..node..marker..Internal$GT$4push17hba4b68959eea1a30E', symObjAddr: 0x48E4, symBinAddr: 0x2C710, symSize: 0x30C }
  - { offset: 0xD836B, size: 0x8, addend: 0x0, symName: '__ZN5alloc11collections5btree4node119NodeRef$LT$alloc..collections..btree..node..marker..Mut$C$K$C$V$C$alloc..collections..btree..node..marker..Internal$GT$4push17hd769214005169fd0E', symObjAddr: 0x4BF0, symBinAddr: 0x2CA1C, symSize: 0x34C }
  - { offset: 0xD88B0, size: 0x8, addend: 0x0, symName: '__ZN5alloc11collections5btree4node121NodeRef$LT$alloc..collections..btree..node..marker..Owned$C$K$C$V$C$alloc..collections..btree..node..marker..Internal$GT$12new_internal17h05e81ec0c0d46b90E', symObjAddr: 0x4F3C, symBinAddr: 0x2CD68, symSize: 0xF8 }
  - { offset: 0xD89D7, size: 0x8, addend: 0x0, symName: '__ZN5alloc11collections5btree4node121NodeRef$LT$alloc..collections..btree..node..marker..Owned$C$K$C$V$C$alloc..collections..btree..node..marker..Internal$GT$12new_internal17h08faa24bb4997ebeE', symObjAddr: 0x5034, symBinAddr: 0x2CE60, symSize: 0xF8 }
  - { offset: 0xD8AFE, size: 0x8, addend: 0x0, symName: '__ZN5alloc11collections5btree4node121NodeRef$LT$alloc..collections..btree..node..marker..Owned$C$K$C$V$C$alloc..collections..btree..node..marker..Internal$GT$12new_internal17h18b38d563327f5b0E', symObjAddr: 0x512C, symBinAddr: 0x2CF58, symSize: 0xF8 }
  - { offset: 0xD8C25, size: 0x8, addend: 0x0, symName: '__ZN5alloc11collections5btree4node121NodeRef$LT$alloc..collections..btree..node..marker..Owned$C$K$C$V$C$alloc..collections..btree..node..marker..Internal$GT$12new_internal17h311564bf49fa4f91E', symObjAddr: 0x5224, symBinAddr: 0x2D050, symSize: 0xF8 }
  - { offset: 0xD8D4C, size: 0x8, addend: 0x0, symName: '__ZN5alloc11collections5btree4node121NodeRef$LT$alloc..collections..btree..node..marker..Owned$C$K$C$V$C$alloc..collections..btree..node..marker..Internal$GT$12new_internal17h5384ddfd1fde2995E', symObjAddr: 0x531C, symBinAddr: 0x2D148, symSize: 0xF8 }
  - { offset: 0xD8E73, size: 0x8, addend: 0x0, symName: '__ZN5alloc11collections5btree4node121NodeRef$LT$alloc..collections..btree..node..marker..Owned$C$K$C$V$C$alloc..collections..btree..node..marker..Internal$GT$12new_internal17h5a477d377e62209aE', symObjAddr: 0x5414, symBinAddr: 0x2D240, symSize: 0xF8 }
  - { offset: 0xD8F9A, size: 0x8, addend: 0x0, symName: '__ZN5alloc11collections5btree4node121NodeRef$LT$alloc..collections..btree..node..marker..Owned$C$K$C$V$C$alloc..collections..btree..node..marker..Internal$GT$12new_internal17h5ef415c214c192a4E', symObjAddr: 0x550C, symBinAddr: 0x2D338, symSize: 0xF8 }
  - { offset: 0xD90C1, size: 0x8, addend: 0x0, symName: '__ZN5alloc11collections5btree4node121NodeRef$LT$alloc..collections..btree..node..marker..Owned$C$K$C$V$C$alloc..collections..btree..node..marker..Internal$GT$12new_internal17h7b30115cd88085cdE', symObjAddr: 0x5604, symBinAddr: 0x2D430, symSize: 0xF8 }
  - { offset: 0xD91E8, size: 0x8, addend: 0x0, symName: '__ZN5alloc11collections5btree4node121NodeRef$LT$alloc..collections..btree..node..marker..Owned$C$K$C$V$C$alloc..collections..btree..node..marker..Internal$GT$12new_internal17ha9e096597e62bb3cE', symObjAddr: 0x56FC, symBinAddr: 0x2D528, symSize: 0xF8 }
  - { offset: 0xD930F, size: 0x8, addend: 0x0, symName: '__ZN5alloc11collections5btree4node121NodeRef$LT$alloc..collections..btree..node..marker..Owned$C$K$C$V$C$alloc..collections..btree..node..marker..Internal$GT$12new_internal17hee2c9251c9999297E', symObjAddr: 0x57F4, symBinAddr: 0x2D620, symSize: 0xF8 }
  - { offset: 0xD9436, size: 0x8, addend: 0x0, symName: '__ZN5alloc11collections5btree4node121NodeRef$LT$alloc..collections..btree..node..marker..Owned$C$K$C$V$C$alloc..collections..btree..node..marker..Internal$GT$12new_internal17hf57aa81fa96b44c1E', symObjAddr: 0x58EC, symBinAddr: 0x2D718, symSize: 0xF8 }
  - { offset: 0xD9658, size: 0x8, addend: 0x0, symName: '__ZN5alloc11collections5btree4node121NodeRef$LT$alloc..collections..btree..node..marker..Owned$C$K$C$V$C$alloc..collections..btree..node..marker..Internal$GT$17from_new_internal17h0440d8032fb736feE', symObjAddr: 0x59E4, symBinAddr: 0x2D810, symSize: 0xC8 }
  - { offset: 0xD9971, size: 0x8, addend: 0x0, symName: '__ZN5alloc11collections5btree4node121NodeRef$LT$alloc..collections..btree..node..marker..Owned$C$K$C$V$C$alloc..collections..btree..node..marker..Internal$GT$17from_new_internal17h30e2b60fc673e643E', symObjAddr: 0x5AAC, symBinAddr: 0x2D8D8, symSize: 0xC8 }
  - { offset: 0xD9C8A, size: 0x8, addend: 0x0, symName: '__ZN5alloc11collections5btree4node121NodeRef$LT$alloc..collections..btree..node..marker..Owned$C$K$C$V$C$alloc..collections..btree..node..marker..Internal$GT$17from_new_internal17h36b33a3192d3eaf0E', symObjAddr: 0x5B74, symBinAddr: 0x2D9A0, symSize: 0xC8 }
  - { offset: 0xD9FA3, size: 0x8, addend: 0x0, symName: '__ZN5alloc11collections5btree4node121NodeRef$LT$alloc..collections..btree..node..marker..Owned$C$K$C$V$C$alloc..collections..btree..node..marker..Internal$GT$17from_new_internal17h3c2d1aca65fa5f51E', symObjAddr: 0x5C3C, symBinAddr: 0x2DA68, symSize: 0xC8 }
  - { offset: 0xDA2BC, size: 0x8, addend: 0x0, symName: '__ZN5alloc11collections5btree4node121NodeRef$LT$alloc..collections..btree..node..marker..Owned$C$K$C$V$C$alloc..collections..btree..node..marker..Internal$GT$17from_new_internal17h4c93fd2a8ea5ad2dE', symObjAddr: 0x5D04, symBinAddr: 0x2DB30, symSize: 0xC8 }
  - { offset: 0xDA5D5, size: 0x8, addend: 0x0, symName: '__ZN5alloc11collections5btree4node121NodeRef$LT$alloc..collections..btree..node..marker..Owned$C$K$C$V$C$alloc..collections..btree..node..marker..Internal$GT$17from_new_internal17h898f9cd4228fd74dE', symObjAddr: 0x5DCC, symBinAddr: 0x2DBF8, symSize: 0xC8 }
  - { offset: 0xDA8EE, size: 0x8, addend: 0x0, symName: '__ZN5alloc11collections5btree4node121NodeRef$LT$alloc..collections..btree..node..marker..Owned$C$K$C$V$C$alloc..collections..btree..node..marker..Internal$GT$17from_new_internal17h90d98cbe65a79f9dE', symObjAddr: 0x5E94, symBinAddr: 0x2DCC0, symSize: 0xC8 }
  - { offset: 0xDAC07, size: 0x8, addend: 0x0, symName: '__ZN5alloc11collections5btree4node121NodeRef$LT$alloc..collections..btree..node..marker..Owned$C$K$C$V$C$alloc..collections..btree..node..marker..Internal$GT$17from_new_internal17h9350363bb448159bE', symObjAddr: 0x5F5C, symBinAddr: 0x2DD88, symSize: 0xC8 }
  - { offset: 0xDAF20, size: 0x8, addend: 0x0, symName: '__ZN5alloc11collections5btree4node121NodeRef$LT$alloc..collections..btree..node..marker..Owned$C$K$C$V$C$alloc..collections..btree..node..marker..Internal$GT$17from_new_internal17hb040ca21a6f40001E', symObjAddr: 0x6024, symBinAddr: 0x2DE50, symSize: 0xC8 }
  - { offset: 0xDB239, size: 0x8, addend: 0x0, symName: '__ZN5alloc11collections5btree4node121NodeRef$LT$alloc..collections..btree..node..marker..Owned$C$K$C$V$C$alloc..collections..btree..node..marker..Internal$GT$17from_new_internal17hb2939dbf65719e91E', symObjAddr: 0x60EC, symBinAddr: 0x2DF18, symSize: 0xC8 }
  - { offset: 0xDB552, size: 0x8, addend: 0x0, symName: '__ZN5alloc11collections5btree4node121NodeRef$LT$alloc..collections..btree..node..marker..Owned$C$K$C$V$C$alloc..collections..btree..node..marker..Internal$GT$17from_new_internal17hc3696b6aa01d7195E', symObjAddr: 0x61B4, symBinAddr: 0x2DFE0, symSize: 0xC8 }
  - { offset: 0xDB791, size: 0x8, addend: 0x0, symName: '__ZN5alloc11collections5btree4node127NodeRef$LT$alloc..collections..btree..node..marker..Dying$C$K$C$V$C$alloc..collections..btree..node..marker..LeafOrInternal$GT$21deallocate_and_ascend17h394f227e0d5392caE', symObjAddr: 0x627C, symBinAddr: 0x2E0A8, symSize: 0xFC }
  - { offset: 0xDB8DC, size: 0x8, addend: 0x0, symName: '__ZN5alloc11collections5btree4node127NodeRef$LT$alloc..collections..btree..node..marker..Dying$C$K$C$V$C$alloc..collections..btree..node..marker..LeafOrInternal$GT$21deallocate_and_ascend17h4a4a8fc87d4dff26E', symObjAddr: 0x6378, symBinAddr: 0x2E1A4, symSize: 0xFC }
  - { offset: 0xDBA27, size: 0x8, addend: 0x0, symName: '__ZN5alloc11collections5btree4node127NodeRef$LT$alloc..collections..btree..node..marker..Dying$C$K$C$V$C$alloc..collections..btree..node..marker..LeafOrInternal$GT$21deallocate_and_ascend17h6472e247f7b1c976E', symObjAddr: 0x6474, symBinAddr: 0x2E2A0, symSize: 0xFC }
  - { offset: 0xDBB72, size: 0x8, addend: 0x0, symName: '__ZN5alloc11collections5btree4node127NodeRef$LT$alloc..collections..btree..node..marker..Dying$C$K$C$V$C$alloc..collections..btree..node..marker..LeafOrInternal$GT$21deallocate_and_ascend17h67029c4c6ce30e2fE', symObjAddr: 0x6570, symBinAddr: 0x2E39C, symSize: 0xFC }
  - { offset: 0xDBCBD, size: 0x8, addend: 0x0, symName: '__ZN5alloc11collections5btree4node127NodeRef$LT$alloc..collections..btree..node..marker..Dying$C$K$C$V$C$alloc..collections..btree..node..marker..LeafOrInternal$GT$21deallocate_and_ascend17h6e2af3218e40bb89E', symObjAddr: 0x666C, symBinAddr: 0x2E498, symSize: 0xFC }
  - { offset: 0xDBE08, size: 0x8, addend: 0x0, symName: '__ZN5alloc11collections5btree4node127NodeRef$LT$alloc..collections..btree..node..marker..Dying$C$K$C$V$C$alloc..collections..btree..node..marker..LeafOrInternal$GT$21deallocate_and_ascend17h9824d073b17a2233E', symObjAddr: 0x6768, symBinAddr: 0x2E594, symSize: 0xFC }
  - { offset: 0xDBF53, size: 0x8, addend: 0x0, symName: '__ZN5alloc11collections5btree4node127NodeRef$LT$alloc..collections..btree..node..marker..Dying$C$K$C$V$C$alloc..collections..btree..node..marker..LeafOrInternal$GT$21deallocate_and_ascend17ha96d6cddd6e356c6E', symObjAddr: 0x6864, symBinAddr: 0x2E690, symSize: 0xFC }
  - { offset: 0xDC09E, size: 0x8, addend: 0x0, symName: '__ZN5alloc11collections5btree4node127NodeRef$LT$alloc..collections..btree..node..marker..Dying$C$K$C$V$C$alloc..collections..btree..node..marker..LeafOrInternal$GT$21deallocate_and_ascend17hc34d92096182e398E', symObjAddr: 0x6960, symBinAddr: 0x2E78C, symSize: 0xFC }
  - { offset: 0xDC1E9, size: 0x8, addend: 0x0, symName: '__ZN5alloc11collections5btree4node127NodeRef$LT$alloc..collections..btree..node..marker..Dying$C$K$C$V$C$alloc..collections..btree..node..marker..LeafOrInternal$GT$21deallocate_and_ascend17hc896f351e3c00ba7E', symObjAddr: 0x6A5C, symBinAddr: 0x2E888, symSize: 0xFC }
  - { offset: 0xDC334, size: 0x8, addend: 0x0, symName: '__ZN5alloc11collections5btree4node127NodeRef$LT$alloc..collections..btree..node..marker..Dying$C$K$C$V$C$alloc..collections..btree..node..marker..LeafOrInternal$GT$21deallocate_and_ascend17hd4b0ab67ded6b88aE', symObjAddr: 0x6B58, symBinAddr: 0x2E984, symSize: 0xFC }
  - { offset: 0xDC47F, size: 0x8, addend: 0x0, symName: '__ZN5alloc11collections5btree4node127NodeRef$LT$alloc..collections..btree..node..marker..Dying$C$K$C$V$C$alloc..collections..btree..node..marker..LeafOrInternal$GT$21deallocate_and_ascend17hfdfcaef960faaf73E', symObjAddr: 0x6C54, symBinAddr: 0x2EA80, symSize: 0xFC }
  - { offset: 0xDC5A3, size: 0x8, addend: 0x0, symName: '__ZN5alloc11collections5btree4node127NodeRef$LT$alloc..collections..btree..node..marker..Owned$C$K$C$V$C$alloc..collections..btree..node..marker..LeafOrInternal$GT$3new17h410bcd0c5363b55cE', symObjAddr: 0x6F8C, symBinAddr: 0x2EDB8, symSize: 0x2C }
  - { offset: 0xDC62C, size: 0x8, addend: 0x0, symName: '__ZN5alloc11collections5btree4node127NodeRef$LT$alloc..collections..btree..node..marker..Owned$C$K$C$V$C$alloc..collections..btree..node..marker..LeafOrInternal$GT$3new17h6624635f7c1e55cfE', symObjAddr: 0x6FB8, symBinAddr: 0x2EDE4, symSize: 0x2C }
  - { offset: 0xDC6B5, size: 0x8, addend: 0x0, symName: '__ZN5alloc11collections5btree4node127NodeRef$LT$alloc..collections..btree..node..marker..Owned$C$K$C$V$C$alloc..collections..btree..node..marker..LeafOrInternal$GT$3new17ha15d72de77d95504E', symObjAddr: 0x6FE4, symBinAddr: 0x2EE10, symSize: 0x2C }
  - { offset: 0xDC73E, size: 0x8, addend: 0x0, symName: '__ZN5alloc11collections5btree4node127NodeRef$LT$alloc..collections..btree..node..marker..Owned$C$K$C$V$C$alloc..collections..btree..node..marker..LeafOrInternal$GT$3new17hf892c96388baf463E', symObjAddr: 0x7010, symBinAddr: 0x2EE3C, symSize: 0x2C }
  - { offset: 0xDCBEB, size: 0x8, addend: 0x0, symName: '__ZN5alloc11collections5btree4node171Handle$LT$alloc..collections..btree..node..NodeRef$LT$alloc..collections..btree..node..marker..Mut$C$K$C$V$C$NodeType$GT$$C$alloc..collections..btree..node..marker..KV$GT$10replace_kv17h1736b31e5ccc6acaE', symObjAddr: 0x91AC, symBinAddr: 0x30FD8, symSize: 0xDC }
  - { offset: 0xDCCEE, size: 0x8, addend: 0x0, symName: '__ZN5alloc11collections5btree4node171Handle$LT$alloc..collections..btree..node..NodeRef$LT$alloc..collections..btree..node..marker..Mut$C$K$C$V$C$NodeType$GT$$C$alloc..collections..btree..node..marker..KV$GT$10replace_kv17h815e306366ee6cd5E', symObjAddr: 0x9288, symBinAddr: 0x310B4, symSize: 0xF8 }
  - { offset: 0xDCDD4, size: 0x8, addend: 0x0, symName: '__ZN5alloc11collections5btree4node171Handle$LT$alloc..collections..btree..node..NodeRef$LT$alloc..collections..btree..node..marker..Mut$C$K$C$V$C$NodeType$GT$$C$alloc..collections..btree..node..marker..KV$GT$10replace_kv17haceef368c01bed9dE', symObjAddr: 0x9380, symBinAddr: 0x311AC, symSize: 0x74 }
  - { offset: 0xDCEFA, size: 0x8, addend: 0x0, symName: '__ZN5alloc11collections5btree4node171Handle$LT$alloc..collections..btree..node..NodeRef$LT$alloc..collections..btree..node..marker..Mut$C$K$C$V$C$NodeType$GT$$C$alloc..collections..btree..node..marker..KV$GT$12into_val_mut17h08ea5e2e315a7c18E', symObjAddr: 0x93F4, symBinAddr: 0x31220, symSize: 0x80 }
  - { offset: 0xDD083, size: 0x8, addend: 0x0, symName: '__ZN5alloc11collections5btree4node171Handle$LT$alloc..collections..btree..node..NodeRef$LT$alloc..collections..btree..node..marker..Mut$C$K$C$V$C$NodeType$GT$$C$alloc..collections..btree..node..marker..KV$GT$12into_val_mut17h0f617e35deb26642E', symObjAddr: 0x9474, symBinAddr: 0x312A0, symSize: 0x94 }
  - { offset: 0xDD1E2, size: 0x8, addend: 0x0, symName: '__ZN5alloc11collections5btree4node171Handle$LT$alloc..collections..btree..node..NodeRef$LT$alloc..collections..btree..node..marker..Mut$C$K$C$V$C$NodeType$GT$$C$alloc..collections..btree..node..marker..KV$GT$12into_val_mut17h255881934312a369E', symObjAddr: 0x9508, symBinAddr: 0x31334, symSize: 0x94 }
  - { offset: 0xDD34E, size: 0x8, addend: 0x0, symName: '__ZN5alloc11collections5btree4node171Handle$LT$alloc..collections..btree..node..NodeRef$LT$alloc..collections..btree..node..marker..Mut$C$K$C$V$C$NodeType$GT$$C$alloc..collections..btree..node..marker..KV$GT$12into_val_mut17h5c4bafd9a5b9394eE', symObjAddr: 0x959C, symBinAddr: 0x313C8, symSize: 0x88 }
  - { offset: 0xDD4BD, size: 0x8, addend: 0x0, symName: '__ZN5alloc11collections5btree4node171Handle$LT$alloc..collections..btree..node..NodeRef$LT$alloc..collections..btree..node..marker..Mut$C$K$C$V$C$NodeType$GT$$C$alloc..collections..btree..node..marker..KV$GT$12into_val_mut17h8eeca225ef05754dE', symObjAddr: 0x9624, symBinAddr: 0x31450, symSize: 0x80 }
  - { offset: 0xDD639, size: 0x8, addend: 0x0, symName: '__ZN5alloc11collections5btree4node171Handle$LT$alloc..collections..btree..node..NodeRef$LT$alloc..collections..btree..node..marker..Mut$C$K$C$V$C$NodeType$GT$$C$alloc..collections..btree..node..marker..KV$GT$12into_val_mut17hbf9640d07a7515cdE', symObjAddr: 0x96A4, symBinAddr: 0x314D0, symSize: 0x94 }
  - { offset: 0xDD7A5, size: 0x8, addend: 0x0, symName: '__ZN5alloc11collections5btree4node171Handle$LT$alloc..collections..btree..node..NodeRef$LT$alloc..collections..btree..node..marker..Mut$C$K$C$V$C$NodeType$GT$$C$alloc..collections..btree..node..marker..KV$GT$12into_val_mut17hca3351b6e8b71abcE', symObjAddr: 0x9738, symBinAddr: 0x31564, symSize: 0x94 }
  - { offset: 0xDD911, size: 0x8, addend: 0x0, symName: '__ZN5alloc11collections5btree4node171Handle$LT$alloc..collections..btree..node..NodeRef$LT$alloc..collections..btree..node..marker..Mut$C$K$C$V$C$NodeType$GT$$C$alloc..collections..btree..node..marker..KV$GT$12into_val_mut17hded51b231dbf538fE', symObjAddr: 0x97CC, symBinAddr: 0x315F8, symSize: 0x94 }
  - { offset: 0xDDA70, size: 0x8, addend: 0x0, symName: '__ZN5alloc11collections5btree4node171Handle$LT$alloc..collections..btree..node..NodeRef$LT$alloc..collections..btree..node..marker..Mut$C$K$C$V$C$NodeType$GT$$C$alloc..collections..btree..node..marker..KV$GT$12into_val_mut17he3650019646ada88E', symObjAddr: 0x9860, symBinAddr: 0x3168C, symSize: 0x8C }
  - { offset: 0xDDBDC, size: 0x8, addend: 0x0, symName: '__ZN5alloc11collections5btree4node171Handle$LT$alloc..collections..btree..node..NodeRef$LT$alloc..collections..btree..node..marker..Mut$C$K$C$V$C$NodeType$GT$$C$alloc..collections..btree..node..marker..KV$GT$12into_val_mut17heb5a8fbe7a17d96dE', symObjAddr: 0x98EC, symBinAddr: 0x31718, symSize: 0x80 }
  - { offset: 0xDDD58, size: 0x8, addend: 0x0, symName: '__ZN5alloc11collections5btree4node171Handle$LT$alloc..collections..btree..node..NodeRef$LT$alloc..collections..btree..node..marker..Mut$C$K$C$V$C$NodeType$GT$$C$alloc..collections..btree..node..marker..KV$GT$12into_val_mut17hf1d7ea251ca36f30E', symObjAddr: 0x996C, symBinAddr: 0x31798, symSize: 0x94 }
  - { offset: 0xDDEC4, size: 0x8, addend: 0x0, symName: '__ZN5alloc11collections5btree4node171Handle$LT$alloc..collections..btree..node..NodeRef$LT$alloc..collections..btree..node..marker..Mut$C$K$C$V$C$NodeType$GT$$C$alloc..collections..btree..node..marker..KV$GT$12into_val_mut17hf43f5a1ef3050367E', symObjAddr: 0x9A00, symBinAddr: 0x3182C, symSize: 0x80 }
  - { offset: 0xDE289, size: 0x8, addend: 0x0, symName: '__ZN5alloc11collections5btree4node171Handle$LT$alloc..collections..btree..node..NodeRef$LT$alloc..collections..btree..node..marker..Mut$C$K$C$V$C$NodeType$GT$$C$alloc..collections..btree..node..marker..KV$GT$15split_leaf_data17h09ff5c5335ec1df7E', symObjAddr: 0x9A80, symBinAddr: 0x318AC, symSize: 0x400 }
  - { offset: 0xDED1A, size: 0x8, addend: 0x0, symName: '__ZN5alloc11collections5btree4node171Handle$LT$alloc..collections..btree..node..NodeRef$LT$alloc..collections..btree..node..marker..Mut$C$K$C$V$C$NodeType$GT$$C$alloc..collections..btree..node..marker..KV$GT$15split_leaf_data17h0b6fc1213097485cE', symObjAddr: 0x9E80, symBinAddr: 0x31CAC, symSize: 0x3F8 }
  - { offset: 0xDF7FD, size: 0x8, addend: 0x0, symName: '__ZN5alloc11collections5btree4node171Handle$LT$alloc..collections..btree..node..NodeRef$LT$alloc..collections..btree..node..marker..Mut$C$K$C$V$C$NodeType$GT$$C$alloc..collections..btree..node..marker..KV$GT$15split_leaf_data17h2f154c2fe393edaaE', symObjAddr: 0xA278, symBinAddr: 0x320A4, symSize: 0x3B8 }
  - { offset: 0xE02E0, size: 0x8, addend: 0x0, symName: '__ZN5alloc11collections5btree4node171Handle$LT$alloc..collections..btree..node..NodeRef$LT$alloc..collections..btree..node..marker..Mut$C$K$C$V$C$NodeType$GT$$C$alloc..collections..btree..node..marker..KV$GT$15split_leaf_data17h39f6e86316497f27E', symObjAddr: 0xA630, symBinAddr: 0x3245C, symSize: 0x3A8 }
  - { offset: 0xE0D38, size: 0x8, addend: 0x0, symName: '__ZN5alloc11collections5btree4node171Handle$LT$alloc..collections..btree..node..NodeRef$LT$alloc..collections..btree..node..marker..Mut$C$K$C$V$C$NodeType$GT$$C$alloc..collections..btree..node..marker..KV$GT$15split_leaf_data17h4570888c0c26436eE', symObjAddr: 0xA9D8, symBinAddr: 0x32804, symSize: 0x360 }
  - { offset: 0xE1790, size: 0x8, addend: 0x0, symName: '__ZN5alloc11collections5btree4node171Handle$LT$alloc..collections..btree..node..NodeRef$LT$alloc..collections..btree..node..marker..Mut$C$K$C$V$C$NodeType$GT$$C$alloc..collections..btree..node..marker..KV$GT$15split_leaf_data17h75378e77785c44d5E', symObjAddr: 0xAD38, symBinAddr: 0x32B64, symSize: 0x3E0 }
  - { offset: 0xE223B, size: 0x8, addend: 0x0, symName: '__ZN5alloc11collections5btree4node171Handle$LT$alloc..collections..btree..node..NodeRef$LT$alloc..collections..btree..node..marker..Mut$C$K$C$V$C$NodeType$GT$$C$alloc..collections..btree..node..marker..KV$GT$15split_leaf_data17h8d5fcbd420aaba00E', symObjAddr: 0xB118, symBinAddr: 0x32F44, symSize: 0x3B8 }
  - { offset: 0xE2D38, size: 0x8, addend: 0x0, symName: '__ZN5alloc11collections5btree4node171Handle$LT$alloc..collections..btree..node..NodeRef$LT$alloc..collections..btree..node..marker..Mut$C$K$C$V$C$NodeType$GT$$C$alloc..collections..btree..node..marker..KV$GT$15split_leaf_data17ha52e14c1e4dcbad3E', symObjAddr: 0xB4D0, symBinAddr: 0x332FC, symSize: 0x3BC }
  - { offset: 0xE37E3, size: 0x8, addend: 0x0, symName: '__ZN5alloc11collections5btree4node171Handle$LT$alloc..collections..btree..node..NodeRef$LT$alloc..collections..btree..node..marker..Mut$C$K$C$V$C$NodeType$GT$$C$alloc..collections..btree..node..marker..KV$GT$15split_leaf_data17hb02dc0dac09fbb15E', symObjAddr: 0xB88C, symBinAddr: 0x336B8, symSize: 0x3E0 }
  - { offset: 0xE42A8, size: 0x8, addend: 0x0, symName: '__ZN5alloc11collections5btree4node171Handle$LT$alloc..collections..btree..node..NodeRef$LT$alloc..collections..btree..node..marker..Mut$C$K$C$V$C$NodeType$GT$$C$alloc..collections..btree..node..marker..KV$GT$15split_leaf_data17hc2cbdbfff4574be5E', symObjAddr: 0xBC6C, symBinAddr: 0x33A98, symSize: 0x3CC }
  - { offset: 0xE4D53, size: 0x8, addend: 0x0, symName: '__ZN5alloc11collections5btree4node171Handle$LT$alloc..collections..btree..node..NodeRef$LT$alloc..collections..btree..node..marker..Mut$C$K$C$V$C$NodeType$GT$$C$alloc..collections..btree..node..marker..KV$GT$15split_leaf_data17hc307679c7e1c83f7E', symObjAddr: 0xC038, symBinAddr: 0x33E64, symSize: 0x3CC }
  - { offset: 0xE57FE, size: 0x8, addend: 0x0, symName: '__ZN5alloc11collections5btree4node171Handle$LT$alloc..collections..btree..node..NodeRef$LT$alloc..collections..btree..node..marker..Mut$C$K$C$V$C$NodeType$GT$$C$alloc..collections..btree..node..marker..KV$GT$15split_leaf_data17hc37b63b4c08f78c9E', symObjAddr: 0xC404, symBinAddr: 0x34230, symSize: 0x400 }
  - { offset: 0xE62A9, size: 0x8, addend: 0x0, symName: '__ZN5alloc11collections5btree4node171Handle$LT$alloc..collections..btree..node..NodeRef$LT$alloc..collections..btree..node..marker..Mut$C$K$C$V$C$NodeType$GT$$C$alloc..collections..btree..node..marker..KV$GT$15split_leaf_data17hc84204fd78e76024E', symObjAddr: 0xC804, symBinAddr: 0x34630, symSize: 0x3BC }
  - { offset: 0xE6D54, size: 0x8, addend: 0x0, symName: '__ZN5alloc11collections5btree4node171Handle$LT$alloc..collections..btree..node..NodeRef$LT$alloc..collections..btree..node..marker..Mut$C$K$C$V$C$NodeType$GT$$C$alloc..collections..btree..node..marker..KV$GT$15split_leaf_data17hca3307b7bc54b356E', symObjAddr: 0xCBC0, symBinAddr: 0x349EC, symSize: 0x3A8 }
  - { offset: 0xE773C, size: 0x8, addend: 0x0, symName: '__ZN5alloc11collections5btree4node171Handle$LT$alloc..collections..btree..node..NodeRef$LT$alloc..collections..btree..node..marker..Mut$C$K$C$V$C$NodeType$GT$$C$alloc..collections..btree..node..marker..KV$GT$15split_leaf_data17he04ed2925598b52cE', symObjAddr: 0xCF68, symBinAddr: 0x34D94, symSize: 0x3F8 }
  - { offset: 0xE81E7, size: 0x8, addend: 0x0, symName: '__ZN5alloc11collections5btree4node171Handle$LT$alloc..collections..btree..node..NodeRef$LT$alloc..collections..btree..node..marker..Mut$C$K$C$V$C$NodeType$GT$$C$alloc..collections..btree..node..marker..KV$GT$15split_leaf_data17hed226ac9a1a5b0ecE', symObjAddr: 0xD360, symBinAddr: 0x3518C, symSize: 0x360 }
  - { offset: 0xE8A73, size: 0x8, addend: 0x0, symName: '__ZN5alloc11collections5btree4node171Handle$LT$alloc..collections..btree..node..NodeRef$LT$alloc..collections..btree..node..marker..Mut$C$K$C$V$C$NodeType$GT$$C$alloc..collections..btree..node..marker..KV$GT$6kv_mut17h2ad3ee3c195a0443E', symObjAddr: 0xD6C0, symBinAddr: 0x354EC, symSize: 0xF8 }
  - { offset: 0xE8D0C, size: 0x8, addend: 0x0, symName: '__ZN5alloc11collections5btree4node171Handle$LT$alloc..collections..btree..node..NodeRef$LT$alloc..collections..btree..node..marker..Mut$C$K$C$V$C$NodeType$GT$$C$alloc..collections..btree..node..marker..KV$GT$6kv_mut17h5f3f4d9cff050638E', symObjAddr: 0xD7B8, symBinAddr: 0x355E4, symSize: 0xF0 }
  - { offset: 0xE8F8B, size: 0x8, addend: 0x0, symName: '__ZN5alloc11collections5btree4node171Handle$LT$alloc..collections..btree..node..NodeRef$LT$alloc..collections..btree..node..marker..Mut$C$K$C$V$C$NodeType$GT$$C$alloc..collections..btree..node..marker..KV$GT$6kv_mut17h7f2ff4c3936c2108E', symObjAddr: 0xD8A8, symBinAddr: 0x356D4, symSize: 0xF0 }
  - { offset: 0xE920A, size: 0x8, addend: 0x0, symName: '__ZN5alloc11collections5btree4node171Handle$LT$alloc..collections..btree..node..NodeRef$LT$alloc..collections..btree..node..marker..Mut$C$K$C$V$C$NodeType$GT$$C$alloc..collections..btree..node..marker..KV$GT$6kv_mut17h7f5cdc065e08aa3eE', symObjAddr: 0xD998, symBinAddr: 0x357C4, symSize: 0xF0 }
  - { offset: 0xE94A3, size: 0x8, addend: 0x0, symName: '__ZN5alloc11collections5btree4node171Handle$LT$alloc..collections..btree..node..NodeRef$LT$alloc..collections..btree..node..marker..Mut$C$K$C$V$C$NodeType$GT$$C$alloc..collections..btree..node..marker..KV$GT$6kv_mut17h89515f0c271185beE', symObjAddr: 0xDA88, symBinAddr: 0x358B4, symSize: 0xE8 }
  - { offset: 0xE9722, size: 0x8, addend: 0x0, symName: '__ZN5alloc11collections5btree4node171Handle$LT$alloc..collections..btree..node..NodeRef$LT$alloc..collections..btree..node..marker..Mut$C$K$C$V$C$NodeType$GT$$C$alloc..collections..btree..node..marker..KV$GT$6kv_mut17h9463784e7528443bE', symObjAddr: 0xDB70, symBinAddr: 0x3599C, symSize: 0xE8 }
  - { offset: 0xE99BB, size: 0x8, addend: 0x0, symName: '__ZN5alloc11collections5btree4node171Handle$LT$alloc..collections..btree..node..NodeRef$LT$alloc..collections..btree..node..marker..Mut$C$K$C$V$C$NodeType$GT$$C$alloc..collections..btree..node..marker..KV$GT$6kv_mut17hd429839cd2a7b613E', symObjAddr: 0xDC58, symBinAddr: 0x35A84, symSize: 0xE8 }
  - { offset: 0xE9C38, size: 0x8, addend: 0x0, symName: '__ZN5alloc11collections5btree4node171Handle$LT$alloc..collections..btree..node..NodeRef$LT$alloc..collections..btree..node..marker..Mut$C$K$C$V$C$NodeType$GT$$C$alloc..collections..btree..node..marker..KV$GT$6kv_mut17he5f1bf234fb260f5E', symObjAddr: 0xDD40, symBinAddr: 0x35B6C, symSize: 0xF8 }
  - { offset: 0xE9ED1, size: 0x8, addend: 0x0, symName: '__ZN5alloc11collections5btree4node171Handle$LT$alloc..collections..btree..node..NodeRef$LT$alloc..collections..btree..node..marker..Mut$C$K$C$V$C$NodeType$GT$$C$alloc..collections..btree..node..marker..KV$GT$6kv_mut17hed45acbdd0302bb4E', symObjAddr: 0xDE38, symBinAddr: 0x35C64, symSize: 0xF8 }
  - { offset: 0xEA159, size: 0x8, addend: 0x0, symName: '__ZN5alloc11collections5btree4node173Handle$LT$alloc..collections..btree..node..NodeRef$LT$alloc..collections..btree..node..marker..Dying$C$K$C$V$C$NodeType$GT$$C$alloc..collections..btree..node..marker..KV$GT$12drop_key_val17h0ba3e53716c985cdE', symObjAddr: 0xDF30, symBinAddr: 0x35D5C, symSize: 0x114 }
  - { offset: 0xEA3F0, size: 0x8, addend: 0x0, symName: '__ZN5alloc11collections5btree4node173Handle$LT$alloc..collections..btree..node..NodeRef$LT$alloc..collections..btree..node..marker..Dying$C$K$C$V$C$NodeType$GT$$C$alloc..collections..btree..node..marker..KV$GT$12drop_key_val17h0c708312ec545766E', symObjAddr: 0xE044, symBinAddr: 0x35E70, symSize: 0x10C }
  - { offset: 0xEA687, size: 0x8, addend: 0x0, symName: '__ZN5alloc11collections5btree4node173Handle$LT$alloc..collections..btree..node..NodeRef$LT$alloc..collections..btree..node..marker..Dying$C$K$C$V$C$NodeType$GT$$C$alloc..collections..btree..node..marker..KV$GT$12drop_key_val17h1107ebae1df181b9E', symObjAddr: 0xE150, symBinAddr: 0x35F7C, symSize: 0x104 }
  - { offset: 0xEA91E, size: 0x8, addend: 0x0, symName: '__ZN5alloc11collections5btree4node173Handle$LT$alloc..collections..btree..node..NodeRef$LT$alloc..collections..btree..node..marker..Dying$C$K$C$V$C$NodeType$GT$$C$alloc..collections..btree..node..marker..KV$GT$12drop_key_val17h4b4287f73cb6e515E', symObjAddr: 0xE254, symBinAddr: 0x36080, symSize: 0x104 }
  - { offset: 0xEAB99, size: 0x8, addend: 0x0, symName: '__ZN5alloc11collections5btree4node173Handle$LT$alloc..collections..btree..node..NodeRef$LT$alloc..collections..btree..node..marker..Dying$C$K$C$V$C$NodeType$GT$$C$alloc..collections..btree..node..marker..KV$GT$12drop_key_val17h4db55b057baa480fE', symObjAddr: 0xE358, symBinAddr: 0x36184, symSize: 0xDC }
  - { offset: 0xEADF6, size: 0x8, addend: 0x0, symName: '__ZN5alloc11collections5btree4node173Handle$LT$alloc..collections..btree..node..NodeRef$LT$alloc..collections..btree..node..marker..Dying$C$K$C$V$C$NodeType$GT$$C$alloc..collections..btree..node..marker..KV$GT$12drop_key_val17h5089511c76239ed3E', symObjAddr: 0xE434, symBinAddr: 0x36260, symSize: 0xDC }
  - { offset: 0xEB06F, size: 0x8, addend: 0x0, symName: '__ZN5alloc11collections5btree4node173Handle$LT$alloc..collections..btree..node..NodeRef$LT$alloc..collections..btree..node..marker..Dying$C$K$C$V$C$NodeType$GT$$C$alloc..collections..btree..node..marker..KV$GT$12drop_key_val17h5cb671516c9d8eb3E', symObjAddr: 0xE510, symBinAddr: 0x3633C, symSize: 0x10C }
  - { offset: 0xEB2EA, size: 0x8, addend: 0x0, symName: '__ZN5alloc11collections5btree4node173Handle$LT$alloc..collections..btree..node..NodeRef$LT$alloc..collections..btree..node..marker..Dying$C$K$C$V$C$NodeType$GT$$C$alloc..collections..btree..node..marker..KV$GT$12drop_key_val17h63b8b071fb9a9cb4E', symObjAddr: 0xE61C, symBinAddr: 0x36448, symSize: 0xDC }
  - { offset: 0xEB563, size: 0x8, addend: 0x0, symName: '__ZN5alloc11collections5btree4node173Handle$LT$alloc..collections..btree..node..NodeRef$LT$alloc..collections..btree..node..marker..Dying$C$K$C$V$C$NodeType$GT$$C$alloc..collections..btree..node..marker..KV$GT$12drop_key_val17h842f1eac422afde1E', symObjAddr: 0xE6F8, symBinAddr: 0x36524, symSize: 0x114 }
  - { offset: 0xEB7FA, size: 0x8, addend: 0x0, symName: '__ZN5alloc11collections5btree4node173Handle$LT$alloc..collections..btree..node..NodeRef$LT$alloc..collections..btree..node..marker..Dying$C$K$C$V$C$NodeType$GT$$C$alloc..collections..btree..node..marker..KV$GT$12drop_key_val17hc0945b7632207b66E', symObjAddr: 0xE80C, symBinAddr: 0x36638, symSize: 0x104 }
  - { offset: 0xEBA91, size: 0x8, addend: 0x0, symName: '__ZN5alloc11collections5btree4node173Handle$LT$alloc..collections..btree..node..NodeRef$LT$alloc..collections..btree..node..marker..Dying$C$K$C$V$C$NodeType$GT$$C$alloc..collections..btree..node..marker..KV$GT$12drop_key_val17hdc2efe48f87b866bE', symObjAddr: 0xE910, symBinAddr: 0x3673C, symSize: 0x114 }
  - { offset: 0xEBD0E, size: 0x8, addend: 0x0, symName: '__ZN5alloc11collections5btree4node173Handle$LT$alloc..collections..btree..node..NodeRef$LT$alloc..collections..btree..node..marker..Dying$C$K$C$V$C$NodeType$GT$$C$alloc..collections..btree..node..marker..KV$GT$12into_key_val17h24a349b19fccc53bE', symObjAddr: 0xEA24, symBinAddr: 0x36850, symSize: 0x134 }
  - { offset: 0xEC05F, size: 0x8, addend: 0x0, symName: '__ZN5alloc11collections5btree4node173Handle$LT$alloc..collections..btree..node..NodeRef$LT$alloc..collections..btree..node..marker..Dying$C$K$C$V$C$NodeType$GT$$C$alloc..collections..btree..node..marker..KV$GT$12into_key_val17h5f0cf01080be3aa2E', symObjAddr: 0xEB58, symBinAddr: 0x36984, symSize: 0x10C }
  - { offset: 0xEC38C, size: 0x8, addend: 0x0, symName: '__ZN5alloc11collections5btree4node173Handle$LT$alloc..collections..btree..node..NodeRef$LT$alloc..collections..btree..node..marker..Dying$C$K$C$V$C$NodeType$GT$$C$alloc..collections..btree..node..marker..KV$GT$12into_key_val17h9dc39ed1d4479d21E', symObjAddr: 0xEC64, symBinAddr: 0x36A90, symSize: 0x11C }
  - { offset: 0xEC7BE, size: 0x8, addend: 0x0, symName: '__ZN5alloc11collections5btree4node173Handle$LT$alloc..collections..btree..node..NodeRef$LT$alloc..collections..btree..node..marker..Immut$C$K$C$V$C$NodeType$GT$$C$alloc..collections..btree..node..marker..KV$GT$7into_kv17h055f9f83db5ac523E', symObjAddr: 0xED80, symBinAddr: 0x36BAC, symSize: 0xDC }
  - { offset: 0xECAF4, size: 0x8, addend: 0x0, symName: '__ZN5alloc11collections5btree4node173Handle$LT$alloc..collections..btree..node..NodeRef$LT$alloc..collections..btree..node..marker..Immut$C$K$C$V$C$NodeType$GT$$C$alloc..collections..btree..node..marker..KV$GT$7into_kv17h88e2fd22a21935b1E', symObjAddr: 0xEE5C, symBinAddr: 0x36C88, symSize: 0xD8 }
  - { offset: 0xECDF2, size: 0x8, addend: 0x0, symName: '__ZN5alloc11collections5btree4node173Handle$LT$alloc..collections..btree..node..NodeRef$LT$alloc..collections..btree..node..marker..Immut$C$K$C$V$C$NodeType$GT$$C$alloc..collections..btree..node..marker..KV$GT$7into_kv17h9343becd2ffb38fbE', symObjAddr: 0xEF34, symBinAddr: 0x36D60, symSize: 0xD8 }
  - { offset: 0xED16D, size: 0x8, addend: 0x0, symName: '__ZN5alloc11collections5btree4node173Handle$LT$alloc..collections..btree..node..NodeRef$LT$alloc..collections..btree..node..marker..Immut$C$K$C$V$C$NodeType$GT$$C$alloc..collections..btree..node..marker..KV$GT$7into_kv17h934401c39575c924E', symObjAddr: 0xF00C, symBinAddr: 0x36E38, symSize: 0xDC }
  - { offset: 0xED46B, size: 0x8, addend: 0x0, symName: '__ZN5alloc11collections5btree4node173Handle$LT$alloc..collections..btree..node..NodeRef$LT$alloc..collections..btree..node..marker..Immut$C$K$C$V$C$NodeType$GT$$C$alloc..collections..btree..node..marker..KV$GT$7into_kv17h95c677a0121fa46fE', symObjAddr: 0xF0E8, symBinAddr: 0x36F14, symSize: 0xDC }
  - { offset: 0xED74B, size: 0x8, addend: 0x0, symName: '__ZN5alloc11collections5btree4node173Handle$LT$alloc..collections..btree..node..NodeRef$LT$alloc..collections..btree..node..marker..Immut$C$K$C$V$C$NodeType$GT$$C$alloc..collections..btree..node..marker..KV$GT$7into_kv17ha127eb56ec902e07E', symObjAddr: 0xF1C4, symBinAddr: 0x36FF0, symSize: 0xDC }
  - { offset: 0xEDA2B, size: 0x8, addend: 0x0, symName: '__ZN5alloc11collections5btree4node173Handle$LT$alloc..collections..btree..node..NodeRef$LT$alloc..collections..btree..node..marker..Immut$C$K$C$V$C$NodeType$GT$$C$alloc..collections..btree..node..marker..KV$GT$7into_kv17ha19e516af31ab702E', symObjAddr: 0xF2A0, symBinAddr: 0x370CC, symSize: 0xDC }
  - { offset: 0xEDD8C, size: 0x8, addend: 0x0, symName: '__ZN5alloc11collections5btree4node173Handle$LT$alloc..collections..btree..node..NodeRef$LT$alloc..collections..btree..node..marker..Immut$C$K$C$V$C$NodeType$GT$$C$alloc..collections..btree..node..marker..KV$GT$7into_kv17ha6c8fbe83d554e94E', symObjAddr: 0xF37C, symBinAddr: 0x371A8, symSize: 0xDC }
  - { offset: 0xEE06C, size: 0x8, addend: 0x0, symName: '__ZN5alloc11collections5btree4node173Handle$LT$alloc..collections..btree..node..NodeRef$LT$alloc..collections..btree..node..marker..Immut$C$K$C$V$C$NodeType$GT$$C$alloc..collections..btree..node..marker..KV$GT$7into_kv17hbdc9b14824d6866bE', symObjAddr: 0xF458, symBinAddr: 0x37284, symSize: 0xDC }
  - { offset: 0xEE3A2, size: 0x8, addend: 0x0, symName: '__ZN5alloc11collections5btree4node173Handle$LT$alloc..collections..btree..node..NodeRef$LT$alloc..collections..btree..node..marker..Immut$C$K$C$V$C$NodeType$GT$$C$alloc..collections..btree..node..marker..KV$GT$7into_kv17hcb54ee212579860cE', symObjAddr: 0xF534, symBinAddr: 0x37360, symSize: 0xE0 }
  - { offset: 0xEE6D8, size: 0x8, addend: 0x0, symName: '__ZN5alloc11collections5btree4node173Handle$LT$alloc..collections..btree..node..NodeRef$LT$alloc..collections..btree..node..marker..Immut$C$K$C$V$C$NodeType$GT$$C$alloc..collections..btree..node..marker..KV$GT$7into_kv17hde6a1c3d7558a7e4E', symObjAddr: 0xF614, symBinAddr: 0x37440, symSize: 0xD8 }
  - { offset: 0xEE9B8, size: 0x8, addend: 0x0, symName: '__ZN5alloc11collections5btree4node173Handle$LT$alloc..collections..btree..node..NodeRef$LT$alloc..collections..btree..node..marker..Immut$C$K$C$V$C$NodeType$GT$$C$alloc..collections..btree..node..marker..KV$GT$7into_kv17hf1ff577a3d07ee8aE', symObjAddr: 0xF6EC, symBinAddr: 0x37518, symSize: 0xD8 }
  - { offset: 0xEECEE, size: 0x8, addend: 0x0, symName: '__ZN5alloc11collections5btree4node173Handle$LT$alloc..collections..btree..node..NodeRef$LT$alloc..collections..btree..node..marker..Immut$C$K$C$V$C$NodeType$GT$$C$alloc..collections..btree..node..marker..KV$GT$7into_kv17hf702ad318022d783E', symObjAddr: 0xF7C4, symBinAddr: 0x375F0, symSize: 0xE4 }
  - { offset: 0xEF024, size: 0x8, addend: 0x0, symName: '__ZN5alloc11collections5btree4node173Handle$LT$alloc..collections..btree..node..NodeRef$LT$alloc..collections..btree..node..marker..Immut$C$K$C$V$C$NodeType$GT$$C$alloc..collections..btree..node..marker..KV$GT$7into_kv17hfaf9739ea6368015E', symObjAddr: 0xF8A8, symBinAddr: 0x376D4, symSize: 0xD8 }
  - { offset: 0xEF2AF, size: 0x8, addend: 0x0, symName: '__ZN5alloc11collections5btree4node180Handle$LT$alloc..collections..btree..node..NodeRef$LT$BorrowType$C$K$C$V$C$alloc..collections..btree..node..marker..Internal$GT$$C$alloc..collections..btree..node..marker..Edge$GT$7descend17h0460fb9cd2cbda5bE', symObjAddr: 0xF980, symBinAddr: 0x377AC, symSize: 0x94 }
  - { offset: 0xEF4A8, size: 0x8, addend: 0x0, symName: '__ZN5alloc11collections5btree4node180Handle$LT$alloc..collections..btree..node..NodeRef$LT$BorrowType$C$K$C$V$C$alloc..collections..btree..node..marker..Internal$GT$$C$alloc..collections..btree..node..marker..Edge$GT$7descend17h1209742dad970ec4E', symObjAddr: 0xFA14, symBinAddr: 0x37840, symSize: 0x94 }
  - { offset: 0xEF669, size: 0x8, addend: 0x0, symName: '__ZN5alloc11collections5btree4node180Handle$LT$alloc..collections..btree..node..NodeRef$LT$BorrowType$C$K$C$V$C$alloc..collections..btree..node..marker..Internal$GT$$C$alloc..collections..btree..node..marker..Edge$GT$7descend17h16e5f68e082dde9dE', symObjAddr: 0xFAA8, symBinAddr: 0x378D4, symSize: 0x94 }
  - { offset: 0xEF862, size: 0x8, addend: 0x0, symName: '__ZN5alloc11collections5btree4node180Handle$LT$alloc..collections..btree..node..NodeRef$LT$BorrowType$C$K$C$V$C$alloc..collections..btree..node..marker..Internal$GT$$C$alloc..collections..btree..node..marker..Edge$GT$7descend17h23c1f35edb83a18aE', symObjAddr: 0xFB3C, symBinAddr: 0x37968, symSize: 0x94 }
  - { offset: 0xEFA5B, size: 0x8, addend: 0x0, symName: '__ZN5alloc11collections5btree4node180Handle$LT$alloc..collections..btree..node..NodeRef$LT$BorrowType$C$K$C$V$C$alloc..collections..btree..node..marker..Internal$GT$$C$alloc..collections..btree..node..marker..Edge$GT$7descend17h4f672b2094ebbccaE', symObjAddr: 0xFBD0, symBinAddr: 0x379FC, symSize: 0x94 }
  - { offset: 0xEFC0F, size: 0x8, addend: 0x0, symName: '__ZN5alloc11collections5btree4node180Handle$LT$alloc..collections..btree..node..NodeRef$LT$BorrowType$C$K$C$V$C$alloc..collections..btree..node..marker..Internal$GT$$C$alloc..collections..btree..node..marker..Edge$GT$7descend17h4fbb896b2f522323E', symObjAddr: 0xFC64, symBinAddr: 0x37A90, symSize: 0x94 }
  - { offset: 0xEFDFB, size: 0x8, addend: 0x0, symName: '__ZN5alloc11collections5btree4node180Handle$LT$alloc..collections..btree..node..NodeRef$LT$BorrowType$C$K$C$V$C$alloc..collections..btree..node..marker..Internal$GT$$C$alloc..collections..btree..node..marker..Edge$GT$7descend17h5207cbf8bc37b033E', symObjAddr: 0xFCF8, symBinAddr: 0x37B24, symSize: 0x94 }
  - { offset: 0xEFFBC, size: 0x8, addend: 0x0, symName: '__ZN5alloc11collections5btree4node180Handle$LT$alloc..collections..btree..node..NodeRef$LT$BorrowType$C$K$C$V$C$alloc..collections..btree..node..marker..Internal$GT$$C$alloc..collections..btree..node..marker..Edge$GT$7descend17h554430951449b00bE', symObjAddr: 0xFD8C, symBinAddr: 0x37BB8, symSize: 0x94 }
  - { offset: 0xF01B5, size: 0x8, addend: 0x0, symName: '__ZN5alloc11collections5btree4node180Handle$LT$alloc..collections..btree..node..NodeRef$LT$BorrowType$C$K$C$V$C$alloc..collections..btree..node..marker..Internal$GT$$C$alloc..collections..btree..node..marker..Edge$GT$7descend17h5a9cf44612c8bb7fE', symObjAddr: 0xFE20, symBinAddr: 0x37C4C, symSize: 0x94 }
  - { offset: 0xF03AE, size: 0x8, addend: 0x0, symName: '__ZN5alloc11collections5btree4node180Handle$LT$alloc..collections..btree..node..NodeRef$LT$BorrowType$C$K$C$V$C$alloc..collections..btree..node..marker..Internal$GT$$C$alloc..collections..btree..node..marker..Edge$GT$7descend17h611c9a04a0e27d49E', symObjAddr: 0xFEB4, symBinAddr: 0x37CE0, symSize: 0x94 }
  - { offset: 0xF0562, size: 0x8, addend: 0x0, symName: '__ZN5alloc11collections5btree4node180Handle$LT$alloc..collections..btree..node..NodeRef$LT$BorrowType$C$K$C$V$C$alloc..collections..btree..node..marker..Internal$GT$$C$alloc..collections..btree..node..marker..Edge$GT$7descend17h6d361d497d778a4eE', symObjAddr: 0xFF48, symBinAddr: 0x37D74, symSize: 0x94 }
  - { offset: 0xF075B, size: 0x8, addend: 0x0, symName: '__ZN5alloc11collections5btree4node180Handle$LT$alloc..collections..btree..node..NodeRef$LT$BorrowType$C$K$C$V$C$alloc..collections..btree..node..marker..Internal$GT$$C$alloc..collections..btree..node..marker..Edge$GT$7descend17h755d502b07ede26fE', symObjAddr: 0xFFDC, symBinAddr: 0x37E08, symSize: 0x94 }
  - { offset: 0xF0954, size: 0x8, addend: 0x0, symName: '__ZN5alloc11collections5btree4node180Handle$LT$alloc..collections..btree..node..NodeRef$LT$BorrowType$C$K$C$V$C$alloc..collections..btree..node..marker..Internal$GT$$C$alloc..collections..btree..node..marker..Edge$GT$7descend17h76bf3674db4b77ddE', symObjAddr: 0x10070, symBinAddr: 0x37E9C, symSize: 0x94 }
  - { offset: 0xF0B15, size: 0x8, addend: 0x0, symName: '__ZN5alloc11collections5btree4node180Handle$LT$alloc..collections..btree..node..NodeRef$LT$BorrowType$C$K$C$V$C$alloc..collections..btree..node..marker..Internal$GT$$C$alloc..collections..btree..node..marker..Edge$GT$7descend17h82acb53ab2dbebc9E', symObjAddr: 0x10104, symBinAddr: 0x37F30, symSize: 0x94 }
  - { offset: 0xF0CD6, size: 0x8, addend: 0x0, symName: '__ZN5alloc11collections5btree4node180Handle$LT$alloc..collections..btree..node..NodeRef$LT$BorrowType$C$K$C$V$C$alloc..collections..btree..node..marker..Internal$GT$$C$alloc..collections..btree..node..marker..Edge$GT$7descend17h933866c949b73cdbE', symObjAddr: 0x10198, symBinAddr: 0x37FC4, symSize: 0x94 }
  - { offset: 0xF0E8A, size: 0x8, addend: 0x0, symName: '__ZN5alloc11collections5btree4node180Handle$LT$alloc..collections..btree..node..NodeRef$LT$BorrowType$C$K$C$V$C$alloc..collections..btree..node..marker..Internal$GT$$C$alloc..collections..btree..node..marker..Edge$GT$7descend17h9c45227c54296560E', symObjAddr: 0x1022C, symBinAddr: 0x38058, symSize: 0x94 }
  - { offset: 0xF104B, size: 0x8, addend: 0x0, symName: '__ZN5alloc11collections5btree4node180Handle$LT$alloc..collections..btree..node..NodeRef$LT$BorrowType$C$K$C$V$C$alloc..collections..btree..node..marker..Internal$GT$$C$alloc..collections..btree..node..marker..Edge$GT$7descend17h9eb42b2ccc7be680E', symObjAddr: 0x102C0, symBinAddr: 0x380EC, symSize: 0x94 }
  - { offset: 0xF11FF, size: 0x8, addend: 0x0, symName: '__ZN5alloc11collections5btree4node180Handle$LT$alloc..collections..btree..node..NodeRef$LT$BorrowType$C$K$C$V$C$alloc..collections..btree..node..marker..Internal$GT$$C$alloc..collections..btree..node..marker..Edge$GT$7descend17ha805c333a9966a74E', symObjAddr: 0x10354, symBinAddr: 0x38180, symSize: 0x94 }
  - { offset: 0xF13C0, size: 0x8, addend: 0x0, symName: '__ZN5alloc11collections5btree4node180Handle$LT$alloc..collections..btree..node..NodeRef$LT$BorrowType$C$K$C$V$C$alloc..collections..btree..node..marker..Internal$GT$$C$alloc..collections..btree..node..marker..Edge$GT$7descend17hadec2c6b03775f10E', symObjAddr: 0x103E8, symBinAddr: 0x38214, symSize: 0x94 }
  - { offset: 0xF1574, size: 0x8, addend: 0x0, symName: '__ZN5alloc11collections5btree4node180Handle$LT$alloc..collections..btree..node..NodeRef$LT$BorrowType$C$K$C$V$C$alloc..collections..btree..node..marker..Internal$GT$$C$alloc..collections..btree..node..marker..Edge$GT$7descend17hb83e483a8bf7c876E', symObjAddr: 0x1047C, symBinAddr: 0x382A8, symSize: 0x94 }
  - { offset: 0xF1760, size: 0x8, addend: 0x0, symName: '__ZN5alloc11collections5btree4node180Handle$LT$alloc..collections..btree..node..NodeRef$LT$BorrowType$C$K$C$V$C$alloc..collections..btree..node..marker..Internal$GT$$C$alloc..collections..btree..node..marker..Edge$GT$7descend17hc057ee12e15a54ceE', symObjAddr: 0x10510, symBinAddr: 0x3833C, symSize: 0x94 }
  - { offset: 0xF1959, size: 0x8, addend: 0x0, symName: '__ZN5alloc11collections5btree4node180Handle$LT$alloc..collections..btree..node..NodeRef$LT$BorrowType$C$K$C$V$C$alloc..collections..btree..node..marker..Internal$GT$$C$alloc..collections..btree..node..marker..Edge$GT$7descend17hca79742445e4608aE', symObjAddr: 0x105A4, symBinAddr: 0x383D0, symSize: 0x94 }
  - { offset: 0xF1B0D, size: 0x8, addend: 0x0, symName: '__ZN5alloc11collections5btree4node180Handle$LT$alloc..collections..btree..node..NodeRef$LT$BorrowType$C$K$C$V$C$alloc..collections..btree..node..marker..Internal$GT$$C$alloc..collections..btree..node..marker..Edge$GT$7descend17hcc21db48aac7c33cE', symObjAddr: 0x10638, symBinAddr: 0x38464, symSize: 0x94 }
  - { offset: 0xF1CC1, size: 0x8, addend: 0x0, symName: '__ZN5alloc11collections5btree4node180Handle$LT$alloc..collections..btree..node..NodeRef$LT$BorrowType$C$K$C$V$C$alloc..collections..btree..node..marker..Internal$GT$$C$alloc..collections..btree..node..marker..Edge$GT$7descend17hd44f5178e33079afE', symObjAddr: 0x106CC, symBinAddr: 0x384F8, symSize: 0x94 }
  - { offset: 0xF1E75, size: 0x8, addend: 0x0, symName: '__ZN5alloc11collections5btree4node180Handle$LT$alloc..collections..btree..node..NodeRef$LT$BorrowType$C$K$C$V$C$alloc..collections..btree..node..marker..Internal$GT$$C$alloc..collections..btree..node..marker..Edge$GT$7descend17hdefbd244a9809c74E', symObjAddr: 0x10760, symBinAddr: 0x3858C, symSize: 0x94 }
  - { offset: 0xF2029, size: 0x8, addend: 0x0, symName: '__ZN5alloc11collections5btree4node180Handle$LT$alloc..collections..btree..node..NodeRef$LT$BorrowType$C$K$C$V$C$alloc..collections..btree..node..marker..Internal$GT$$C$alloc..collections..btree..node..marker..Edge$GT$7descend17he75e92d890d87575E', symObjAddr: 0x107F4, symBinAddr: 0x38620, symSize: 0x94 }
  - { offset: 0xF21EA, size: 0x8, addend: 0x0, symName: '__ZN5alloc11collections5btree4node180Handle$LT$alloc..collections..btree..node..NodeRef$LT$BorrowType$C$K$C$V$C$alloc..collections..btree..node..marker..Internal$GT$$C$alloc..collections..btree..node..marker..Edge$GT$7descend17he7e49d17d18f9192E', symObjAddr: 0x10888, symBinAddr: 0x386B4, symSize: 0x94 }
  - { offset: 0xF239E, size: 0x8, addend: 0x0, symName: '__ZN5alloc11collections5btree4node180Handle$LT$alloc..collections..btree..node..NodeRef$LT$BorrowType$C$K$C$V$C$alloc..collections..btree..node..marker..Internal$GT$$C$alloc..collections..btree..node..marker..Edge$GT$7descend17hf01ae51c8e20df24E', symObjAddr: 0x1091C, symBinAddr: 0x38748, symSize: 0x94 }
  - { offset: 0xF255F, size: 0x8, addend: 0x0, symName: '__ZN5alloc11collections5btree4node180Handle$LT$alloc..collections..btree..node..NodeRef$LT$BorrowType$C$K$C$V$C$alloc..collections..btree..node..marker..Internal$GT$$C$alloc..collections..btree..node..marker..Edge$GT$7descend17hf4e2e4055b8184a3E', symObjAddr: 0x109B0, symBinAddr: 0x387DC, symSize: 0x94 }
  - { offset: 0xF2713, size: 0x8, addend: 0x0, symName: '__ZN5alloc11collections5btree4node180Handle$LT$alloc..collections..btree..node..NodeRef$LT$BorrowType$C$K$C$V$C$alloc..collections..btree..node..marker..Internal$GT$$C$alloc..collections..btree..node..marker..Edge$GT$7descend17hfce7fef03228b34eE', symObjAddr: 0x10A44, symBinAddr: 0x38870, symSize: 0x94 }
  - { offset: 0xF2861, size: 0x8, addend: 0x0, symName: '__ZN5alloc11collections5btree4node208Handle$LT$alloc..collections..btree..node..NodeRef$LT$alloc..collections..btree..node..marker..Mut$C$K$C$V$C$alloc..collections..btree..node..marker..Leaf$GT$$C$alloc..collections..btree..node..marker..KV$GT$5split17h1312653959c360c6E', symObjAddr: 0x10AD8, symBinAddr: 0x38904, symSize: 0x104 }
  - { offset: 0xF28F9, size: 0x8, addend: 0x0, symName: '__ZN5alloc11collections5btree4node208Handle$LT$alloc..collections..btree..node..NodeRef$LT$alloc..collections..btree..node..marker..Mut$C$K$C$V$C$alloc..collections..btree..node..marker..Leaf$GT$$C$alloc..collections..btree..node..marker..KV$GT$5split17h1f13b47b65c51640E', symObjAddr: 0x10BDC, symBinAddr: 0x38A08, symSize: 0x124 }
  - { offset: 0xF2993, size: 0x8, addend: 0x0, symName: '__ZN5alloc11collections5btree4node208Handle$LT$alloc..collections..btree..node..NodeRef$LT$alloc..collections..btree..node..marker..Mut$C$K$C$V$C$alloc..collections..btree..node..marker..Leaf$GT$$C$alloc..collections..btree..node..marker..KV$GT$5split17h242f2314a7eaf673E', symObjAddr: 0x10D00, symBinAddr: 0x38B2C, symSize: 0x124 }
  - { offset: 0xF2A2D, size: 0x8, addend: 0x0, symName: '__ZN5alloc11collections5btree4node208Handle$LT$alloc..collections..btree..node..NodeRef$LT$alloc..collections..btree..node..marker..Mut$C$K$C$V$C$alloc..collections..btree..node..marker..Leaf$GT$$C$alloc..collections..btree..node..marker..KV$GT$5split17h46553d5d37c1a803E', symObjAddr: 0x10E24, symBinAddr: 0x38C50, symSize: 0x104 }
  - { offset: 0xF2AC5, size: 0x8, addend: 0x0, symName: '__ZN5alloc11collections5btree4node208Handle$LT$alloc..collections..btree..node..NodeRef$LT$alloc..collections..btree..node..marker..Mut$C$K$C$V$C$alloc..collections..btree..node..marker..Leaf$GT$$C$alloc..collections..btree..node..marker..KV$GT$5split17h73e07c714738185dE', symObjAddr: 0x10F28, symBinAddr: 0x38D54, symSize: 0x12C }
  - { offset: 0xF2B5F, size: 0x8, addend: 0x0, symName: '__ZN5alloc11collections5btree4node208Handle$LT$alloc..collections..btree..node..NodeRef$LT$alloc..collections..btree..node..marker..Mut$C$K$C$V$C$alloc..collections..btree..node..marker..Leaf$GT$$C$alloc..collections..btree..node..marker..KV$GT$5split17h7d56849f454578bbE', symObjAddr: 0x11054, symBinAddr: 0x38E80, symSize: 0x124 }
  - { offset: 0xF2BF9, size: 0x8, addend: 0x0, symName: '__ZN5alloc11collections5btree4node208Handle$LT$alloc..collections..btree..node..NodeRef$LT$alloc..collections..btree..node..marker..Mut$C$K$C$V$C$alloc..collections..btree..node..marker..Leaf$GT$$C$alloc..collections..btree..node..marker..KV$GT$5split17hba931fec116ce18eE', symObjAddr: 0x11178, symBinAddr: 0x38FA4, symSize: 0x12C }
  - { offset: 0xF2C93, size: 0x8, addend: 0x0, symName: '__ZN5alloc11collections5btree4node208Handle$LT$alloc..collections..btree..node..NodeRef$LT$alloc..collections..btree..node..marker..Mut$C$K$C$V$C$alloc..collections..btree..node..marker..Leaf$GT$$C$alloc..collections..btree..node..marker..KV$GT$5split17hefeb5d093f2078a6E', symObjAddr: 0x112A4, symBinAddr: 0x390D0, symSize: 0xEC }
  - { offset: 0xF2E76, size: 0x8, addend: 0x0, symName: '__ZN5alloc11collections5btree4node210Handle$LT$alloc..collections..btree..node..NodeRef$LT$alloc..collections..btree..node..marker..Mut$C$K$C$V$C$alloc..collections..btree..node..marker..Leaf$GT$$C$alloc..collections..btree..node..marker..Edge$GT$10insert_fit17h2263bddcf37e6f84E', symObjAddr: 0x11390, symBinAddr: 0x391BC, symSize: 0x1BC }
  - { offset: 0xF3277, size: 0x8, addend: 0x0, symName: '__ZN5alloc11collections5btree4node210Handle$LT$alloc..collections..btree..node..NodeRef$LT$alloc..collections..btree..node..marker..Mut$C$K$C$V$C$alloc..collections..btree..node..marker..Leaf$GT$$C$alloc..collections..btree..node..marker..Edge$GT$10insert_fit17h63596085198aa3beE', symObjAddr: 0x1154C, symBinAddr: 0x39378, symSize: 0x1A0 }
  - { offset: 0xF3678, size: 0x8, addend: 0x0, symName: '__ZN5alloc11collections5btree4node210Handle$LT$alloc..collections..btree..node..NodeRef$LT$alloc..collections..btree..node..marker..Mut$C$K$C$V$C$alloc..collections..btree..node..marker..Leaf$GT$$C$alloc..collections..btree..node..marker..Edge$GT$10insert_fit17h70ff74b39086e95bE', symObjAddr: 0x116EC, symBinAddr: 0x39518, symSize: 0x1B0 }
  - { offset: 0xF3A79, size: 0x8, addend: 0x0, symName: '__ZN5alloc11collections5btree4node210Handle$LT$alloc..collections..btree..node..NodeRef$LT$alloc..collections..btree..node..marker..Mut$C$K$C$V$C$alloc..collections..btree..node..marker..Leaf$GT$$C$alloc..collections..btree..node..marker..Edge$GT$10insert_fit17h7787726d37f9b0feE', symObjAddr: 0x1189C, symBinAddr: 0x396C8, symSize: 0x1B4 }
  - { offset: 0xF3E7A, size: 0x8, addend: 0x0, symName: '__ZN5alloc11collections5btree4node210Handle$LT$alloc..collections..btree..node..NodeRef$LT$alloc..collections..btree..node..marker..Mut$C$K$C$V$C$alloc..collections..btree..node..marker..Leaf$GT$$C$alloc..collections..btree..node..marker..Edge$GT$10insert_fit17h79597dc826656d4eE', symObjAddr: 0x11A50, symBinAddr: 0x3987C, symSize: 0x1A4 }
  - { offset: 0xF427B, size: 0x8, addend: 0x0, symName: '__ZN5alloc11collections5btree4node210Handle$LT$alloc..collections..btree..node..NodeRef$LT$alloc..collections..btree..node..marker..Mut$C$K$C$V$C$alloc..collections..btree..node..marker..Leaf$GT$$C$alloc..collections..btree..node..marker..Edge$GT$10insert_fit17hb5c363bbb350d7a9E', symObjAddr: 0x11BF4, symBinAddr: 0x39A20, symSize: 0x1BC }
  - { offset: 0xF467C, size: 0x8, addend: 0x0, symName: '__ZN5alloc11collections5btree4node210Handle$LT$alloc..collections..btree..node..NodeRef$LT$alloc..collections..btree..node..marker..Mut$C$K$C$V$C$alloc..collections..btree..node..marker..Leaf$GT$$C$alloc..collections..btree..node..marker..Edge$GT$10insert_fit17hbb9b721123b6e22aE', symObjAddr: 0x11DB0, symBinAddr: 0x39BDC, symSize: 0x1B8 }
  - { offset: 0xF4A7D, size: 0x8, addend: 0x0, symName: '__ZN5alloc11collections5btree4node210Handle$LT$alloc..collections..btree..node..NodeRef$LT$alloc..collections..btree..node..marker..Mut$C$K$C$V$C$alloc..collections..btree..node..marker..Leaf$GT$$C$alloc..collections..btree..node..marker..Edge$GT$10insert_fit17hf8e1d78658b26707E', symObjAddr: 0x11F68, symBinAddr: 0x39D94, symSize: 0x1B0 }
  - { offset: 0xF4E16, size: 0x8, addend: 0x0, symName: '__ZN5alloc11collections5btree4node210Handle$LT$alloc..collections..btree..node..NodeRef$LT$alloc..collections..btree..node..marker..Mut$C$K$C$V$C$alloc..collections..btree..node..marker..Leaf$GT$$C$alloc..collections..btree..node..marker..Edge$GT$16insert_recursing17h15efd73eb3921e0bE', symObjAddr: 0x12118, symBinAddr: 0x39F44, symSize: 0x558 }
  - { offset: 0xF514C, size: 0x8, addend: 0x0, symName: '__ZN5alloc11collections5btree4node210Handle$LT$alloc..collections..btree..node..NodeRef$LT$alloc..collections..btree..node..marker..Mut$C$K$C$V$C$alloc..collections..btree..node..marker..Leaf$GT$$C$alloc..collections..btree..node..marker..Edge$GT$16insert_recursing17h2bf25d8d02768e12E', symObjAddr: 0x12670, symBinAddr: 0x3A49C, symSize: 0x4A4 }
  - { offset: 0xF5482, size: 0x8, addend: 0x0, symName: '__ZN5alloc11collections5btree4node210Handle$LT$alloc..collections..btree..node..NodeRef$LT$alloc..collections..btree..node..marker..Mut$C$K$C$V$C$alloc..collections..btree..node..marker..Leaf$GT$$C$alloc..collections..btree..node..marker..Edge$GT$16insert_recursing17h32f217242817ca32E', symObjAddr: 0x12B14, symBinAddr: 0x3A940, symSize: 0x484 }
  - { offset: 0xF57B8, size: 0x8, addend: 0x0, symName: '__ZN5alloc11collections5btree4node210Handle$LT$alloc..collections..btree..node..NodeRef$LT$alloc..collections..btree..node..marker..Mut$C$K$C$V$C$alloc..collections..btree..node..marker..Leaf$GT$$C$alloc..collections..btree..node..marker..Edge$GT$16insert_recursing17ha016cfe76111f8c5E', symObjAddr: 0x12F98, symBinAddr: 0x3ADC4, symSize: 0x550 }
  - { offset: 0xF5AEE, size: 0x8, addend: 0x0, symName: '__ZN5alloc11collections5btree4node210Handle$LT$alloc..collections..btree..node..NodeRef$LT$alloc..collections..btree..node..marker..Mut$C$K$C$V$C$alloc..collections..btree..node..marker..Leaf$GT$$C$alloc..collections..btree..node..marker..Edge$GT$16insert_recursing17ha37fd450a527e36dE', symObjAddr: 0x134E8, symBinAddr: 0x3B314, symSize: 0x58C }
  - { offset: 0xF5E28, size: 0x8, addend: 0x0, symName: '__ZN5alloc11collections5btree4node210Handle$LT$alloc..collections..btree..node..NodeRef$LT$alloc..collections..btree..node..marker..Mut$C$K$C$V$C$alloc..collections..btree..node..marker..Leaf$GT$$C$alloc..collections..btree..node..marker..Edge$GT$16insert_recursing17ha6dcdbb61138cbcdE', symObjAddr: 0x13A74, symBinAddr: 0x3B8A0, symSize: 0x534 }
  - { offset: 0xF615E, size: 0x8, addend: 0x0, symName: '__ZN5alloc11collections5btree4node210Handle$LT$alloc..collections..btree..node..NodeRef$LT$alloc..collections..btree..node..marker..Mut$C$K$C$V$C$alloc..collections..btree..node..marker..Leaf$GT$$C$alloc..collections..btree..node..marker..Edge$GT$16insert_recursing17hcf99458f4d267a04E', symObjAddr: 0x13FA8, symBinAddr: 0x3BDD4, symSize: 0x400 }
  - { offset: 0xF6487, size: 0x8, addend: 0x0, symName: '__ZN5alloc11collections5btree4node210Handle$LT$alloc..collections..btree..node..NodeRef$LT$alloc..collections..btree..node..marker..Mut$C$K$C$V$C$alloc..collections..btree..node..marker..Leaf$GT$$C$alloc..collections..btree..node..marker..Edge$GT$16insert_recursing17he4d7ee1b3482ca10E', symObjAddr: 0x143A8, symBinAddr: 0x3C1D4, symSize: 0x544 }
  - { offset: 0xF6906, size: 0x8, addend: 0x0, symName: '__ZN5alloc11collections5btree4node210Handle$LT$alloc..collections..btree..node..NodeRef$LT$alloc..collections..btree..node..marker..Mut$C$K$C$V$C$alloc..collections..btree..node..marker..Leaf$GT$$C$alloc..collections..btree..node..marker..Edge$GT$6insert17h0fc3fc727d73b5dcE', symObjAddr: 0x148EC, symBinAddr: 0x3C718, symSize: 0x394 }
  - { offset: 0xF6D87, size: 0x8, addend: 0x0, symName: '__ZN5alloc11collections5btree4node210Handle$LT$alloc..collections..btree..node..NodeRef$LT$alloc..collections..btree..node..marker..Mut$C$K$C$V$C$alloc..collections..btree..node..marker..Leaf$GT$$C$alloc..collections..btree..node..marker..Edge$GT$6insert17h2a6125c44e3ee80aE', symObjAddr: 0x14C80, symBinAddr: 0x3CAAC, symSize: 0x348 }
  - { offset: 0xF7208, size: 0x8, addend: 0x0, symName: '__ZN5alloc11collections5btree4node210Handle$LT$alloc..collections..btree..node..NodeRef$LT$alloc..collections..btree..node..marker..Mut$C$K$C$V$C$alloc..collections..btree..node..marker..Leaf$GT$$C$alloc..collections..btree..node..marker..Edge$GT$6insert17h6436192f05c49eb0E', symObjAddr: 0x14FC8, symBinAddr: 0x3CDF4, symSize: 0x378 }
  - { offset: 0xF7689, size: 0x8, addend: 0x0, symName: '__ZN5alloc11collections5btree4node210Handle$LT$alloc..collections..btree..node..NodeRef$LT$alloc..collections..btree..node..marker..Mut$C$K$C$V$C$alloc..collections..btree..node..marker..Leaf$GT$$C$alloc..collections..btree..node..marker..Edge$GT$6insert17h6e2dc7ef2345ca1dE', symObjAddr: 0x15340, symBinAddr: 0x3D16C, symSize: 0x2F0 }
  - { offset: 0xF7B0A, size: 0x8, addend: 0x0, symName: '__ZN5alloc11collections5btree4node210Handle$LT$alloc..collections..btree..node..NodeRef$LT$alloc..collections..btree..node..marker..Mut$C$K$C$V$C$alloc..collections..btree..node..marker..Leaf$GT$$C$alloc..collections..btree..node..marker..Edge$GT$6insert17h7c133ef7b78942c0E', symObjAddr: 0x15630, symBinAddr: 0x3D45C, symSize: 0x390 }
  - { offset: 0xF7F8B, size: 0x8, addend: 0x0, symName: '__ZN5alloc11collections5btree4node210Handle$LT$alloc..collections..btree..node..NodeRef$LT$alloc..collections..btree..node..marker..Mut$C$K$C$V$C$alloc..collections..btree..node..marker..Leaf$GT$$C$alloc..collections..btree..node..marker..Edge$GT$6insert17haa67cf615181a6b6E', symObjAddr: 0x159C0, symBinAddr: 0x3D7EC, symSize: 0x338 }
  - { offset: 0xF840C, size: 0x8, addend: 0x0, symName: '__ZN5alloc11collections5btree4node210Handle$LT$alloc..collections..btree..node..NodeRef$LT$alloc..collections..btree..node..marker..Mut$C$K$C$V$C$alloc..collections..btree..node..marker..Leaf$GT$$C$alloc..collections..btree..node..marker..Edge$GT$6insert17heb2480870058c879E', symObjAddr: 0x15CF8, symBinAddr: 0x3DB24, symSize: 0x358 }
  - { offset: 0xF888D, size: 0x8, addend: 0x0, symName: '__ZN5alloc11collections5btree4node210Handle$LT$alloc..collections..btree..node..NodeRef$LT$alloc..collections..btree..node..marker..Mut$C$K$C$V$C$alloc..collections..btree..node..marker..Leaf$GT$$C$alloc..collections..btree..node..marker..Edge$GT$6insert17hee205072bedf8e04E', symObjAddr: 0x16050, symBinAddr: 0x3DE7C, symSize: 0x374 }
  - { offset: 0xF8BD5, size: 0x8, addend: 0x0, symName: '__ZN5alloc11collections5btree4node212Handle$LT$alloc..collections..btree..node..NodeRef$LT$alloc..collections..btree..node..marker..Mut$C$K$C$V$C$alloc..collections..btree..node..marker..Internal$GT$$C$alloc..collections..btree..node..marker..KV$GT$22consider_for_balancing17h51e3c0822f16d1b5E', symObjAddr: 0x163C4, symBinAddr: 0x3E1F0, symSize: 0xE4 }
  - { offset: 0xF8DA9, size: 0x8, addend: 0x0, symName: '__ZN5alloc11collections5btree4node212Handle$LT$alloc..collections..btree..node..NodeRef$LT$alloc..collections..btree..node..marker..Mut$C$K$C$V$C$alloc..collections..btree..node..marker..Internal$GT$$C$alloc..collections..btree..node..marker..KV$GT$22consider_for_balancing17h9f2f0e933d730044E', symObjAddr: 0x164A8, symBinAddr: 0x3E2D4, symSize: 0xE4 }
  - { offset: 0xF8F7D, size: 0x8, addend: 0x0, symName: '__ZN5alloc11collections5btree4node212Handle$LT$alloc..collections..btree..node..NodeRef$LT$alloc..collections..btree..node..marker..Mut$C$K$C$V$C$alloc..collections..btree..node..marker..Internal$GT$$C$alloc..collections..btree..node..marker..KV$GT$22consider_for_balancing17ha8a9a12444ca9206E', symObjAddr: 0x1658C, symBinAddr: 0x3E3B8, symSize: 0xE4 }
  - { offset: 0xF91F5, size: 0x8, addend: 0x0, symName: '__ZN5alloc11collections5btree4node212Handle$LT$alloc..collections..btree..node..NodeRef$LT$alloc..collections..btree..node..marker..Mut$C$K$C$V$C$alloc..collections..btree..node..marker..Internal$GT$$C$alloc..collections..btree..node..marker..KV$GT$5split17h033f1e0144e36920E', symObjAddr: 0x16670, symBinAddr: 0x3E49C, symSize: 0x2D0 }
  - { offset: 0xF96DB, size: 0x8, addend: 0x0, symName: '__ZN5alloc11collections5btree4node212Handle$LT$alloc..collections..btree..node..NodeRef$LT$alloc..collections..btree..node..marker..Mut$C$K$C$V$C$alloc..collections..btree..node..marker..Internal$GT$$C$alloc..collections..btree..node..marker..KV$GT$5split17h048035551bfc3950E', symObjAddr: 0x16940, symBinAddr: 0x3E76C, symSize: 0x2B0 }
  - { offset: 0xF9BC1, size: 0x8, addend: 0x0, symName: '__ZN5alloc11collections5btree4node212Handle$LT$alloc..collections..btree..node..NodeRef$LT$alloc..collections..btree..node..marker..Mut$C$K$C$V$C$alloc..collections..btree..node..marker..Internal$GT$$C$alloc..collections..btree..node..marker..KV$GT$5split17h423f3d52e591302cE', symObjAddr: 0x16BF0, symBinAddr: 0x3EA1C, symSize: 0x2B0 }
  - { offset: 0xFA0A7, size: 0x8, addend: 0x0, symName: '__ZN5alloc11collections5btree4node212Handle$LT$alloc..collections..btree..node..NodeRef$LT$alloc..collections..btree..node..marker..Mut$C$K$C$V$C$alloc..collections..btree..node..marker..Internal$GT$$C$alloc..collections..btree..node..marker..KV$GT$5split17h6a0da80ba86644a1E', symObjAddr: 0x16EA0, symBinAddr: 0x3ECCC, symSize: 0x2D0 }
  - { offset: 0xFA58D, size: 0x8, addend: 0x0, symName: '__ZN5alloc11collections5btree4node212Handle$LT$alloc..collections..btree..node..NodeRef$LT$alloc..collections..btree..node..marker..Mut$C$K$C$V$C$alloc..collections..btree..node..marker..Internal$GT$$C$alloc..collections..btree..node..marker..KV$GT$5split17haaa542b9261563feE', symObjAddr: 0x17170, symBinAddr: 0x3EF9C, symSize: 0x2D0 }
  - { offset: 0xFAA73, size: 0x8, addend: 0x0, symName: '__ZN5alloc11collections5btree4node212Handle$LT$alloc..collections..btree..node..NodeRef$LT$alloc..collections..btree..node..marker..Mut$C$K$C$V$C$alloc..collections..btree..node..marker..Internal$GT$$C$alloc..collections..btree..node..marker..KV$GT$5split17hb26832bbca8338beE', symObjAddr: 0x17440, symBinAddr: 0x3F26C, symSize: 0x2D0 }
  - { offset: 0xFAF59, size: 0x8, addend: 0x0, symName: '__ZN5alloc11collections5btree4node212Handle$LT$alloc..collections..btree..node..NodeRef$LT$alloc..collections..btree..node..marker..Mut$C$K$C$V$C$alloc..collections..btree..node..marker..Internal$GT$$C$alloc..collections..btree..node..marker..KV$GT$5split17hcb881be62b01c3f6E', symObjAddr: 0x17710, symBinAddr: 0x3F53C, symSize: 0x298 }
  - { offset: 0xFB43F, size: 0x8, addend: 0x0, symName: '__ZN5alloc11collections5btree4node212Handle$LT$alloc..collections..btree..node..NodeRef$LT$alloc..collections..btree..node..marker..Mut$C$K$C$V$C$alloc..collections..btree..node..marker..Internal$GT$$C$alloc..collections..btree..node..marker..KV$GT$5split17hed8e4933b75a64e4E', symObjAddr: 0x179A8, symBinAddr: 0x3F7D4, symSize: 0x2D0 }
  - { offset: 0xFB9E1, size: 0x8, addend: 0x0, symName: '__ZN5alloc11collections5btree4node214Handle$LT$alloc..collections..btree..node..NodeRef$LT$alloc..collections..btree..node..marker..Mut$C$K$C$V$C$alloc..collections..btree..node..marker..Internal$GT$$C$alloc..collections..btree..node..marker..Edge$GT$10insert_fit17h0ddcfa291e2c2feeE', symObjAddr: 0x17C78, symBinAddr: 0x3FAA4, symSize: 0x248 }
  - { offset: 0xFC088, size: 0x8, addend: 0x0, symName: '__ZN5alloc11collections5btree4node214Handle$LT$alloc..collections..btree..node..NodeRef$LT$alloc..collections..btree..node..marker..Mut$C$K$C$V$C$alloc..collections..btree..node..marker..Internal$GT$$C$alloc..collections..btree..node..marker..Edge$GT$10insert_fit17h1ab2670c229d54aeE', symObjAddr: 0x17EC0, symBinAddr: 0x3FCEC, symSize: 0x238 }
  - { offset: 0xFC72F, size: 0x8, addend: 0x0, symName: '__ZN5alloc11collections5btree4node214Handle$LT$alloc..collections..btree..node..NodeRef$LT$alloc..collections..btree..node..marker..Mut$C$K$C$V$C$alloc..collections..btree..node..marker..Internal$GT$$C$alloc..collections..btree..node..marker..Edge$GT$10insert_fit17h23c44f625c5b8d2cE', symObjAddr: 0x180F8, symBinAddr: 0x3FF24, symSize: 0x244 }
  - { offset: 0xFCDD6, size: 0x8, addend: 0x0, symName: '__ZN5alloc11collections5btree4node214Handle$LT$alloc..collections..btree..node..NodeRef$LT$alloc..collections..btree..node..marker..Mut$C$K$C$V$C$alloc..collections..btree..node..marker..Internal$GT$$C$alloc..collections..btree..node..marker..Edge$GT$10insert_fit17h4b3be18d62c4cb65E', symObjAddr: 0x1833C, symBinAddr: 0x40168, symSize: 0x23C }
  - { offset: 0xFD47D, size: 0x8, addend: 0x0, symName: '__ZN5alloc11collections5btree4node214Handle$LT$alloc..collections..btree..node..NodeRef$LT$alloc..collections..btree..node..marker..Mut$C$K$C$V$C$alloc..collections..btree..node..marker..Internal$GT$$C$alloc..collections..btree..node..marker..Edge$GT$10insert_fit17h8897aa2c2aa2c203E', symObjAddr: 0x18578, symBinAddr: 0x403A4, symSize: 0x23C }
  - { offset: 0xFDB24, size: 0x8, addend: 0x0, symName: '__ZN5alloc11collections5btree4node214Handle$LT$alloc..collections..btree..node..NodeRef$LT$alloc..collections..btree..node..marker..Mut$C$K$C$V$C$alloc..collections..btree..node..marker..Internal$GT$$C$alloc..collections..btree..node..marker..Edge$GT$10insert_fit17h89f32e13342d8ae6E', symObjAddr: 0x187B4, symBinAddr: 0x405E0, symSize: 0x248 }
  - { offset: 0xFE1CB, size: 0x8, addend: 0x0, symName: '__ZN5alloc11collections5btree4node214Handle$LT$alloc..collections..btree..node..NodeRef$LT$alloc..collections..btree..node..marker..Mut$C$K$C$V$C$alloc..collections..btree..node..marker..Internal$GT$$C$alloc..collections..btree..node..marker..Edge$GT$10insert_fit17hbc80802b15e9dc3eE', symObjAddr: 0x189FC, symBinAddr: 0x40828, symSize: 0x254 }
  - { offset: 0xFE872, size: 0x8, addend: 0x0, symName: '__ZN5alloc11collections5btree4node214Handle$LT$alloc..collections..btree..node..NodeRef$LT$alloc..collections..btree..node..marker..Mut$C$K$C$V$C$alloc..collections..btree..node..marker..Internal$GT$$C$alloc..collections..btree..node..marker..Edge$GT$10insert_fit17heeb97f64b88fde10E', symObjAddr: 0x18C50, symBinAddr: 0x40A7C, symSize: 0x24C }
  - { offset: 0xFEDB4, size: 0x8, addend: 0x0, symName: '__ZN5alloc11collections5btree4node214Handle$LT$alloc..collections..btree..node..NodeRef$LT$alloc..collections..btree..node..marker..Mut$C$K$C$V$C$alloc..collections..btree..node..marker..Internal$GT$$C$alloc..collections..btree..node..marker..Edge$GT$19correct_parent_link17h0188937f03075502E', symObjAddr: 0x18E9C, symBinAddr: 0x40CC8, symSize: 0x8C }
  - { offset: 0xFEF47, size: 0x8, addend: 0x0, symName: '__ZN5alloc11collections5btree4node214Handle$LT$alloc..collections..btree..node..NodeRef$LT$alloc..collections..btree..node..marker..Mut$C$K$C$V$C$alloc..collections..btree..node..marker..Internal$GT$$C$alloc..collections..btree..node..marker..Edge$GT$19correct_parent_link17h1246bf6bcffeaba9E', symObjAddr: 0x18F28, symBinAddr: 0x40D54, symSize: 0x8C }
  - { offset: 0xFF0DA, size: 0x8, addend: 0x0, symName: '__ZN5alloc11collections5btree4node214Handle$LT$alloc..collections..btree..node..NodeRef$LT$alloc..collections..btree..node..marker..Mut$C$K$C$V$C$alloc..collections..btree..node..marker..Internal$GT$$C$alloc..collections..btree..node..marker..Edge$GT$19correct_parent_link17h4697931de06fc29fE', symObjAddr: 0x18FB4, symBinAddr: 0x40DE0, symSize: 0x8C }
  - { offset: 0xFF260, size: 0x8, addend: 0x0, symName: '__ZN5alloc11collections5btree4node214Handle$LT$alloc..collections..btree..node..NodeRef$LT$alloc..collections..btree..node..marker..Mut$C$K$C$V$C$alloc..collections..btree..node..marker..Internal$GT$$C$alloc..collections..btree..node..marker..Edge$GT$19correct_parent_link17h4faeffeedb8801faE', symObjAddr: 0x19040, symBinAddr: 0x40E6C, symSize: 0x8C }
  - { offset: 0xFF3E6, size: 0x8, addend: 0x0, symName: '__ZN5alloc11collections5btree4node214Handle$LT$alloc..collections..btree..node..NodeRef$LT$alloc..collections..btree..node..marker..Mut$C$K$C$V$C$alloc..collections..btree..node..marker..Internal$GT$$C$alloc..collections..btree..node..marker..Edge$GT$19correct_parent_link17h6629658c15880cdfE', symObjAddr: 0x190CC, symBinAddr: 0x40EF8, symSize: 0x8C }
  - { offset: 0xFF56C, size: 0x8, addend: 0x0, symName: '__ZN5alloc11collections5btree4node214Handle$LT$alloc..collections..btree..node..NodeRef$LT$alloc..collections..btree..node..marker..Mut$C$K$C$V$C$alloc..collections..btree..node..marker..Internal$GT$$C$alloc..collections..btree..node..marker..Edge$GT$19correct_parent_link17ha036d3d6e9bf3588E', symObjAddr: 0x19158, symBinAddr: 0x40F84, symSize: 0x8C }
  - { offset: 0xFF6F2, size: 0x8, addend: 0x0, symName: '__ZN5alloc11collections5btree4node214Handle$LT$alloc..collections..btree..node..NodeRef$LT$alloc..collections..btree..node..marker..Mut$C$K$C$V$C$alloc..collections..btree..node..marker..Internal$GT$$C$alloc..collections..btree..node..marker..Edge$GT$19correct_parent_link17ha7fda4c9d65e0792E', symObjAddr: 0x191E4, symBinAddr: 0x41010, symSize: 0x8C }
  - { offset: 0xFF885, size: 0x8, addend: 0x0, symName: '__ZN5alloc11collections5btree4node214Handle$LT$alloc..collections..btree..node..NodeRef$LT$alloc..collections..btree..node..marker..Mut$C$K$C$V$C$alloc..collections..btree..node..marker..Internal$GT$$C$alloc..collections..btree..node..marker..Edge$GT$19correct_parent_link17hc0c83bc3cbe131dbE', symObjAddr: 0x19270, symBinAddr: 0x4109C, symSize: 0x8C }
  - { offset: 0xFFA18, size: 0x8, addend: 0x0, symName: '__ZN5alloc11collections5btree4node214Handle$LT$alloc..collections..btree..node..NodeRef$LT$alloc..collections..btree..node..marker..Mut$C$K$C$V$C$alloc..collections..btree..node..marker..Internal$GT$$C$alloc..collections..btree..node..marker..Edge$GT$19correct_parent_link17hcb4f8e984458f287E', symObjAddr: 0x192FC, symBinAddr: 0x41128, symSize: 0x8C }
  - { offset: 0xFFBAB, size: 0x8, addend: 0x0, symName: '__ZN5alloc11collections5btree4node214Handle$LT$alloc..collections..btree..node..NodeRef$LT$alloc..collections..btree..node..marker..Mut$C$K$C$V$C$alloc..collections..btree..node..marker..Internal$GT$$C$alloc..collections..btree..node..marker..Edge$GT$19correct_parent_link17hd76f9d34020860eeE', symObjAddr: 0x19388, symBinAddr: 0x411B4, symSize: 0x8C }
  - { offset: 0xFFD31, size: 0x8, addend: 0x0, symName: '__ZN5alloc11collections5btree4node214Handle$LT$alloc..collections..btree..node..NodeRef$LT$alloc..collections..btree..node..marker..Mut$C$K$C$V$C$alloc..collections..btree..node..marker..Internal$GT$$C$alloc..collections..btree..node..marker..Edge$GT$19correct_parent_link17he98c959886516227E', symObjAddr: 0x19414, symBinAddr: 0x41240, symSize: 0x8C }
  - { offset: 0xFFF71, size: 0x8, addend: 0x0, symName: '__ZN5alloc11collections5btree4node214Handle$LT$alloc..collections..btree..node..NodeRef$LT$alloc..collections..btree..node..marker..Mut$C$K$C$V$C$alloc..collections..btree..node..marker..Internal$GT$$C$alloc..collections..btree..node..marker..Edge$GT$6insert17h3d836faf918ee331E', symObjAddr: 0x194A0, symBinAddr: 0x412CC, symSize: 0x33C }
  - { offset: 0x1002EA, size: 0x8, addend: 0x0, symName: '__ZN5alloc11collections5btree4node214Handle$LT$alloc..collections..btree..node..NodeRef$LT$alloc..collections..btree..node..marker..Mut$C$K$C$V$C$alloc..collections..btree..node..marker..Internal$GT$$C$alloc..collections..btree..node..marker..Edge$GT$6insert17h4840b68cbcf0374dE', symObjAddr: 0x197DC, symBinAddr: 0x41608, symSize: 0x300 }
  - { offset: 0x100663, size: 0x8, addend: 0x0, symName: '__ZN5alloc11collections5btree4node214Handle$LT$alloc..collections..btree..node..NodeRef$LT$alloc..collections..btree..node..marker..Mut$C$K$C$V$C$alloc..collections..btree..node..marker..Internal$GT$$C$alloc..collections..btree..node..marker..Edge$GT$6insert17h639f38e45decc392E', symObjAddr: 0x19ADC, symBinAddr: 0x41908, symSize: 0x358 }
  - { offset: 0x1009DE, size: 0x8, addend: 0x0, symName: '__ZN5alloc11collections5btree4node214Handle$LT$alloc..collections..btree..node..NodeRef$LT$alloc..collections..btree..node..marker..Mut$C$K$C$V$C$alloc..collections..btree..node..marker..Internal$GT$$C$alloc..collections..btree..node..marker..Edge$GT$6insert17h66e9b090fad985f0E', symObjAddr: 0x19E34, symBinAddr: 0x41C60, symSize: 0x354 }
  - { offset: 0x100D59, size: 0x8, addend: 0x0, symName: '__ZN5alloc11collections5btree4node214Handle$LT$alloc..collections..btree..node..NodeRef$LT$alloc..collections..btree..node..marker..Mut$C$K$C$V$C$alloc..collections..btree..node..marker..Internal$GT$$C$alloc..collections..btree..node..marker..Edge$GT$6insert17h6797fbea8e8ed42dE', symObjAddr: 0x1A188, symBinAddr: 0x41FB4, symSize: 0x33C }
  - { offset: 0x1010D2, size: 0x8, addend: 0x0, symName: '__ZN5alloc11collections5btree4node214Handle$LT$alloc..collections..btree..node..NodeRef$LT$alloc..collections..btree..node..marker..Mut$C$K$C$V$C$alloc..collections..btree..node..marker..Internal$GT$$C$alloc..collections..btree..node..marker..Edge$GT$6insert17h7181619b1fe7f89fE', symObjAddr: 0x1A4C4, symBinAddr: 0x422F0, symSize: 0x310 }
  - { offset: 0x10144B, size: 0x8, addend: 0x0, symName: '__ZN5alloc11collections5btree4node214Handle$LT$alloc..collections..btree..node..NodeRef$LT$alloc..collections..btree..node..marker..Mut$C$K$C$V$C$alloc..collections..btree..node..marker..Internal$GT$$C$alloc..collections..btree..node..marker..Edge$GT$6insert17h7b7cf6221b5f54faE', symObjAddr: 0x1A7D4, symBinAddr: 0x42600, symSize: 0x320 }
  - { offset: 0x1017C4, size: 0x8, addend: 0x0, symName: '__ZN5alloc11collections5btree4node214Handle$LT$alloc..collections..btree..node..NodeRef$LT$alloc..collections..btree..node..marker..Mut$C$K$C$V$C$alloc..collections..btree..node..marker..Internal$GT$$C$alloc..collections..btree..node..marker..Edge$GT$6insert17h9edc3c233762633fE', symObjAddr: 0x1AAF4, symBinAddr: 0x42920, symSize: 0x2C8 }
  - { offset: 0x101AB5, size: 0x8, addend: 0x0, symName: '__ZN5alloc11collections5btree4node21LeafNode$LT$K$C$V$GT$3new17h222623e41e494915E', symObjAddr: 0x1ADBC, symBinAddr: 0x42BE8, symSize: 0x70 }
  - { offset: 0x101D24, size: 0x8, addend: 0x0, symName: '__ZN5alloc11collections5btree4node21LeafNode$LT$K$C$V$GT$3new17h444da683a1e3beefE', symObjAddr: 0x1AE2C, symBinAddr: 0x42C58, symSize: 0x70 }
  - { offset: 0x101F93, size: 0x8, addend: 0x0, symName: '__ZN5alloc11collections5btree4node21LeafNode$LT$K$C$V$GT$3new17h4a63444ffe30a170E', symObjAddr: 0x1AE9C, symBinAddr: 0x42CC8, symSize: 0x70 }
  - { offset: 0x102202, size: 0x8, addend: 0x0, symName: '__ZN5alloc11collections5btree4node21LeafNode$LT$K$C$V$GT$3new17h4ace3e5584b51152E', symObjAddr: 0x1AF0C, symBinAddr: 0x42D38, symSize: 0x70 }
  - { offset: 0x102471, size: 0x8, addend: 0x0, symName: '__ZN5alloc11collections5btree4node21LeafNode$LT$K$C$V$GT$3new17h4c5c069b6b2ebf6fE', symObjAddr: 0x1AF7C, symBinAddr: 0x42DA8, symSize: 0x70 }
  - { offset: 0x1026E0, size: 0x8, addend: 0x0, symName: '__ZN5alloc11collections5btree4node21LeafNode$LT$K$C$V$GT$3new17h56244c5737def1daE', symObjAddr: 0x1AFEC, symBinAddr: 0x42E18, symSize: 0x70 }
  - { offset: 0x10294F, size: 0x8, addend: 0x0, symName: '__ZN5alloc11collections5btree4node21LeafNode$LT$K$C$V$GT$3new17h61ae5b178a516cb0E', symObjAddr: 0x1B05C, symBinAddr: 0x42E88, symSize: 0x70 }
  - { offset: 0x102BBE, size: 0x8, addend: 0x0, symName: '__ZN5alloc11collections5btree4node21LeafNode$LT$K$C$V$GT$3new17h7f08160d146449d0E', symObjAddr: 0x1B0CC, symBinAddr: 0x42EF8, symSize: 0x70 }
  - { offset: 0x102E2D, size: 0x8, addend: 0x0, symName: '__ZN5alloc11collections5btree4node21LeafNode$LT$K$C$V$GT$3new17h9a5f5dde22c4f8adE', symObjAddr: 0x1B13C, symBinAddr: 0x42F68, symSize: 0x70 }
  - { offset: 0x10309C, size: 0x8, addend: 0x0, symName: '__ZN5alloc11collections5btree4node21LeafNode$LT$K$C$V$GT$3new17hc324e90cb6098826E', symObjAddr: 0x1B1AC, symBinAddr: 0x42FD8, symSize: 0x70 }
  - { offset: 0x10330B, size: 0x8, addend: 0x0, symName: '__ZN5alloc11collections5btree4node21LeafNode$LT$K$C$V$GT$3new17hcd3eea66c9ad6fcbE', symObjAddr: 0x1B21C, symBinAddr: 0x43048, symSize: 0x70 }
  - { offset: 0x103544, size: 0x8, addend: 0x0, symName: '__ZN5alloc11collections5btree4node25InternalNode$LT$K$C$V$GT$3new17h1beaab510276d44bE', symObjAddr: 0x1B28C, symBinAddr: 0x430B8, symSize: 0x70 }
  - { offset: 0x103760, size: 0x8, addend: 0x0, symName: '__ZN5alloc11collections5btree4node25InternalNode$LT$K$C$V$GT$3new17h405e9cad16c07730E', symObjAddr: 0x1B2FC, symBinAddr: 0x43128, symSize: 0x70 }
  - { offset: 0x10397C, size: 0x8, addend: 0x0, symName: '__ZN5alloc11collections5btree4node25InternalNode$LT$K$C$V$GT$3new17h41094f6ae4d1a6b9E', symObjAddr: 0x1B36C, symBinAddr: 0x43198, symSize: 0x70 }
  - { offset: 0x103B98, size: 0x8, addend: 0x0, symName: '__ZN5alloc11collections5btree4node25InternalNode$LT$K$C$V$GT$3new17h57bf84a7cd35b584E', symObjAddr: 0x1B3DC, symBinAddr: 0x43208, symSize: 0x70 }
  - { offset: 0x103DB4, size: 0x8, addend: 0x0, symName: '__ZN5alloc11collections5btree4node25InternalNode$LT$K$C$V$GT$3new17h5970d65e3014515eE', symObjAddr: 0x1B44C, symBinAddr: 0x43278, symSize: 0x70 }
  - { offset: 0x103FD0, size: 0x8, addend: 0x0, symName: '__ZN5alloc11collections5btree4node25InternalNode$LT$K$C$V$GT$3new17h6bd60e8d2bf6d4f5E', symObjAddr: 0x1B4BC, symBinAddr: 0x432E8, symSize: 0x70 }
  - { offset: 0x1041EC, size: 0x8, addend: 0x0, symName: '__ZN5alloc11collections5btree4node25InternalNode$LT$K$C$V$GT$3new17h9c6559794fd0fcc4E', symObjAddr: 0x1B52C, symBinAddr: 0x43358, symSize: 0x70 }
  - { offset: 0x104408, size: 0x8, addend: 0x0, symName: '__ZN5alloc11collections5btree4node25InternalNode$LT$K$C$V$GT$3new17habb518af8265fb34E', symObjAddr: 0x1B59C, symBinAddr: 0x433C8, symSize: 0x70 }
  - { offset: 0x104624, size: 0x8, addend: 0x0, symName: '__ZN5alloc11collections5btree4node25InternalNode$LT$K$C$V$GT$3new17hc996c4ccf4c141f7E', symObjAddr: 0x1B60C, symBinAddr: 0x43438, symSize: 0x70 }
  - { offset: 0x104840, size: 0x8, addend: 0x0, symName: '__ZN5alloc11collections5btree4node25InternalNode$LT$K$C$V$GT$3new17hea9be4dadcf215edE', symObjAddr: 0x1B67C, symBinAddr: 0x434A8, symSize: 0x70 }
  - { offset: 0x104A5C, size: 0x8, addend: 0x0, symName: '__ZN5alloc11collections5btree4node25InternalNode$LT$K$C$V$GT$3new17hec5d84faf62fb58aE', symObjAddr: 0x1B6EC, symBinAddr: 0x43518, symSize: 0x70 }
  - { offset: 0x105059, size: 0x8, addend: 0x0, symName: '__ZN5alloc11collections5btree4node29BalancingContext$LT$K$C$V$GT$15bulk_steal_left17h119573d4c501d507E', symObjAddr: 0x1B75C, symBinAddr: 0x43588, symSize: 0x838 }
  - { offset: 0x10657B, size: 0x8, addend: 0x0, symName: '__ZN5alloc11collections5btree4node29BalancingContext$LT$K$C$V$GT$15bulk_steal_left17h8faa0bc3b57f6f4aE', symObjAddr: 0x1BF94, symBinAddr: 0x43DC0, symSize: 0x8AC }
  - { offset: 0x107B86, size: 0x8, addend: 0x0, symName: '__ZN5alloc11collections5btree4node29BalancingContext$LT$K$C$V$GT$15bulk_steal_left17hcf607a39f8c8b603E', symObjAddr: 0x1C840, symBinAddr: 0x4466C, symSize: 0x894 }
  - { offset: 0x108DED, size: 0x8, addend: 0x0, symName: '__ZN5alloc11collections5btree4node40NodeRef$LT$BorrowType$C$K$C$V$C$Type$GT$6ascend17h132075471eee2f40E', symObjAddr: 0x1D0D4, symBinAddr: 0x44F00, symSize: 0x154 }
  - { offset: 0x1090A3, size: 0x8, addend: 0x0, symName: '__ZN5alloc11collections5btree4node40NodeRef$LT$BorrowType$C$K$C$V$C$Type$GT$6ascend17h2863aa0d9f19b924E', symObjAddr: 0x1D228, symBinAddr: 0x45054, symSize: 0x154 }
  - { offset: 0x109359, size: 0x8, addend: 0x0, symName: '__ZN5alloc11collections5btree4node40NodeRef$LT$BorrowType$C$K$C$V$C$Type$GT$6ascend17h404c100900ae641cE', symObjAddr: 0x1D37C, symBinAddr: 0x451A8, symSize: 0x154 }
  - { offset: 0x1095E8, size: 0x8, addend: 0x0, symName: '__ZN5alloc11collections5btree4node40NodeRef$LT$BorrowType$C$K$C$V$C$Type$GT$6ascend17h4094c16adf08e1edE', symObjAddr: 0x1D4D0, symBinAddr: 0x452FC, symSize: 0x154 }
  - { offset: 0x10989E, size: 0x8, addend: 0x0, symName: '__ZN5alloc11collections5btree4node40NodeRef$LT$BorrowType$C$K$C$V$C$Type$GT$6ascend17h4913cd7fd7d02d25E', symObjAddr: 0x1D624, symBinAddr: 0x45450, symSize: 0x154 }
  - { offset: 0x109B2D, size: 0x8, addend: 0x0, symName: '__ZN5alloc11collections5btree4node40NodeRef$LT$BorrowType$C$K$C$V$C$Type$GT$6ascend17h5653c3595c466a87E', symObjAddr: 0x1D778, symBinAddr: 0x455A4, symSize: 0x154 }
  - { offset: 0x109DE3, size: 0x8, addend: 0x0, symName: '__ZN5alloc11collections5btree4node40NodeRef$LT$BorrowType$C$K$C$V$C$Type$GT$6ascend17h5c3de317dabdd272E', symObjAddr: 0x1D8CC, symBinAddr: 0x456F8, symSize: 0x154 }
  - { offset: 0x10A099, size: 0x8, addend: 0x0, symName: '__ZN5alloc11collections5btree4node40NodeRef$LT$BorrowType$C$K$C$V$C$Type$GT$6ascend17h67db58e0f45a1813E', symObjAddr: 0x1DA20, symBinAddr: 0x4584C, symSize: 0x154 }
  - { offset: 0x10A34F, size: 0x8, addend: 0x0, symName: '__ZN5alloc11collections5btree4node40NodeRef$LT$BorrowType$C$K$C$V$C$Type$GT$6ascend17h69749053043d247eE', symObjAddr: 0x1DB74, symBinAddr: 0x459A0, symSize: 0x154 }
  - { offset: 0x10A605, size: 0x8, addend: 0x0, symName: '__ZN5alloc11collections5btree4node40NodeRef$LT$BorrowType$C$K$C$V$C$Type$GT$6ascend17h6cb032d269f87e28E', symObjAddr: 0x1DCC8, symBinAddr: 0x45AF4, symSize: 0x154 }
  - { offset: 0x10A8BB, size: 0x8, addend: 0x0, symName: '__ZN5alloc11collections5btree4node40NodeRef$LT$BorrowType$C$K$C$V$C$Type$GT$6ascend17h7a15dd37d5a441beE', symObjAddr: 0x1DE1C, symBinAddr: 0x45C48, symSize: 0x154 }
  - { offset: 0x10AB4A, size: 0x8, addend: 0x0, symName: '__ZN5alloc11collections5btree4node40NodeRef$LT$BorrowType$C$K$C$V$C$Type$GT$6ascend17h7b05f9730a43990aE', symObjAddr: 0x1DF70, symBinAddr: 0x45D9C, symSize: 0x154 }
  - { offset: 0x10ADD9, size: 0x8, addend: 0x0, symName: '__ZN5alloc11collections5btree4node40NodeRef$LT$BorrowType$C$K$C$V$C$Type$GT$6ascend17h884fa406db1e5a98E', symObjAddr: 0x1E0C4, symBinAddr: 0x45EF0, symSize: 0x154 }
  - { offset: 0x10B068, size: 0x8, addend: 0x0, symName: '__ZN5alloc11collections5btree4node40NodeRef$LT$BorrowType$C$K$C$V$C$Type$GT$6ascend17ha0d1fd3f2681aef1E', symObjAddr: 0x1E218, symBinAddr: 0x46044, symSize: 0x154 }
  - { offset: 0x10B2F7, size: 0x8, addend: 0x0, symName: '__ZN5alloc11collections5btree4node40NodeRef$LT$BorrowType$C$K$C$V$C$Type$GT$6ascend17ha309afb97d8112e4E', symObjAddr: 0x1E36C, symBinAddr: 0x46198, symSize: 0x154 }
  - { offset: 0x10B586, size: 0x8, addend: 0x0, symName: '__ZN5alloc11collections5btree4node40NodeRef$LT$BorrowType$C$K$C$V$C$Type$GT$6ascend17ha5235f0cd8303dffE', symObjAddr: 0x1E4C0, symBinAddr: 0x462EC, symSize: 0x154 }
  - { offset: 0x10B815, size: 0x8, addend: 0x0, symName: '__ZN5alloc11collections5btree4node40NodeRef$LT$BorrowType$C$K$C$V$C$Type$GT$6ascend17ha7c1eec290a68357E', symObjAddr: 0x1E614, symBinAddr: 0x46440, symSize: 0x154 }
  - { offset: 0x10BAA4, size: 0x8, addend: 0x0, symName: '__ZN5alloc11collections5btree4node40NodeRef$LT$BorrowType$C$K$C$V$C$Type$GT$6ascend17ha8f151e7021e9538E', symObjAddr: 0x1E768, symBinAddr: 0x46594, symSize: 0x154 }
  - { offset: 0x10BD33, size: 0x8, addend: 0x0, symName: '__ZN5alloc11collections5btree4node40NodeRef$LT$BorrowType$C$K$C$V$C$Type$GT$6ascend17haae92aa9e5e55c01E', symObjAddr: 0x1E8BC, symBinAddr: 0x466E8, symSize: 0x154 }
  - { offset: 0x10BFC2, size: 0x8, addend: 0x0, symName: '__ZN5alloc11collections5btree4node40NodeRef$LT$BorrowType$C$K$C$V$C$Type$GT$6ascend17hba4ae955e35fe3f9E', symObjAddr: 0x1EA10, symBinAddr: 0x4683C, symSize: 0x154 }
  - { offset: 0x10C278, size: 0x8, addend: 0x0, symName: '__ZN5alloc11collections5btree4node40NodeRef$LT$BorrowType$C$K$C$V$C$Type$GT$6ascend17hc532e5e74439e6efE', symObjAddr: 0x1EB64, symBinAddr: 0x46990, symSize: 0x154 }
  - { offset: 0x10C52E, size: 0x8, addend: 0x0, symName: '__ZN5alloc11collections5btree4node40NodeRef$LT$BorrowType$C$K$C$V$C$Type$GT$6ascend17hc7149d1e73c9272bE', symObjAddr: 0x1ECB8, symBinAddr: 0x46AE4, symSize: 0x154 }
  - { offset: 0x10C7BD, size: 0x8, addend: 0x0, symName: '__ZN5alloc11collections5btree4node40NodeRef$LT$BorrowType$C$K$C$V$C$Type$GT$6ascend17hd3105f4b76b99f95E', symObjAddr: 0x1EE0C, symBinAddr: 0x46C38, symSize: 0x154 }
  - { offset: 0x10CA4C, size: 0x8, addend: 0x0, symName: '__ZN5alloc11collections5btree4node40NodeRef$LT$BorrowType$C$K$C$V$C$Type$GT$6ascend17hd5bbaf598d623941E', symObjAddr: 0x1EF60, symBinAddr: 0x46D8C, symSize: 0x154 }
  - { offset: 0x10CCDB, size: 0x8, addend: 0x0, symName: '__ZN5alloc11collections5btree4node40NodeRef$LT$BorrowType$C$K$C$V$C$Type$GT$6ascend17hd70376288b0c5a6aE', symObjAddr: 0x1F0B4, symBinAddr: 0x46EE0, symSize: 0x154 }
  - { offset: 0x10CF6A, size: 0x8, addend: 0x0, symName: '__ZN5alloc11collections5btree4node40NodeRef$LT$BorrowType$C$K$C$V$C$Type$GT$6ascend17hee2953460a449871E', symObjAddr: 0x1F208, symBinAddr: 0x47034, symSize: 0x154 }
  - { offset: 0x10D1F9, size: 0x8, addend: 0x0, symName: '__ZN5alloc11collections5btree4node40NodeRef$LT$BorrowType$C$K$C$V$C$Type$GT$6ascend17hf9103b2d040b03d2E', symObjAddr: 0x1F35C, symBinAddr: 0x47188, symSize: 0x154 }
  - { offset: 0x10D488, size: 0x8, addend: 0x0, symName: '__ZN5alloc11collections5btree4node40NodeRef$LT$BorrowType$C$K$C$V$C$Type$GT$6ascend17hf944277c505675beE', symObjAddr: 0x1F4B0, symBinAddr: 0x472DC, symSize: 0x154 }
  - { offset: 0x10D6CA, size: 0x8, addend: 0x0, symName: '__ZN5alloc11collections5btree4node76NodeRef$LT$alloc..collections..btree..node..marker..Immut$C$K$C$V$C$Type$GT$4keys17h1506e158d5d814c6E', symObjAddr: 0x1F604, symBinAddr: 0x47430, symSize: 0xA8 }
  - { offset: 0x10D88D, size: 0x8, addend: 0x0, symName: '__ZN5alloc11collections5btree4node76NodeRef$LT$alloc..collections..btree..node..marker..Immut$C$K$C$V$C$Type$GT$4keys17h240457eeb51cb17fE', symObjAddr: 0x1F6AC, symBinAddr: 0x474D8, symSize: 0xA8 }
  - { offset: 0x10DA6A, size: 0x8, addend: 0x0, symName: '__ZN5alloc11collections5btree4node76NodeRef$LT$alloc..collections..btree..node..marker..Immut$C$K$C$V$C$Type$GT$4keys17h41a9ed222c156331E', symObjAddr: 0x1F754, symBinAddr: 0x47580, symSize: 0xA8 }
  - { offset: 0x10DCAA, size: 0x8, addend: 0x0, symName: '__ZN5alloc11collections5btree4node76NodeRef$LT$alloc..collections..btree..node..marker..Immut$C$K$C$V$C$Type$GT$4keys17h45d0fe6e00307628E', symObjAddr: 0x1F7FC, symBinAddr: 0x47628, symSize: 0xA8 }
  - { offset: 0x10DEB2, size: 0x8, addend: 0x0, symName: '__ZN5alloc11collections5btree4node76NodeRef$LT$alloc..collections..btree..node..marker..Immut$C$K$C$V$C$Type$GT$4keys17h5cdf2b95df041135E', symObjAddr: 0x1F8A4, symBinAddr: 0x476D0, symSize: 0xA8 }
  - { offset: 0x10E075, size: 0x8, addend: 0x0, symName: '__ZN5alloc11collections5btree4node76NodeRef$LT$alloc..collections..btree..node..marker..Immut$C$K$C$V$C$Type$GT$4keys17h7911a6809f3f3c4fE', symObjAddr: 0x1F94C, symBinAddr: 0x47778, symSize: 0xA8 }
  - { offset: 0x10E252, size: 0x8, addend: 0x0, symName: '__ZN5alloc11collections5btree4node76NodeRef$LT$alloc..collections..btree..node..marker..Immut$C$K$C$V$C$Type$GT$4keys17h7aee4d75b817e6c1E', symObjAddr: 0x1F9F4, symBinAddr: 0x47820, symSize: 0xA8 }
  - { offset: 0x10E415, size: 0x8, addend: 0x0, symName: '__ZN5alloc11collections5btree4node76NodeRef$LT$alloc..collections..btree..node..marker..Immut$C$K$C$V$C$Type$GT$4keys17h87d745f949064f6eE', symObjAddr: 0x1FA9C, symBinAddr: 0x478C8, symSize: 0xA8 }
  - { offset: 0x10E5D8, size: 0x8, addend: 0x0, symName: '__ZN5alloc11collections5btree4node76NodeRef$LT$alloc..collections..btree..node..marker..Immut$C$K$C$V$C$Type$GT$4keys17h8fbe1e3130cf438cE', symObjAddr: 0x1FB44, symBinAddr: 0x47970, symSize: 0xA8 }
  - { offset: 0x10E7E0, size: 0x8, addend: 0x0, symName: '__ZN5alloc11collections5btree4node76NodeRef$LT$alloc..collections..btree..node..marker..Immut$C$K$C$V$C$Type$GT$4keys17he9a8e927295f9f87E', symObjAddr: 0x1FBEC, symBinAddr: 0x47A18, symSize: 0xA8 }
  - { offset: 0x10EB9B, size: 0x8, addend: 0x0, symName: '__ZN5alloc11collections5btree6append178_$LT$impl$u20$alloc..collections..btree..node..NodeRef$LT$alloc..collections..btree..node..marker..Owned$C$K$C$V$C$alloc..collections..btree..node..marker..LeafOrInternal$GT$$GT$9bulk_push17h9388f156d1f0fe62E', symObjAddr: 0x20220, symBinAddr: 0x4804C, symSize: 0x4C0 }
  - { offset: 0x10F1A7, size: 0x8, addend: 0x0, symName: '__ZN5alloc11collections5btree6append178_$LT$impl$u20$alloc..collections..btree..node..NodeRef$LT$alloc..collections..btree..node..marker..Owned$C$K$C$V$C$alloc..collections..btree..node..marker..LeafOrInternal$GT$$GT$9bulk_push17hcf840631759b7773E', symObjAddr: 0x206E0, symBinAddr: 0x4850C, symSize: 0x4D8 }
  - { offset: 0x10F7A6, size: 0x8, addend: 0x0, symName: '__ZN5alloc11collections5btree6append178_$LT$impl$u20$alloc..collections..btree..node..NodeRef$LT$alloc..collections..btree..node..marker..Owned$C$K$C$V$C$alloc..collections..btree..node..marker..LeafOrInternal$GT$$GT$9bulk_push17hdc7a9ce6365c0a84E', symObjAddr: 0x20BB8, symBinAddr: 0x489E4, symSize: 0x47C }
  - { offset: 0x10FCCE, size: 0x8, addend: 0x0, symName: '__ZN5alloc11collections5btree6search142_$LT$impl$u20$alloc..collections..btree..node..NodeRef$LT$BorrowType$C$K$C$V$C$alloc..collections..btree..node..marker..LeafOrInternal$GT$$GT$11search_tree17h0c5631c8f2ceab57E', symObjAddr: 0x21034, symBinAddr: 0x48E60, symSize: 0x24C }
  - { offset: 0x110023, size: 0x8, addend: 0x0, symName: '__ZN5alloc11collections5btree6search142_$LT$impl$u20$alloc..collections..btree..node..NodeRef$LT$BorrowType$C$K$C$V$C$alloc..collections..btree..node..marker..LeafOrInternal$GT$$GT$11search_tree17h18153854d4f33311E', symObjAddr: 0x21280, symBinAddr: 0x490AC, symSize: 0x240 }
  - { offset: 0x110378, size: 0x8, addend: 0x0, symName: '__ZN5alloc11collections5btree6search142_$LT$impl$u20$alloc..collections..btree..node..NodeRef$LT$BorrowType$C$K$C$V$C$alloc..collections..btree..node..marker..LeafOrInternal$GT$$GT$11search_tree17h4739eda41f38ea68E', symObjAddr: 0x214C0, symBinAddr: 0x492EC, symSize: 0x240 }
  - { offset: 0x1106CD, size: 0x8, addend: 0x0, symName: '__ZN5alloc11collections5btree6search142_$LT$impl$u20$alloc..collections..btree..node..NodeRef$LT$BorrowType$C$K$C$V$C$alloc..collections..btree..node..marker..LeafOrInternal$GT$$GT$11search_tree17h4f416f90bd274ea8E', symObjAddr: 0x21700, symBinAddr: 0x4952C, symSize: 0x240 }
  - { offset: 0x110A22, size: 0x8, addend: 0x0, symName: '__ZN5alloc11collections5btree6search142_$LT$impl$u20$alloc..collections..btree..node..NodeRef$LT$BorrowType$C$K$C$V$C$alloc..collections..btree..node..marker..LeafOrInternal$GT$$GT$11search_tree17h5a0252d61d961f69E', symObjAddr: 0x21940, symBinAddr: 0x4976C, symSize: 0x240 }
  - { offset: 0x110D77, size: 0x8, addend: 0x0, symName: '__ZN5alloc11collections5btree6search142_$LT$impl$u20$alloc..collections..btree..node..NodeRef$LT$BorrowType$C$K$C$V$C$alloc..collections..btree..node..marker..LeafOrInternal$GT$$GT$11search_tree17h6039a2dc16427bd7E', symObjAddr: 0x21B80, symBinAddr: 0x499AC, symSize: 0x240 }
  - { offset: 0x1110CC, size: 0x8, addend: 0x0, symName: '__ZN5alloc11collections5btree6search142_$LT$impl$u20$alloc..collections..btree..node..NodeRef$LT$BorrowType$C$K$C$V$C$alloc..collections..btree..node..marker..LeafOrInternal$GT$$GT$11search_tree17h7c52cc030ad0a79fE', symObjAddr: 0x21DC0, symBinAddr: 0x49BEC, symSize: 0x240 }
  - { offset: 0x111421, size: 0x8, addend: 0x0, symName: '__ZN5alloc11collections5btree6search142_$LT$impl$u20$alloc..collections..btree..node..NodeRef$LT$BorrowType$C$K$C$V$C$alloc..collections..btree..node..marker..LeafOrInternal$GT$$GT$11search_tree17h8cccc0e932ce0d96E', symObjAddr: 0x22000, symBinAddr: 0x49E2C, symSize: 0x240 }
  - { offset: 0x111776, size: 0x8, addend: 0x0, symName: '__ZN5alloc11collections5btree6search142_$LT$impl$u20$alloc..collections..btree..node..NodeRef$LT$BorrowType$C$K$C$V$C$alloc..collections..btree..node..marker..LeafOrInternal$GT$$GT$11search_tree17ha213da99bc68d1b2E', symObjAddr: 0x22240, symBinAddr: 0x4A06C, symSize: 0x240 }
  - { offset: 0x111AD8, size: 0x8, addend: 0x0, symName: '__ZN5alloc11collections5btree6search142_$LT$impl$u20$alloc..collections..btree..node..NodeRef$LT$BorrowType$C$K$C$V$C$alloc..collections..btree..node..marker..LeafOrInternal$GT$$GT$11search_tree17ha95fa1eccf865e64E', symObjAddr: 0x22480, symBinAddr: 0x4A2AC, symSize: 0x240 }
  - { offset: 0x111E2D, size: 0x8, addend: 0x0, symName: '__ZN5alloc11collections5btree6search142_$LT$impl$u20$alloc..collections..btree..node..NodeRef$LT$BorrowType$C$K$C$V$C$alloc..collections..btree..node..marker..LeafOrInternal$GT$$GT$11search_tree17hcd457bce29addd8cE', symObjAddr: 0x226C0, symBinAddr: 0x4A4EC, symSize: 0x24C }
  - { offset: 0x112182, size: 0x8, addend: 0x0, symName: '__ZN5alloc11collections5btree6search142_$LT$impl$u20$alloc..collections..btree..node..NodeRef$LT$BorrowType$C$K$C$V$C$alloc..collections..btree..node..marker..LeafOrInternal$GT$$GT$11search_tree17hd28b854685d9b716E', symObjAddr: 0x2290C, symBinAddr: 0x4A738, symSize: 0x240 }
  - { offset: 0x1124D7, size: 0x8, addend: 0x0, symName: '__ZN5alloc11collections5btree6search142_$LT$impl$u20$alloc..collections..btree..node..NodeRef$LT$BorrowType$C$K$C$V$C$alloc..collections..btree..node..marker..LeafOrInternal$GT$$GT$11search_tree17hda5c4eac6b11dc29E', symObjAddr: 0x22B4C, symBinAddr: 0x4A978, symSize: 0x240 }
  - { offset: 0x11282C, size: 0x8, addend: 0x0, symName: '__ZN5alloc11collections5btree6search142_$LT$impl$u20$alloc..collections..btree..node..NodeRef$LT$BorrowType$C$K$C$V$C$alloc..collections..btree..node..marker..LeafOrInternal$GT$$GT$11search_tree17hfbdb7abc20678b15E', symObjAddr: 0x22D8C, symBinAddr: 0x4ABB8, symSize: 0x240 }
  - { offset: 0x112B18, size: 0x8, addend: 0x0, symName: '__ZN5alloc11collections5btree6search91_$LT$impl$u20$alloc..collections..btree..node..NodeRef$LT$BorrowType$C$K$C$V$C$Type$GT$$GT$14find_key_index17h128f40d43e44a99aE', symObjAddr: 0x22FCC, symBinAddr: 0x4ADF8, symSize: 0x1FC }
  - { offset: 0x112F65, size: 0x8, addend: 0x0, symName: '__ZN5alloc11collections5btree6search91_$LT$impl$u20$alloc..collections..btree..node..NodeRef$LT$BorrowType$C$K$C$V$C$Type$GT$$GT$14find_key_index17h143f3fd0ca754f33E', symObjAddr: 0x231C8, symBinAddr: 0x4AFF4, symSize: 0x1DC }
  - { offset: 0x113387, size: 0x8, addend: 0x0, symName: '__ZN5alloc11collections5btree6search91_$LT$impl$u20$alloc..collections..btree..node..NodeRef$LT$BorrowType$C$K$C$V$C$Type$GT$$GT$14find_key_index17h18cd912bcbaf118aE', symObjAddr: 0x233A4, symBinAddr: 0x4B1D0, symSize: 0x1FC }
  - { offset: 0x1137A9, size: 0x8, addend: 0x0, symName: '__ZN5alloc11collections5btree6search91_$LT$impl$u20$alloc..collections..btree..node..NodeRef$LT$BorrowType$C$K$C$V$C$Type$GT$$GT$14find_key_index17h25e2e94fd0635991E', symObjAddr: 0x235A0, symBinAddr: 0x4B3CC, symSize: 0x1EC }
  - { offset: 0x113BCB, size: 0x8, addend: 0x0, symName: '__ZN5alloc11collections5btree6search91_$LT$impl$u20$alloc..collections..btree..node..NodeRef$LT$BorrowType$C$K$C$V$C$Type$GT$$GT$14find_key_index17h27dc1d1960df8446E', symObjAddr: 0x2378C, symBinAddr: 0x4B5B8, symSize: 0x1EC }
  - { offset: 0x114018, size: 0x8, addend: 0x0, symName: '__ZN5alloc11collections5btree6search91_$LT$impl$u20$alloc..collections..btree..node..NodeRef$LT$BorrowType$C$K$C$V$C$Type$GT$$GT$14find_key_index17h347a879062a818dcE', symObjAddr: 0x23978, symBinAddr: 0x4B7A4, symSize: 0x1DC }
  - { offset: 0x11443A, size: 0x8, addend: 0x0, symName: '__ZN5alloc11collections5btree6search91_$LT$impl$u20$alloc..collections..btree..node..NodeRef$LT$BorrowType$C$K$C$V$C$Type$GT$$GT$14find_key_index17h713f783a15d31327E', symObjAddr: 0x23B54, symBinAddr: 0x4B980, symSize: 0x1EC }
  - { offset: 0x11485C, size: 0x8, addend: 0x0, symName: '__ZN5alloc11collections5btree6search91_$LT$impl$u20$alloc..collections..btree..node..NodeRef$LT$BorrowType$C$K$C$V$C$Type$GT$$GT$14find_key_index17h82a8408d9ff45a78E', symObjAddr: 0x23D40, symBinAddr: 0x4BB6C, symSize: 0x1EC }
  - { offset: 0x114C7E, size: 0x8, addend: 0x0, symName: '__ZN5alloc11collections5btree6search91_$LT$impl$u20$alloc..collections..btree..node..NodeRef$LT$BorrowType$C$K$C$V$C$Type$GT$$GT$14find_key_index17h91599c86de6d18b1E', symObjAddr: 0x23F2C, symBinAddr: 0x4BD58, symSize: 0x1DC }
  - { offset: 0x1150A0, size: 0x8, addend: 0x0, symName: '__ZN5alloc11collections5btree6search91_$LT$impl$u20$alloc..collections..btree..node..NodeRef$LT$BorrowType$C$K$C$V$C$Type$GT$$GT$14find_key_index17h973c277e954d4792E', symObjAddr: 0x24108, symBinAddr: 0x4BF34, symSize: 0x1EC }
  - { offset: 0x1154C2, size: 0x8, addend: 0x0, symName: '__ZN5alloc11collections5btree6search91_$LT$impl$u20$alloc..collections..btree..node..NodeRef$LT$BorrowType$C$K$C$V$C$Type$GT$$GT$14find_key_index17ha5f4cac25d56cc6dE', symObjAddr: 0x242F4, symBinAddr: 0x4C120, symSize: 0x1EC }
  - { offset: 0x11590F, size: 0x8, addend: 0x0, symName: '__ZN5alloc11collections5btree6search91_$LT$impl$u20$alloc..collections..btree..node..NodeRef$LT$BorrowType$C$K$C$V$C$Type$GT$$GT$14find_key_index17hcdf2d9cc790cd2fbE', symObjAddr: 0x244E0, symBinAddr: 0x4C30C, symSize: 0x1DC }
  - { offset: 0x115D31, size: 0x8, addend: 0x0, symName: '__ZN5alloc11collections5btree6search91_$LT$impl$u20$alloc..collections..btree..node..NodeRef$LT$BorrowType$C$K$C$V$C$Type$GT$$GT$14find_key_index17heea9237c6f3e282aE', symObjAddr: 0x246BC, symBinAddr: 0x4C4E8, symSize: 0x1EC }
  - { offset: 0x116153, size: 0x8, addend: 0x0, symName: '__ZN5alloc11collections5btree6search91_$LT$impl$u20$alloc..collections..btree..node..NodeRef$LT$BorrowType$C$K$C$V$C$Type$GT$$GT$14find_key_index17hf545aef897b489c8E', symObjAddr: 0x248A8, symBinAddr: 0x4C6D4, symSize: 0x1EC }
  - { offset: 0x1165D4, size: 0x8, addend: 0x0, symName: '__ZN5alloc11collections5btree8navigate142_$LT$impl$u20$alloc..collections..btree..node..NodeRef$LT$BorrowType$C$K$C$V$C$alloc..collections..btree..node..marker..LeafOrInternal$GT$$GT$14last_leaf_edge17hc5dfa0d56e6f36c5E', symObjAddr: 0x24A94, symBinAddr: 0x4C8C0, symSize: 0xCC }
  - { offset: 0x11686B, size: 0x8, addend: 0x0, symName: '__ZN5alloc11collections5btree8navigate142_$LT$impl$u20$alloc..collections..btree..node..NodeRef$LT$BorrowType$C$K$C$V$C$alloc..collections..btree..node..marker..LeafOrInternal$GT$$GT$14last_leaf_edge17hfbff15d1861106caE', symObjAddr: 0x24B60, symBinAddr: 0x4C98C, symSize: 0xCC }
  - { offset: 0x116B02, size: 0x8, addend: 0x0, symName: '__ZN5alloc11collections5btree8navigate142_$LT$impl$u20$alloc..collections..btree..node..NodeRef$LT$BorrowType$C$K$C$V$C$alloc..collections..btree..node..marker..LeafOrInternal$GT$$GT$14last_leaf_edge17hff575e88df538c7bE', symObjAddr: 0x24C2C, symBinAddr: 0x4CA58, symSize: 0xCC }
  - { offset: 0x116DC1, size: 0x8, addend: 0x0, symName: '__ZN5alloc11collections5btree8navigate227_$LT$impl$u20$alloc..collections..btree..node..Handle$LT$alloc..collections..btree..node..NodeRef$LT$BorrowType$C$K$C$V$C$alloc..collections..btree..node..marker..Leaf$GT$$C$alloc..collections..btree..node..marker..Edge$GT$$GT$7next_kv17h19b967b08841e1dbE', symObjAddr: 0x24CF8, symBinAddr: 0x4CB24, symSize: 0x16C }
  - { offset: 0x1170FA, size: 0x8, addend: 0x0, symName: '__ZN5alloc11collections5btree8navigate227_$LT$impl$u20$alloc..collections..btree..node..Handle$LT$alloc..collections..btree..node..NodeRef$LT$BorrowType$C$K$C$V$C$alloc..collections..btree..node..marker..Leaf$GT$$C$alloc..collections..btree..node..marker..Edge$GT$$GT$7next_kv17h203423fd06cd5cbdE', symObjAddr: 0x24E64, symBinAddr: 0x4CC90, symSize: 0x16C }
  - { offset: 0x117433, size: 0x8, addend: 0x0, symName: '__ZN5alloc11collections5btree8navigate227_$LT$impl$u20$alloc..collections..btree..node..Handle$LT$alloc..collections..btree..node..NodeRef$LT$BorrowType$C$K$C$V$C$alloc..collections..btree..node..marker..Leaf$GT$$C$alloc..collections..btree..node..marker..Edge$GT$$GT$7next_kv17h2414c7ef101100c3E', symObjAddr: 0x24FD0, symBinAddr: 0x4CDFC, symSize: 0x16C }
  - { offset: 0x11776C, size: 0x8, addend: 0x0, symName: '__ZN5alloc11collections5btree8navigate227_$LT$impl$u20$alloc..collections..btree..node..Handle$LT$alloc..collections..btree..node..NodeRef$LT$BorrowType$C$K$C$V$C$alloc..collections..btree..node..marker..Leaf$GT$$C$alloc..collections..btree..node..marker..Edge$GT$$GT$7next_kv17h510d76bc852b0fa7E', symObjAddr: 0x2513C, symBinAddr: 0x4CF68, symSize: 0x16C }
  - { offset: 0x117AA5, size: 0x8, addend: 0x0, symName: '__ZN5alloc11collections5btree8navigate227_$LT$impl$u20$alloc..collections..btree..node..Handle$LT$alloc..collections..btree..node..NodeRef$LT$BorrowType$C$K$C$V$C$alloc..collections..btree..node..marker..Leaf$GT$$C$alloc..collections..btree..node..marker..Edge$GT$$GT$7next_kv17h848ab1bd493e33d3E', symObjAddr: 0x252A8, symBinAddr: 0x4D0D4, symSize: 0x16C }
  - { offset: 0x117DDE, size: 0x8, addend: 0x0, symName: '__ZN5alloc11collections5btree8navigate227_$LT$impl$u20$alloc..collections..btree..node..Handle$LT$alloc..collections..btree..node..NodeRef$LT$BorrowType$C$K$C$V$C$alloc..collections..btree..node..marker..Leaf$GT$$C$alloc..collections..btree..node..marker..Edge$GT$$GT$7next_kv17hc06b3650f2c61aedE', symObjAddr: 0x25414, symBinAddr: 0x4D240, symSize: 0x16C }
  - { offset: 0x1181BA, size: 0x8, addend: 0x0, symName: '__ZN5alloc11collections5btree8navigate235_$LT$impl$u20$alloc..collections..btree..node..Handle$LT$alloc..collections..btree..node..NodeRef$LT$BorrowType$C$K$C$V$C$alloc..collections..btree..node..marker..LeafOrInternal$GT$$C$alloc..collections..btree..node..marker..KV$GT$$GT$14next_leaf_edge17h0543ab468a47df86E', symObjAddr: 0x25580, symBinAddr: 0x4D3AC, symSize: 0x1F0 }
  - { offset: 0x11865D, size: 0x8, addend: 0x0, symName: '__ZN5alloc11collections5btree8navigate235_$LT$impl$u20$alloc..collections..btree..node..Handle$LT$alloc..collections..btree..node..NodeRef$LT$BorrowType$C$K$C$V$C$alloc..collections..btree..node..marker..LeafOrInternal$GT$$C$alloc..collections..btree..node..marker..KV$GT$$GT$14next_leaf_edge17h11c5be62acd0206aE', symObjAddr: 0x25770, symBinAddr: 0x4D59C, symSize: 0x1F0 }
  - { offset: 0x118AE2, size: 0x8, addend: 0x0, symName: '__ZN5alloc11collections5btree8navigate235_$LT$impl$u20$alloc..collections..btree..node..Handle$LT$alloc..collections..btree..node..NodeRef$LT$BorrowType$C$K$C$V$C$alloc..collections..btree..node..marker..LeafOrInternal$GT$$C$alloc..collections..btree..node..marker..KV$GT$$GT$14next_leaf_edge17h18f43a8fd2713b58E', symObjAddr: 0x25960, symBinAddr: 0x4D78C, symSize: 0x1F0 }
  - { offset: 0x118F67, size: 0x8, addend: 0x0, symName: '__ZN5alloc11collections5btree8navigate235_$LT$impl$u20$alloc..collections..btree..node..Handle$LT$alloc..collections..btree..node..NodeRef$LT$BorrowType$C$K$C$V$C$alloc..collections..btree..node..marker..LeafOrInternal$GT$$C$alloc..collections..btree..node..marker..KV$GT$$GT$14next_leaf_edge17h425de776e9754ea8E', symObjAddr: 0x25B50, symBinAddr: 0x4D97C, symSize: 0x1F0 }
  - { offset: 0x1193EC, size: 0x8, addend: 0x0, symName: '__ZN5alloc11collections5btree8navigate235_$LT$impl$u20$alloc..collections..btree..node..Handle$LT$alloc..collections..btree..node..NodeRef$LT$BorrowType$C$K$C$V$C$alloc..collections..btree..node..marker..LeafOrInternal$GT$$C$alloc..collections..btree..node..marker..KV$GT$$GT$14next_leaf_edge17h68f3b71d0d165888E', symObjAddr: 0x25D40, symBinAddr: 0x4DB6C, symSize: 0x1F0 }
  - { offset: 0x119871, size: 0x8, addend: 0x0, symName: '__ZN5alloc11collections5btree8navigate235_$LT$impl$u20$alloc..collections..btree..node..Handle$LT$alloc..collections..btree..node..NodeRef$LT$BorrowType$C$K$C$V$C$alloc..collections..btree..node..marker..LeafOrInternal$GT$$C$alloc..collections..btree..node..marker..KV$GT$$GT$14next_leaf_edge17h7096d819d7e7fa6eE', symObjAddr: 0x25F30, symBinAddr: 0x4DD5C, symSize: 0x1F0 }
  - { offset: 0x119CF6, size: 0x8, addend: 0x0, symName: '__ZN5alloc11collections5btree8navigate235_$LT$impl$u20$alloc..collections..btree..node..Handle$LT$alloc..collections..btree..node..NodeRef$LT$BorrowType$C$K$C$V$C$alloc..collections..btree..node..marker..LeafOrInternal$GT$$C$alloc..collections..btree..node..marker..KV$GT$$GT$14next_leaf_edge17h794b0b3a74bc98f5E', symObjAddr: 0x26120, symBinAddr: 0x4DF4C, symSize: 0x1F0 }
  - { offset: 0x11A17B, size: 0x8, addend: 0x0, symName: '__ZN5alloc11collections5btree8navigate235_$LT$impl$u20$alloc..collections..btree..node..Handle$LT$alloc..collections..btree..node..NodeRef$LT$BorrowType$C$K$C$V$C$alloc..collections..btree..node..marker..LeafOrInternal$GT$$C$alloc..collections..btree..node..marker..KV$GT$$GT$14next_leaf_edge17h9f1a0144a249fe55E', symObjAddr: 0x26310, symBinAddr: 0x4E13C, symSize: 0x1F0 }
  - { offset: 0x11A600, size: 0x8, addend: 0x0, symName: '__ZN5alloc11collections5btree8navigate235_$LT$impl$u20$alloc..collections..btree..node..Handle$LT$alloc..collections..btree..node..NodeRef$LT$BorrowType$C$K$C$V$C$alloc..collections..btree..node..marker..LeafOrInternal$GT$$C$alloc..collections..btree..node..marker..KV$GT$$GT$14next_leaf_edge17ha807696c9669454bE', symObjAddr: 0x26500, symBinAddr: 0x4E32C, symSize: 0x1F0 }
  - { offset: 0x11AA85, size: 0x8, addend: 0x0, symName: '__ZN5alloc11collections5btree8navigate235_$LT$impl$u20$alloc..collections..btree..node..Handle$LT$alloc..collections..btree..node..NodeRef$LT$BorrowType$C$K$C$V$C$alloc..collections..btree..node..marker..LeafOrInternal$GT$$C$alloc..collections..btree..node..marker..KV$GT$$GT$14next_leaf_edge17haecb5391cdad37faE', symObjAddr: 0x266F0, symBinAddr: 0x4E51C, symSize: 0x1F0 }
  - { offset: 0x11AF0A, size: 0x8, addend: 0x0, symName: '__ZN5alloc11collections5btree8navigate235_$LT$impl$u20$alloc..collections..btree..node..Handle$LT$alloc..collections..btree..node..NodeRef$LT$BorrowType$C$K$C$V$C$alloc..collections..btree..node..marker..LeafOrInternal$GT$$C$alloc..collections..btree..node..marker..KV$GT$$GT$14next_leaf_edge17haf0887aca766866cE', symObjAddr: 0x268E0, symBinAddr: 0x4E70C, symSize: 0x1F0 }
  - { offset: 0x11B38F, size: 0x8, addend: 0x0, symName: '__ZN5alloc11collections5btree8navigate235_$LT$impl$u20$alloc..collections..btree..node..Handle$LT$alloc..collections..btree..node..NodeRef$LT$BorrowType$C$K$C$V$C$alloc..collections..btree..node..marker..LeafOrInternal$GT$$C$alloc..collections..btree..node..marker..KV$GT$$GT$14next_leaf_edge17hcca5941e619429fdE', symObjAddr: 0x26AD0, symBinAddr: 0x4E8FC, symSize: 0x1F0 }
  - { offset: 0x11B814, size: 0x8, addend: 0x0, symName: '__ZN5alloc11collections5btree8navigate235_$LT$impl$u20$alloc..collections..btree..node..Handle$LT$alloc..collections..btree..node..NodeRef$LT$BorrowType$C$K$C$V$C$alloc..collections..btree..node..marker..LeafOrInternal$GT$$C$alloc..collections..btree..node..marker..KV$GT$$GT$14next_leaf_edge17hcf7b5ef5bfbb4e59E', symObjAddr: 0x26CC0, symBinAddr: 0x4EAEC, symSize: 0x1F0 }
  - { offset: 0x11BC99, size: 0x8, addend: 0x0, symName: '__ZN5alloc11collections5btree8navigate235_$LT$impl$u20$alloc..collections..btree..node..Handle$LT$alloc..collections..btree..node..NodeRef$LT$BorrowType$C$K$C$V$C$alloc..collections..btree..node..marker..LeafOrInternal$GT$$C$alloc..collections..btree..node..marker..KV$GT$$GT$14next_leaf_edge17hcff5147230e1ba4bE', symObjAddr: 0x26EB0, symBinAddr: 0x4ECDC, symSize: 0x1F0 }
  - { offset: 0x11C11E, size: 0x8, addend: 0x0, symName: '__ZN5alloc11collections5btree8navigate235_$LT$impl$u20$alloc..collections..btree..node..Handle$LT$alloc..collections..btree..node..NodeRef$LT$BorrowType$C$K$C$V$C$alloc..collections..btree..node..marker..LeafOrInternal$GT$$C$alloc..collections..btree..node..marker..KV$GT$$GT$14next_leaf_edge17hd8aa95ce51a9a1edE', symObjAddr: 0x270A0, symBinAddr: 0x4EECC, symSize: 0x1F0 }
  - { offset: 0x11C5A3, size: 0x8, addend: 0x0, symName: '__ZN5alloc11collections5btree8navigate235_$LT$impl$u20$alloc..collections..btree..node..Handle$LT$alloc..collections..btree..node..NodeRef$LT$BorrowType$C$K$C$V$C$alloc..collections..btree..node..marker..LeafOrInternal$GT$$C$alloc..collections..btree..node..marker..KV$GT$$GT$14next_leaf_edge17he1eb523be766b005E', symObjAddr: 0x27290, symBinAddr: 0x4F0BC, symSize: 0x1F0 }
  - { offset: 0x11CA28, size: 0x8, addend: 0x0, symName: '__ZN5alloc11collections5btree8navigate235_$LT$impl$u20$alloc..collections..btree..node..Handle$LT$alloc..collections..btree..node..NodeRef$LT$BorrowType$C$K$C$V$C$alloc..collections..btree..node..marker..LeafOrInternal$GT$$C$alloc..collections..btree..node..marker..KV$GT$$GT$14next_leaf_edge17hf18d530796456101E', symObjAddr: 0x27480, symBinAddr: 0x4F2AC, symSize: 0x1F0 }
  - { offset: 0x11CD3B, size: 0x8, addend: 0x0, symName: '__ZN5alloc11collections5btree8navigate263_$LT$impl$u20$alloc..collections..btree..node..Handle$LT$alloc..collections..btree..node..NodeRef$LT$alloc..collections..btree..node..marker..Dying$C$K$C$V$C$alloc..collections..btree..node..marker..Leaf$GT$$C$alloc..collections..btree..node..marker..Edge$GT$$GT$16deallocating_end17h3336add00be7f806E', symObjAddr: 0x27670, symBinAddr: 0x4F49C, symSize: 0xAC }
  - { offset: 0x11CEE1, size: 0x8, addend: 0x0, symName: '__ZN5alloc11collections5btree8navigate263_$LT$impl$u20$alloc..collections..btree..node..Handle$LT$alloc..collections..btree..node..NodeRef$LT$alloc..collections..btree..node..marker..Dying$C$K$C$V$C$alloc..collections..btree..node..marker..Leaf$GT$$C$alloc..collections..btree..node..marker..Edge$GT$$GT$16deallocating_end17h46d1a04ed956af97E', symObjAddr: 0x2771C, symBinAddr: 0x4F548, symSize: 0xAC }
  - { offset: 0x11D087, size: 0x8, addend: 0x0, symName: '__ZN5alloc11collections5btree8navigate263_$LT$impl$u20$alloc..collections..btree..node..Handle$LT$alloc..collections..btree..node..NodeRef$LT$alloc..collections..btree..node..marker..Dying$C$K$C$V$C$alloc..collections..btree..node..marker..Leaf$GT$$C$alloc..collections..btree..node..marker..Edge$GT$$GT$16deallocating_end17h5352041ed743e2f6E', symObjAddr: 0x277C8, symBinAddr: 0x4F5F4, symSize: 0xAC }
  - { offset: 0x11D22D, size: 0x8, addend: 0x0, symName: '__ZN5alloc11collections5btree8navigate263_$LT$impl$u20$alloc..collections..btree..node..Handle$LT$alloc..collections..btree..node..NodeRef$LT$alloc..collections..btree..node..marker..Dying$C$K$C$V$C$alloc..collections..btree..node..marker..Leaf$GT$$C$alloc..collections..btree..node..marker..Edge$GT$$GT$16deallocating_end17h5444ed49deb53b52E', symObjAddr: 0x27874, symBinAddr: 0x4F6A0, symSize: 0xAC }
  - { offset: 0x11D3D3, size: 0x8, addend: 0x0, symName: '__ZN5alloc11collections5btree8navigate263_$LT$impl$u20$alloc..collections..btree..node..Handle$LT$alloc..collections..btree..node..NodeRef$LT$alloc..collections..btree..node..marker..Dying$C$K$C$V$C$alloc..collections..btree..node..marker..Leaf$GT$$C$alloc..collections..btree..node..marker..Edge$GT$$GT$16deallocating_end17h603ef8e23c941451E', symObjAddr: 0x27920, symBinAddr: 0x4F74C, symSize: 0xAC }
  - { offset: 0x11D579, size: 0x8, addend: 0x0, symName: '__ZN5alloc11collections5btree8navigate263_$LT$impl$u20$alloc..collections..btree..node..Handle$LT$alloc..collections..btree..node..NodeRef$LT$alloc..collections..btree..node..marker..Dying$C$K$C$V$C$alloc..collections..btree..node..marker..Leaf$GT$$C$alloc..collections..btree..node..marker..Edge$GT$$GT$16deallocating_end17h6c941a6e9c6afe85E', symObjAddr: 0x279CC, symBinAddr: 0x4F7F8, symSize: 0xAC }
  - { offset: 0x11D71F, size: 0x8, addend: 0x0, symName: '__ZN5alloc11collections5btree8navigate263_$LT$impl$u20$alloc..collections..btree..node..Handle$LT$alloc..collections..btree..node..NodeRef$LT$alloc..collections..btree..node..marker..Dying$C$K$C$V$C$alloc..collections..btree..node..marker..Leaf$GT$$C$alloc..collections..btree..node..marker..Edge$GT$$GT$16deallocating_end17h72d16d5bf34f7137E', symObjAddr: 0x27A78, symBinAddr: 0x4F8A4, symSize: 0xAC }
  - { offset: 0x11D8C5, size: 0x8, addend: 0x0, symName: '__ZN5alloc11collections5btree8navigate263_$LT$impl$u20$alloc..collections..btree..node..Handle$LT$alloc..collections..btree..node..NodeRef$LT$alloc..collections..btree..node..marker..Dying$C$K$C$V$C$alloc..collections..btree..node..marker..Leaf$GT$$C$alloc..collections..btree..node..marker..Edge$GT$$GT$16deallocating_end17h7f87f2da1aae8807E', symObjAddr: 0x27B24, symBinAddr: 0x4F950, symSize: 0xAC }
  - { offset: 0x11DA6B, size: 0x8, addend: 0x0, symName: '__ZN5alloc11collections5btree8navigate263_$LT$impl$u20$alloc..collections..btree..node..Handle$LT$alloc..collections..btree..node..NodeRef$LT$alloc..collections..btree..node..marker..Dying$C$K$C$V$C$alloc..collections..btree..node..marker..Leaf$GT$$C$alloc..collections..btree..node..marker..Edge$GT$$GT$16deallocating_end17hc8dcd71e81dd9919E', symObjAddr: 0x27BD0, symBinAddr: 0x4F9FC, symSize: 0xAC }
  - { offset: 0x11DC11, size: 0x8, addend: 0x0, symName: '__ZN5alloc11collections5btree8navigate263_$LT$impl$u20$alloc..collections..btree..node..Handle$LT$alloc..collections..btree..node..NodeRef$LT$alloc..collections..btree..node..marker..Dying$C$K$C$V$C$alloc..collections..btree..node..marker..Leaf$GT$$C$alloc..collections..btree..node..marker..Edge$GT$$GT$16deallocating_end17hf03d15097a1813ceE', symObjAddr: 0x27C7C, symBinAddr: 0x4FAA8, symSize: 0xAC }
  - { offset: 0x11DDB7, size: 0x8, addend: 0x0, symName: '__ZN5alloc11collections5btree8navigate263_$LT$impl$u20$alloc..collections..btree..node..Handle$LT$alloc..collections..btree..node..NodeRef$LT$alloc..collections..btree..node..marker..Dying$C$K$C$V$C$alloc..collections..btree..node..marker..Leaf$GT$$C$alloc..collections..btree..node..marker..Edge$GT$$GT$16deallocating_end17hf9760d25a8388aeeE', symObjAddr: 0x27D28, symBinAddr: 0x4FB54, symSize: 0xAC }
  - { offset: 0x11E057, size: 0x8, addend: 0x0, symName: '__ZN5alloc11collections5btree8navigate263_$LT$impl$u20$alloc..collections..btree..node..Handle$LT$alloc..collections..btree..node..NodeRef$LT$alloc..collections..btree..node..marker..Dying$C$K$C$V$C$alloc..collections..btree..node..marker..Leaf$GT$$C$alloc..collections..btree..node..marker..Edge$GT$$GT$17deallocating_next17h36bb28a2ae242778E', symObjAddr: 0x27DD4, symBinAddr: 0x4FC00, symSize: 0x22C }
  - { offset: 0x11E3BB, size: 0x8, addend: 0x0, symName: '__ZN5alloc11collections5btree8navigate263_$LT$impl$u20$alloc..collections..btree..node..Handle$LT$alloc..collections..btree..node..NodeRef$LT$alloc..collections..btree..node..marker..Dying$C$K$C$V$C$alloc..collections..btree..node..marker..Leaf$GT$$C$alloc..collections..btree..node..marker..Edge$GT$$GT$17deallocating_next17h3850f1fa0c47018bE', symObjAddr: 0x28000, symBinAddr: 0x4FE2C, symSize: 0x22C }
  - { offset: 0x11E71F, size: 0x8, addend: 0x0, symName: '__ZN5alloc11collections5btree8navigate263_$LT$impl$u20$alloc..collections..btree..node..Handle$LT$alloc..collections..btree..node..NodeRef$LT$alloc..collections..btree..node..marker..Dying$C$K$C$V$C$alloc..collections..btree..node..marker..Leaf$GT$$C$alloc..collections..btree..node..marker..Edge$GT$$GT$17deallocating_next17h4aac239626624f14E', symObjAddr: 0x2822C, symBinAddr: 0x50058, symSize: 0x22C }
  - { offset: 0x11EA83, size: 0x8, addend: 0x0, symName: '__ZN5alloc11collections5btree8navigate263_$LT$impl$u20$alloc..collections..btree..node..Handle$LT$alloc..collections..btree..node..NodeRef$LT$alloc..collections..btree..node..marker..Dying$C$K$C$V$C$alloc..collections..btree..node..marker..Leaf$GT$$C$alloc..collections..btree..node..marker..Edge$GT$$GT$17deallocating_next17h5c3e415c737c8abcE', symObjAddr: 0x28458, symBinAddr: 0x50284, symSize: 0x22C }
  - { offset: 0x11EDE7, size: 0x8, addend: 0x0, symName: '__ZN5alloc11collections5btree8navigate263_$LT$impl$u20$alloc..collections..btree..node..Handle$LT$alloc..collections..btree..node..NodeRef$LT$alloc..collections..btree..node..marker..Dying$C$K$C$V$C$alloc..collections..btree..node..marker..Leaf$GT$$C$alloc..collections..btree..node..marker..Edge$GT$$GT$17deallocating_next17h7cade38723b1f085E', symObjAddr: 0x28684, symBinAddr: 0x504B0, symSize: 0x22C }
  - { offset: 0x11F14B, size: 0x8, addend: 0x0, symName: '__ZN5alloc11collections5btree8navigate263_$LT$impl$u20$alloc..collections..btree..node..Handle$LT$alloc..collections..btree..node..NodeRef$LT$alloc..collections..btree..node..marker..Dying$C$K$C$V$C$alloc..collections..btree..node..marker..Leaf$GT$$C$alloc..collections..btree..node..marker..Edge$GT$$GT$17deallocating_next17h84625c3a44600c81E', symObjAddr: 0x288B0, symBinAddr: 0x506DC, symSize: 0x22C }
  - { offset: 0x11F4AF, size: 0x8, addend: 0x0, symName: '__ZN5alloc11collections5btree8navigate263_$LT$impl$u20$alloc..collections..btree..node..Handle$LT$alloc..collections..btree..node..NodeRef$LT$alloc..collections..btree..node..marker..Dying$C$K$C$V$C$alloc..collections..btree..node..marker..Leaf$GT$$C$alloc..collections..btree..node..marker..Edge$GT$$GT$17deallocating_next17hac5c721f172b66adE', symObjAddr: 0x28ADC, symBinAddr: 0x50908, symSize: 0x22C }
  - { offset: 0x11F813, size: 0x8, addend: 0x0, symName: '__ZN5alloc11collections5btree8navigate263_$LT$impl$u20$alloc..collections..btree..node..Handle$LT$alloc..collections..btree..node..NodeRef$LT$alloc..collections..btree..node..marker..Dying$C$K$C$V$C$alloc..collections..btree..node..marker..Leaf$GT$$C$alloc..collections..btree..node..marker..Edge$GT$$GT$17deallocating_next17hae936175ba622c48E', symObjAddr: 0x28D08, symBinAddr: 0x50B34, symSize: 0x22C }
  - { offset: 0x11FB77, size: 0x8, addend: 0x0, symName: '__ZN5alloc11collections5btree8navigate263_$LT$impl$u20$alloc..collections..btree..node..Handle$LT$alloc..collections..btree..node..NodeRef$LT$alloc..collections..btree..node..marker..Dying$C$K$C$V$C$alloc..collections..btree..node..marker..Leaf$GT$$C$alloc..collections..btree..node..marker..Edge$GT$$GT$17deallocating_next17hcb4ca02c2e3a7b0fE', symObjAddr: 0x28F34, symBinAddr: 0x50D60, symSize: 0x22C }
  - { offset: 0x11FEDB, size: 0x8, addend: 0x0, symName: '__ZN5alloc11collections5btree8navigate263_$LT$impl$u20$alloc..collections..btree..node..Handle$LT$alloc..collections..btree..node..NodeRef$LT$alloc..collections..btree..node..marker..Dying$C$K$C$V$C$alloc..collections..btree..node..marker..Leaf$GT$$C$alloc..collections..btree..node..marker..Edge$GT$$GT$17deallocating_next17hf3be05c61fca22f0E', symObjAddr: 0x29160, symBinAddr: 0x50F8C, symSize: 0x22C }
  - { offset: 0x12023F, size: 0x8, addend: 0x0, symName: '__ZN5alloc11collections5btree8navigate263_$LT$impl$u20$alloc..collections..btree..node..Handle$LT$alloc..collections..btree..node..NodeRef$LT$alloc..collections..btree..node..marker..Dying$C$K$C$V$C$alloc..collections..btree..node..marker..Leaf$GT$$C$alloc..collections..btree..node..marker..Edge$GT$$GT$17deallocating_next17hfeebd652410fc0b8E', symObjAddr: 0x2938C, symBinAddr: 0x511B8, symSize: 0x22C }
  - { offset: 0x120425, size: 0x8, addend: 0x0, symName: __ZN4pyo35impl_10trampoline11module_init17h4ec7ebd9a6d08765E, symObjAddr: 0x0, symBinAddr: 0x513E4, symSize: 0x28 }
  - { offset: 0x1216F5, size: 0x8, addend: 0x0, symName: __ZN4pyo35impl_10trampoline11module_init17h4ec7ebd9a6d08765E, symObjAddr: 0x0, symBinAddr: 0x513E4, symSize: 0x28 }
  - { offset: 0x121721, size: 0x8, addend: 0x0, symName: __ZN4pyo35impl_10trampoline11richcmpfunc17h68b1b2fcb0e5c24fE, symObjAddr: 0x28, symBinAddr: 0x5140C, symSize: 0x50 }
  - { offset: 0x121777, size: 0x8, addend: 0x0, symName: __ZN4pyo35impl_10trampoline22fastcall_with_keywords17h058232c100d79c79E, symObjAddr: 0x78, symBinAddr: 0x5145C, symSize: 0x5C }
  - { offset: 0x1217DB, size: 0x8, addend: 0x0, symName: __ZN4pyo35impl_10trampoline6noargs17hd8d1a4a8febdfe2dE, symObjAddr: 0xD4, symBinAddr: 0x514B8, symSize: 0x64 }
  - { offset: 0x121823, size: 0x8, addend: 0x0, symName: __ZN4pyo35impl_10trampoline7dealloc17hd36b08667991feedE, symObjAddr: 0x138, symBinAddr: 0x5151C, symSize: 0x34 }
  - { offset: 0x121859, size: 0x8, addend: 0x0, symName: __ZN4pyo35impl_10trampoline7newfunc17h21b0a4c0839bbe11E, symObjAddr: 0x16C, symBinAddr: 0x51550, symSize: 0x50 }
  - { offset: 0x1218AF, size: 0x8, addend: 0x0, symName: __ZN4pyo35impl_10trampoline8reprfunc17h2ddfc31b61e94734E, symObjAddr: 0x1BC, symBinAddr: 0x515A0, symSize: 0x30 }
  - { offset: 0x1218E9, size: 0x8, addend: 0x0, symName: __ZN4pyo35impl_10trampoline9unaryfunc17h937d7983b2e6d44fE, symObjAddr: 0x1EC, symBinAddr: 0x515D0, symSize: 0x30 }
  - { offset: 0x1220B6, size: 0x8, addend: 0x0, symName: __ZN4core3cmp9PartialEq2ne17hc4392c9236748c85E, symObjAddr: 0x0, symBinAddr: 0x51600, symSize: 0x30 }
  - { offset: 0x122109, size: 0x8, addend: 0x0, symName: __ZN4core3cmp9PartialEq2ne17hc4392c9236748c85E, symObjAddr: 0x0, symBinAddr: 0x51600, symSize: 0x30 }
  - { offset: 0x12218D, size: 0x8, addend: 0x0, symName: __ZN4core4iter6traits8iterator8Iterator3zip17h57449f7919acd9eaE, symObjAddr: 0x0, symBinAddr: 0x51630, symSize: 0xB4 }
  - { offset: 0x122A9E, size: 0x8, addend: 0x0, symName: __ZN4core4iter6traits8iterator8Iterator3zip17h57449f7919acd9eaE, symObjAddr: 0x0, symBinAddr: 0x51630, symSize: 0xB4 }
  - { offset: 0x122B14, size: 0x8, addend: 0x0, symName: __ZN4core4iter6traits8iterator8Iterator4take17hf7e760cba89a87c2E, symObjAddr: 0xB4, symBinAddr: 0x516E4, symSize: 0x24 }
  - { offset: 0x12371C, size: 0x8, addend: 0x0, symName: '__ZN4pyo35types5tuple129_$LT$impl$u20$pyo3..conversion..IntoPy$LT$pyo3..instance..Py$LT$pyo3..types..tuple..PyTuple$GT$$GT$$u20$for$u20$$LP$T0$C$$RP$$GT$20__py_call_vectorcall28_$u7b$$u7b$closure$u7d$$u7d$17hed34a4b69a7b3128E', symObjAddr: 0xD8, symBinAddr: 0x51708, symSize: 0x2C }
  - { offset: 0x123767, size: 0x8, addend: 0x0, symName: __ZN4pyo35types5tuple16array_into_tuple17h34bd7d450e8f1616E, symObjAddr: 0x104, symBinAddr: 0x51734, symSize: 0x1F4 }
  - { offset: 0x123FCE, size: 0x8, addend: 0x0, symName: '__ZN102_$LT$core..str..iter..CharIndices$u20$as$u20$core..iter..traits..double_ended..DoubleEndedIterator$GT$9next_back17h504a8d8dfae220a5E', symObjAddr: 0x0, symBinAddr: 0x51928, symSize: 0x14C }
  - { offset: 0x1240B5, size: 0x8, addend: 0x0, symName: '__ZN102_$LT$core..str..iter..CharIndices$u20$as$u20$core..iter..traits..double_ended..DoubleEndedIterator$GT$9next_back17h504a8d8dfae220a5E', symObjAddr: 0x0, symBinAddr: 0x51928, symSize: 0x14C }
  - { offset: 0x12425A, size: 0x8, addend: 0x0, symName: '__ZN81_$LT$core..str..iter..Chars$u20$as$u20$core..iter..traits..iterator..Iterator$GT$4next17h09387bd6738fe505E', symObjAddr: 0x14C, symBinAddr: 0x51A74, symSize: 0x80 }
  - { offset: 0x124317, size: 0x8, addend: 0x0, symName: '__ZN81_$LT$core..str..iter..Lines$u20$as$u20$core..iter..traits..iterator..Iterator$GT$4next17h7dcb996b5a405cb2E', symObjAddr: 0x1CC, symBinAddr: 0x51AF4, symSize: 0x24 }
  - { offset: 0x12434B, size: 0x8, addend: 0x0, symName: '__ZN87_$LT$core..str..iter..CharIndices$u20$as$u20$core..iter..traits..iterator..Iterator$GT$4next17hcbd0e3e5b8345ea3E', symObjAddr: 0x1F0, symBinAddr: 0x51B18, symSize: 0x118 }
  - { offset: 0x124C60, size: 0x8, addend: 0x0, symName: '__ZN112_$LT$alloc..collections..btree..set..IntoIter$LT$T$C$A$GT$$u20$as$u20$core..iter..traits..iterator..Iterator$GT$4next17hc1ee7b32f074d613E', symObjAddr: 0x0, symBinAddr: 0x51C30, symSize: 0x7C }
  - { offset: 0x125EF0, size: 0x8, addend: 0x0, symName: '__ZN112_$LT$alloc..collections..btree..set..IntoIter$LT$T$C$A$GT$$u20$as$u20$core..iter..traits..iterator..Iterator$GT$4next17hc1ee7b32f074d613E', symObjAddr: 0x0, symBinAddr: 0x51C30, symSize: 0x7C }
  - { offset: 0x125F76, size: 0x8, addend: 0x0, symName: '__ZN115_$LT$alloc..collections..btree..set..BTreeSet$LT$T$C$A$GT$$u20$as$u20$core..iter..traits..collect..IntoIterator$GT$9into_iter17hef715103011fdc8dE', symObjAddr: 0x7C, symBinAddr: 0x51CAC, symSize: 0x170 }
  - { offset: 0x1260E8, size: 0x8, addend: 0x0, symName: '__ZN118_$LT$alloc..collections..btree..set..BTreeSet$LT$T$C$A$GT$$u20$as$u20$core..iter..traits..collect..Extend$LT$T$GT$$GT$6extend17h2f433505ecf0e8c9E', symObjAddr: 0x1EC, symBinAddr: 0x51E1C, symSize: 0x40 }
  - { offset: 0x12613D, size: 0x8, addend: 0x0, symName: '__ZN118_$LT$alloc..collections..btree..set..BTreeSet$LT$T$C$A$GT$$u20$as$u20$core..iter..traits..collect..Extend$LT$T$GT$$GT$6extend17hb297c2307b69fcb7E', symObjAddr: 0x22C, symBinAddr: 0x51E5C, symSize: 0x40 }
  - { offset: 0x126197, size: 0x8, addend: 0x0, symName: '__ZN118_$LT$alloc..collections..btree..set..BTreeSet$LT$T$C$A$GT$$u20$as$u20$core..iter..traits..collect..Extend$LT$T$GT$$GT$6extend28_$u7b$$u7b$closure$u7d$$u7d$17hd358436056e4143dE', symObjAddr: 0x26C, symBinAddr: 0x51E9C, symSize: 0x2C }
  - { offset: 0x126214, size: 0x8, addend: 0x0, symName: '__ZN118_$LT$alloc..collections..btree..set..BTreeSet$LT$T$C$A$GT$$u20$as$u20$core..iter..traits..collect..Extend$LT$T$GT$$GT$6extend28_$u7b$$u7b$closure$u7d$$u7d$17hfe2e13000a18bfc9E', symObjAddr: 0x298, symBinAddr: 0x51EC8, symSize: 0x2C }
  - { offset: 0x126403, size: 0x8, addend: 0x0, symName: '__ZN120_$LT$alloc..collections..btree..set..BTreeSet$LT$T$GT$$u20$as$u20$core..iter..traits..collect..FromIterator$LT$T$GT$$GT$9from_iter17hfd37f6f8be563305E', symObjAddr: 0x2C4, symBinAddr: 0x51EF4, symSize: 0x14C }
  - { offset: 0x1265ED, size: 0x8, addend: 0x0, symName: '__ZN5alloc11collections5btree3set21BTreeSet$LT$T$C$A$GT$16from_sorted_iter28_$u7b$$u7b$closure$u7d$$u7d$17h0fd04a8dc5375721E', symObjAddr: 0x510, symBinAddr: 0x52140, symSize: 0x1C }
  - { offset: 0x12664F, size: 0x8, addend: 0x0, symName: '__ZN92_$LT$alloc..collections..btree..set..BTreeSet$LT$T$C$A$GT$$u20$as$u20$core..clone..Clone$GT$5clone17h870575c5a1beb52cE', symObjAddr: 0x5C8, symBinAddr: 0x521F8, symSize: 0x40 }
  - { offset: 0x126693, size: 0x8, addend: 0x0, symName: '__ZN92_$LT$alloc..collections..btree..set..BTreeSet$LT$T$GT$$u20$as$u20$core..default..Default$GT$7default17h2e1b85fefa3c9e63E', symObjAddr: 0x608, symBinAddr: 0x52238, symSize: 0x40 }
  - { offset: 0x1266E6, size: 0x8, addend: 0x0, symName: '__ZN92_$LT$alloc..collections..btree..set..BTreeSet$LT$T$GT$$u20$as$u20$core..default..Default$GT$7default17h409791b426314c46E', symObjAddr: 0x648, symBinAddr: 0x52278, symSize: 0x40 }
  - { offset: 0x12794D, size: 0x8, addend: 0x0, symName: '__ZN5alloc11collections5btree3set17BTreeSet$LT$T$GT$3new17h66c84a11124e78fcE', symObjAddr: 0x410, symBinAddr: 0x52040, symSize: 0x40 }
  - { offset: 0x127998, size: 0x8, addend: 0x0, symName: '__ZN5alloc11collections5btree3set17BTreeSet$LT$T$GT$3new17h9a430ccd1d21b60eE', symObjAddr: 0x450, symBinAddr: 0x52080, symSize: 0x40 }
  - { offset: 0x1279CA, size: 0x8, addend: 0x0, symName: '__ZN5alloc11collections5btree3set21BTreeSet$LT$T$C$A$GT$16from_sorted_iter17h92f68e819b82bc5dE', symObjAddr: 0x490, symBinAddr: 0x520C0, symSize: 0x80 }
  - { offset: 0x127AA6, size: 0x8, addend: 0x0, symName: '__ZN5alloc11collections5btree3set21BTreeSet$LT$T$C$A$GT$6insert17h6e517e3cb109a7ccE', symObjAddr: 0x52C, symBinAddr: 0x5215C, symSize: 0x38 }
  - { offset: 0x127BB5, size: 0x8, addend: 0x0, symName: '__ZN5alloc11collections5btree3set21BTreeSet$LT$T$C$A$GT$8contains17h96c8b816b9f51b4eE', symObjAddr: 0x564, symBinAddr: 0x52194, symSize: 0x44 }
  - { offset: 0x127C84, size: 0x8, addend: 0x0, symName: '__ZN5alloc11collections5btree3set21BTreeSet$LT$T$C$A$GT$8is_empty17h52f1a4339ebecf2cE', symObjAddr: 0x5A8, symBinAddr: 0x521D8, symSize: 0x20 }
  - { offset: 0x127E59, size: 0x8, addend: 0x0, symName: '__ZN62_$LT$T$u20$as$u20$alloc..vec..spec_from_elem..SpecFromElem$GT$9from_elem17h22f86fa556f1dcccE', symObjAddr: 0x0, symBinAddr: 0x522B8, symSize: 0x198 }
  - { offset: 0x128475, size: 0x8, addend: 0x0, symName: '__ZN62_$LT$T$u20$as$u20$alloc..vec..spec_from_elem..SpecFromElem$GT$9from_elem17h22f86fa556f1dcccE', symObjAddr: 0x0, symBinAddr: 0x522B8, symSize: 0x198 }
  - { offset: 0x12858D, size: 0x8, addend: 0x0, symName: '__ZN62_$LT$T$u20$as$u20$alloc..vec..spec_from_elem..SpecFromElem$GT$9from_elem17h7ed520f4088fc344E', symObjAddr: 0x198, symBinAddr: 0x52450, symSize: 0x198 }
  - { offset: 0x12891B, size: 0x8, addend: 0x0, symName: '__ZN110_$LT$core..iter..adapters..enumerate..Enumerate$LT$I$GT$$u20$as$u20$core..iter..traits..iterator..Iterator$GT$4fold17h0d26dc5ac15ed2dbE', symObjAddr: 0x0, symBinAddr: 0x525E8, symSize: 0x44 }
  - { offset: 0x128983, size: 0x8, addend: 0x0, symName: '__ZN110_$LT$core..iter..adapters..enumerate..Enumerate$LT$I$GT$$u20$as$u20$core..iter..traits..iterator..Iterator$GT$4fold17h0d26dc5ac15ed2dbE', symObjAddr: 0x0, symBinAddr: 0x525E8, symSize: 0x44 }
  - { offset: 0x1289F2, size: 0x8, addend: 0x0, symName: '__ZN110_$LT$core..iter..adapters..enumerate..Enumerate$LT$I$GT$$u20$as$u20$core..iter..traits..iterator..Iterator$GT$4fold9enumerate28_$u7b$$u7b$closure$u7d$$u7d$17h00d2b95897de3471E', symObjAddr: 0x44, symBinAddr: 0x5262C, symSize: 0xCC }
  - { offset: 0x128A81, size: 0x8, addend: 0x0, symName: '__ZN110_$LT$core..iter..adapters..enumerate..Enumerate$LT$I$GT$$u20$as$u20$core..iter..traits..iterator..Iterator$GT$4next17h0069f5f08cdbae0fE', symObjAddr: 0x110, symBinAddr: 0x526F8, symSize: 0xE0 }
  - { offset: 0x128B67, size: 0x8, addend: 0x0, symName: '__ZN110_$LT$core..iter..adapters..enumerate..Enumerate$LT$I$GT$$u20$as$u20$core..iter..traits..iterator..Iterator$GT$4next17h084e96e466871f5fE', symObjAddr: 0x1F0, symBinAddr: 0x527D8, symSize: 0xE0 }
  - { offset: 0x128C4D, size: 0x8, addend: 0x0, symName: '__ZN110_$LT$core..iter..adapters..enumerate..Enumerate$LT$I$GT$$u20$as$u20$core..iter..traits..iterator..Iterator$GT$4next17h0ffbb77c808870b9E', symObjAddr: 0x2D0, symBinAddr: 0x528B8, symSize: 0xE0 }
  - { offset: 0x128D33, size: 0x8, addend: 0x0, symName: '__ZN110_$LT$core..iter..adapters..enumerate..Enumerate$LT$I$GT$$u20$as$u20$core..iter..traits..iterator..Iterator$GT$4next17h1ab3ccd782bcaf44E', symObjAddr: 0x3B0, symBinAddr: 0x52998, symSize: 0xE0 }
  - { offset: 0x128E19, size: 0x8, addend: 0x0, symName: '__ZN110_$LT$core..iter..adapters..enumerate..Enumerate$LT$I$GT$$u20$as$u20$core..iter..traits..iterator..Iterator$GT$4next17h2391ba3de8eb59c6E', symObjAddr: 0x490, symBinAddr: 0x52A78, symSize: 0xE0 }
  - { offset: 0x128EFF, size: 0x8, addend: 0x0, symName: '__ZN110_$LT$core..iter..adapters..enumerate..Enumerate$LT$I$GT$$u20$as$u20$core..iter..traits..iterator..Iterator$GT$4next17h263a5038f8ecb809E', symObjAddr: 0x570, symBinAddr: 0x52B58, symSize: 0xE0 }
  - { offset: 0x128FE5, size: 0x8, addend: 0x0, symName: '__ZN110_$LT$core..iter..adapters..enumerate..Enumerate$LT$I$GT$$u20$as$u20$core..iter..traits..iterator..Iterator$GT$4next17h2cb6509baac566abE', symObjAddr: 0x650, symBinAddr: 0x52C38, symSize: 0xE0 }
  - { offset: 0x1290CB, size: 0x8, addend: 0x0, symName: '__ZN110_$LT$core..iter..adapters..enumerate..Enumerate$LT$I$GT$$u20$as$u20$core..iter..traits..iterator..Iterator$GT$4next17h37d344704f553c99E', symObjAddr: 0x730, symBinAddr: 0x52D18, symSize: 0xE0 }
  - { offset: 0x1291B1, size: 0x8, addend: 0x0, symName: '__ZN110_$LT$core..iter..adapters..enumerate..Enumerate$LT$I$GT$$u20$as$u20$core..iter..traits..iterator..Iterator$GT$4next17h3d22d00b6800436dE', symObjAddr: 0x810, symBinAddr: 0x52DF8, symSize: 0xE0 }
  - { offset: 0x129297, size: 0x8, addend: 0x0, symName: '__ZN110_$LT$core..iter..adapters..enumerate..Enumerate$LT$I$GT$$u20$as$u20$core..iter..traits..iterator..Iterator$GT$4next17h50eb7811a8a68becE', symObjAddr: 0x8F0, symBinAddr: 0x52ED8, symSize: 0xE0 }
  - { offset: 0x12937D, size: 0x8, addend: 0x0, symName: '__ZN110_$LT$core..iter..adapters..enumerate..Enumerate$LT$I$GT$$u20$as$u20$core..iter..traits..iterator..Iterator$GT$4next17h5d3a9092093480adE', symObjAddr: 0x9D0, symBinAddr: 0x52FB8, symSize: 0xE0 }
  - { offset: 0x129463, size: 0x8, addend: 0x0, symName: '__ZN110_$LT$core..iter..adapters..enumerate..Enumerate$LT$I$GT$$u20$as$u20$core..iter..traits..iterator..Iterator$GT$4next17h686e222f48908996E', symObjAddr: 0xAB0, symBinAddr: 0x53098, symSize: 0xE0 }
  - { offset: 0x129549, size: 0x8, addend: 0x0, symName: '__ZN110_$LT$core..iter..adapters..enumerate..Enumerate$LT$I$GT$$u20$as$u20$core..iter..traits..iterator..Iterator$GT$4next17h6a8d8237ca3141bbE', symObjAddr: 0xB90, symBinAddr: 0x53178, symSize: 0xE0 }
  - { offset: 0x12962F, size: 0x8, addend: 0x0, symName: '__ZN110_$LT$core..iter..adapters..enumerate..Enumerate$LT$I$GT$$u20$as$u20$core..iter..traits..iterator..Iterator$GT$4next17h70994203826ad48dE', symObjAddr: 0xC70, symBinAddr: 0x53258, symSize: 0xE0 }
  - { offset: 0x129715, size: 0x8, addend: 0x0, symName: '__ZN110_$LT$core..iter..adapters..enumerate..Enumerate$LT$I$GT$$u20$as$u20$core..iter..traits..iterator..Iterator$GT$4next17h7f7b6e45a6ed3479E', symObjAddr: 0xD50, symBinAddr: 0x53338, symSize: 0xE0 }
  - { offset: 0x1297FB, size: 0x8, addend: 0x0, symName: '__ZN110_$LT$core..iter..adapters..enumerate..Enumerate$LT$I$GT$$u20$as$u20$core..iter..traits..iterator..Iterator$GT$4next17h8c4e193c0f7037a7E', symObjAddr: 0xE30, symBinAddr: 0x53418, symSize: 0xE0 }
  - { offset: 0x1298E1, size: 0x8, addend: 0x0, symName: '__ZN110_$LT$core..iter..adapters..enumerate..Enumerate$LT$I$GT$$u20$as$u20$core..iter..traits..iterator..Iterator$GT$4next17hbe5c2828d0c0fe50E', symObjAddr: 0xF10, symBinAddr: 0x534F8, symSize: 0xE0 }
  - { offset: 0x1299C7, size: 0x8, addend: 0x0, symName: '__ZN110_$LT$core..iter..adapters..enumerate..Enumerate$LT$I$GT$$u20$as$u20$core..iter..traits..iterator..Iterator$GT$4next17hc0b9791d725824bcE', symObjAddr: 0xFF0, symBinAddr: 0x535D8, symSize: 0xE0 }
  - { offset: 0x129AAD, size: 0x8, addend: 0x0, symName: '__ZN110_$LT$core..iter..adapters..enumerate..Enumerate$LT$I$GT$$u20$as$u20$core..iter..traits..iterator..Iterator$GT$4next17hcddb5fe290e0b57cE', symObjAddr: 0x10D0, symBinAddr: 0x536B8, symSize: 0xE0 }
  - { offset: 0x129B93, size: 0x8, addend: 0x0, symName: '__ZN110_$LT$core..iter..adapters..enumerate..Enumerate$LT$I$GT$$u20$as$u20$core..iter..traits..iterator..Iterator$GT$4next17hd8694d2787459d24E', symObjAddr: 0x11B0, symBinAddr: 0x53798, symSize: 0xE0 }
  - { offset: 0x129C79, size: 0x8, addend: 0x0, symName: '__ZN110_$LT$core..iter..adapters..enumerate..Enumerate$LT$I$GT$$u20$as$u20$core..iter..traits..iterator..Iterator$GT$4next17he08278a11b623f3dE', symObjAddr: 0x1290, symBinAddr: 0x53878, symSize: 0xEC }
  - { offset: 0x129D5F, size: 0x8, addend: 0x0, symName: '__ZN110_$LT$core..iter..adapters..enumerate..Enumerate$LT$I$GT$$u20$as$u20$core..iter..traits..iterator..Iterator$GT$4next17he09845e6bca693d9E', symObjAddr: 0x137C, symBinAddr: 0x53964, symSize: 0xE0 }
  - { offset: 0x129E45, size: 0x8, addend: 0x0, symName: '__ZN110_$LT$core..iter..adapters..enumerate..Enumerate$LT$I$GT$$u20$as$u20$core..iter..traits..iterator..Iterator$GT$4next17he109ff1e001e517bE', symObjAddr: 0x145C, symBinAddr: 0x53A44, symSize: 0xE0 }
  - { offset: 0x129F2B, size: 0x8, addend: 0x0, symName: '__ZN110_$LT$core..iter..adapters..enumerate..Enumerate$LT$I$GT$$u20$as$u20$core..iter..traits..iterator..Iterator$GT$4next17he1272d482a24de50E', symObjAddr: 0x153C, symBinAddr: 0x53B24, symSize: 0xE0 }
  - { offset: 0x12A011, size: 0x8, addend: 0x0, symName: '__ZN110_$LT$core..iter..adapters..enumerate..Enumerate$LT$I$GT$$u20$as$u20$core..iter..traits..iterator..Iterator$GT$4next17hfe91e438ac262373E', symObjAddr: 0x161C, symBinAddr: 0x53C04, symSize: 0xE0 }
  - { offset: 0x12A0F7, size: 0x8, addend: 0x0, symName: '__ZN110_$LT$core..iter..adapters..enumerate..Enumerate$LT$I$GT$$u20$as$u20$core..iter..traits..iterator..Iterator$GT$8try_fold17heb40e320e2560175E', symObjAddr: 0x16FC, symBinAddr: 0x53CE4, symSize: 0x38 }
  - { offset: 0x12A16D, size: 0x8, addend: 0x0, symName: '__ZN110_$LT$core..iter..adapters..enumerate..Enumerate$LT$I$GT$$u20$as$u20$core..iter..traits..iterator..Iterator$GT$8try_fold9enumerate28_$u7b$$u7b$closure$u7d$$u7d$17h2fca891da747524aE', symObjAddr: 0x1734, symBinAddr: 0x53D1C, symSize: 0xB4 }
  - { offset: 0x12A820, size: 0x8, addend: 0x0, symName: __ZN4core4iter6traits8iterator8Iterator10filter_map17hdd05b0986addfec1E, symObjAddr: 0x17E8, symBinAddr: 0x53DD0, symSize: 0x20 }
  - { offset: 0x12A8E9, size: 0x8, addend: 0x0, symName: __ZN4core4iter6traits8iterator8Iterator10min_by_key17hbfb2532d9daa045dE, symObjAddr: 0x1808, symBinAddr: 0x53DF0, symSize: 0xD4 }
  - { offset: 0x12AA14, size: 0x8, addend: 0x0, symName: __ZN4core4iter6traits8iterator8Iterator3map17h259c881bbcb9072bE, symObjAddr: 0x18DC, symBinAddr: 0x53EC4, symSize: 0x28 }
  - { offset: 0x12AA81, size: 0x8, addend: 0x0, symName: __ZN4core4iter6traits8iterator8Iterator8find_map17h64fb5261f5b2cb9bE, symObjAddr: 0x1904, symBinAddr: 0x53EEC, symSize: 0x78 }
  - { offset: 0x12AB53, size: 0x8, addend: 0x0, symName: '__ZN63_$LT$I$u20$as$u20$core..iter..traits..collect..IntoIterator$GT$9into_iter17h1d4ee5e21e03dff0E', symObjAddr: 0x197C, symBinAddr: 0x53F64, symSize: 0x18 }
  - { offset: 0x12AB8A, size: 0x8, addend: 0x0, symName: '__ZN63_$LT$I$u20$as$u20$core..iter..traits..collect..IntoIterator$GT$9into_iter17h1f1a55b8babb9923E', symObjAddr: 0x1994, symBinAddr: 0x53F7C, symSize: 0x18 }
  - { offset: 0x12ABC1, size: 0x8, addend: 0x0, symName: '__ZN63_$LT$I$u20$as$u20$core..iter..traits..collect..IntoIterator$GT$9into_iter17h29d885916fe68a98E', symObjAddr: 0x19AC, symBinAddr: 0x53F94, symSize: 0x30 }
  - { offset: 0x12ABF9, size: 0x8, addend: 0x0, symName: '__ZN63_$LT$I$u20$as$u20$core..iter..traits..collect..IntoIterator$GT$9into_iter17h403959c064be1942E', symObjAddr: 0x19DC, symBinAddr: 0x53FC4, symSize: 0x18 }
  - { offset: 0x12AC30, size: 0x8, addend: 0x0, symName: '__ZN63_$LT$I$u20$as$u20$core..iter..traits..collect..IntoIterator$GT$9into_iter17h4db4379d0c051774E', symObjAddr: 0x19F4, symBinAddr: 0x53FDC, symSize: 0x18 }
  - { offset: 0x12AC67, size: 0x8, addend: 0x0, symName: '__ZN63_$LT$I$u20$as$u20$core..iter..traits..collect..IntoIterator$GT$9into_iter17h52fa84e4aa4213bdE', symObjAddr: 0x1A0C, symBinAddr: 0x53FF4, symSize: 0x18 }
  - { offset: 0x12AC9E, size: 0x8, addend: 0x0, symName: '__ZN63_$LT$I$u20$as$u20$core..iter..traits..collect..IntoIterator$GT$9into_iter17h941e4d5955d1f07eE', symObjAddr: 0x1A24, symBinAddr: 0x5400C, symSize: 0x18 }
  - { offset: 0x12ACD5, size: 0x8, addend: 0x0, symName: '__ZN63_$LT$I$u20$as$u20$core..iter..traits..collect..IntoIterator$GT$9into_iter17h945f6aba1b727f30E', symObjAddr: 0x1A3C, symBinAddr: 0x54024, symSize: 0x18 }
  - { offset: 0x12AD0C, size: 0x8, addend: 0x0, symName: '__ZN63_$LT$I$u20$as$u20$core..iter..traits..collect..IntoIterator$GT$9into_iter17h95b72e201a33d8d5E', symObjAddr: 0x1A54, symBinAddr: 0x5403C, symSize: 0x14 }
  - { offset: 0x12AD43, size: 0x8, addend: 0x0, symName: '__ZN63_$LT$I$u20$as$u20$core..iter..traits..collect..IntoIterator$GT$9into_iter17h9a900baef82bc4f9E', symObjAddr: 0x1A68, symBinAddr: 0x54050, symSize: 0x14 }
  - { offset: 0x12AD7A, size: 0x8, addend: 0x0, symName: '__ZN63_$LT$I$u20$as$u20$core..iter..traits..collect..IntoIterator$GT$9into_iter17hb572866ce373a2a3E', symObjAddr: 0x1A7C, symBinAddr: 0x54064, symSize: 0x18 }
  - { offset: 0x12ADB1, size: 0x8, addend: 0x0, symName: '__ZN63_$LT$I$u20$as$u20$core..iter..traits..collect..IntoIterator$GT$9into_iter17hc475036e74e6cc73E', symObjAddr: 0x1A94, symBinAddr: 0x5407C, symSize: 0x14 }
  - { offset: 0x12ADE8, size: 0x8, addend: 0x0, symName: '__ZN63_$LT$I$u20$as$u20$core..iter..traits..collect..IntoIterator$GT$9into_iter17hcf81ac339e3f1a35E', symObjAddr: 0x1AA8, symBinAddr: 0x54090, symSize: 0x30 }
  - { offset: 0x12AE20, size: 0x8, addend: 0x0, symName: '__ZN63_$LT$I$u20$as$u20$core..iter..traits..collect..IntoIterator$GT$9into_iter17he8127d220a26ebc2E', symObjAddr: 0x1AD8, symBinAddr: 0x540C0, symSize: 0x14 }
  - { offset: 0x132071, size: 0x8, addend: 0x0, symName: '__ZN71_$LT$alloc..borrow..Cow$LT$B$GT$$u20$as$u20$core..ops..deref..Deref$GT$5deref17h8bf38457bdeec217E', symObjAddr: 0x0, symBinAddr: 0x540D4, symSize: 0x70 }
  - { offset: 0x13208D, size: 0x8, addend: 0x0, symName: '__ZN71_$LT$alloc..borrow..Cow$LT$B$GT$$u20$as$u20$core..ops..deref..Deref$GT$5deref17h8bf38457bdeec217E', symObjAddr: 0x0, symBinAddr: 0x540D4, symSize: 0x70 }
  - { offset: 0x13223D, size: 0x8, addend: 0x0, symName: __ZN4core5slice4sort6stable5drift10create_run17h2ce0deb9d16dffc8E, symObjAddr: 0x0, symBinAddr: 0x54144, symSize: 0x410 }
  - { offset: 0x133102, size: 0x8, addend: 0x0, symName: __ZN4core5slice4sort6stable5drift10create_run17h2ce0deb9d16dffc8E, symObjAddr: 0x0, symBinAddr: 0x54144, symSize: 0x410 }
  - { offset: 0x133613, size: 0x8, addend: 0x0, symName: __ZN4core5slice4sort6stable5drift10create_run17h43b924c77662728aE, symObjAddr: 0x410, symBinAddr: 0x54554, symSize: 0x410 }
  - { offset: 0x133B24, size: 0x8, addend: 0x0, symName: __ZN4core5slice4sort6stable5drift10create_run17hcdb7507528159610E, symObjAddr: 0x820, symBinAddr: 0x54964, symSize: 0x438 }
  - { offset: 0x134035, size: 0x8, addend: 0x0, symName: __ZN4core5slice4sort6stable5drift16stable_quicksort17h2d27311ddc30bb2dE, symObjAddr: 0xC58, symBinAddr: 0x54D9C, symSize: 0xB4 }
  - { offset: 0x13416F, size: 0x8, addend: 0x0, symName: __ZN4core5slice4sort6stable5drift16stable_quicksort17h71d53fba3def4ec4E, symObjAddr: 0xD0C, symBinAddr: 0x54E50, symSize: 0xB4 }
  - { offset: 0x1342A9, size: 0x8, addend: 0x0, symName: __ZN4core5slice4sort6stable5drift16stable_quicksort17h74097d79033dcee3E, symObjAddr: 0xDC0, symBinAddr: 0x54F04, symSize: 0xB4 }
  - { offset: 0x1344CE, size: 0x8, addend: 0x0, symName: __ZN4core5slice4sort6stable5drift4sort17h7b450e1a238c5ef5E, symObjAddr: 0xE74, symBinAddr: 0x54FB8, symSize: 0x620 }
  - { offset: 0x134DDE, size: 0x8, addend: 0x0, symName: __ZN4core5slice4sort6stable5drift4sort17ha25226f6096d323bE, symObjAddr: 0x1494, symBinAddr: 0x555D8, symSize: 0x608 }
  - { offset: 0x1356EE, size: 0x8, addend: 0x0, symName: __ZN4core5slice4sort6stable5drift4sort17hffc13dbef6c22d35E, symObjAddr: 0x1A9C, symBinAddr: 0x55BE0, symSize: 0x608 }
  - { offset: 0x137270, size: 0x8, addend: 0x0, symName: __ZN4pyo35types14notimplemented16PyNotImplemented9get_bound17heb5859425dd259f1E, symObjAddr: 0x0, symBinAddr: 0x561E8, symSize: 0x2C }
  - { offset: 0x13899B, size: 0x8, addend: 0x0, symName: __ZN4pyo35types14notimplemented16PyNotImplemented9get_bound17heb5859425dd259f1E, symObjAddr: 0x0, symBinAddr: 0x561E8, symSize: 0x2C }
  - { offset: 0x1389E6, size: 0x8, addend: 0x0, symName: '__ZN74_$LT$rand_core..block..BlockRng$LT$R$GT$$u20$as$u20$rand_core..RngCore$GT$8next_u3217h4923271e4cef9cc0E', symObjAddr: 0x0, symBinAddr: 0x56214, symSize: 0xD8 }
  - { offset: 0x138A02, size: 0x8, addend: 0x0, symName: '__ZN74_$LT$rand_core..block..BlockRng$LT$R$GT$$u20$as$u20$rand_core..RngCore$GT$8next_u3217h4923271e4cef9cc0E', symObjAddr: 0x0, symBinAddr: 0x56214, symSize: 0xD8 }
  - { offset: 0x138A4C, size: 0x8, addend: 0x0, symName: '__ZN74_$LT$rand_core..block..BlockRng$LT$R$GT$$u20$as$u20$rand_core..RngCore$GT$8next_u6417he611650d66851056E', symObjAddr: 0xD8, symBinAddr: 0x562EC, symSize: 0x210 }
  - { offset: 0x138AF7, size: 0x8, addend: 0x0, symName: '__ZN74_$LT$rand_core..block..BlockRng$LT$R$GT$$u20$as$u20$rand_core..RngCore$GT$8next_u6428_$u7b$$u7b$closure$u7d$$u7d$17h26fc74cb7eae8608E', symObjAddr: 0x2E8, symBinAddr: 0x564FC, symSize: 0x114 }
  - { offset: 0x138D9D, size: 0x8, addend: 0x0, symName: __ZN8pyo3_ffi10boolobject7Py_True17h4045adaf34536f4cE, symObjAddr: 0x0, symBinAddr: 0x56610, symSize: 0xC }
  - { offset: 0x138E38, size: 0x8, addend: 0x0, symName: __ZN8pyo3_ffi10boolobject7Py_True17h4045adaf34536f4cE, symObjAddr: 0x0, symBinAddr: 0x56610, symSize: 0xC }
  - { offset: 0x138E55, size: 0x8, addend: 0x0, symName: __ZN8pyo3_ffi10boolobject8Py_False17h31e11d466f7624c7E, symObjAddr: 0xC, symBinAddr: 0x5661C, symSize: 0xC }
  - { offset: 0x13A2CD, size: 0x8, addend: 0x0, symName: '__ZN100_$LT$pyo3..pycell..impl_..MutableClass$u20$as$u20$pyo3..pycell..impl_..GetBorrowChecker$LT$T$GT$$GT$14borrow_checker17h02c35ab467ed2f98E', symObjAddr: 0x0, symBinAddr: 0x56628, symSize: 0x14 }
  - { offset: 0x13EB9F, size: 0x8, addend: 0x0, symName: '__ZN100_$LT$pyo3..pycell..impl_..MutableClass$u20$as$u20$pyo3..pycell..impl_..GetBorrowChecker$LT$T$GT$$GT$14borrow_checker17h02c35ab467ed2f98E', symObjAddr: 0x0, symBinAddr: 0x56628, symSize: 0x14 }
  - { offset: 0x13EBD4, size: 0x8, addend: 0x0, symName: '__ZN100_$LT$pyo3..pycell..impl_..MutableClass$u20$as$u20$pyo3..pycell..impl_..GetBorrowChecker$LT$T$GT$$GT$14borrow_checker17h04e501f75cc0555dE', symObjAddr: 0x14, symBinAddr: 0x5663C, symSize: 0x14 }
  - { offset: 0x13EC09, size: 0x8, addend: 0x0, symName: '__ZN100_$LT$pyo3..pycell..impl_..MutableClass$u20$as$u20$pyo3..pycell..impl_..GetBorrowChecker$LT$T$GT$$GT$14borrow_checker17h053a50c7f0b7dfb2E', symObjAddr: 0x28, symBinAddr: 0x56650, symSize: 0x14 }
  - { offset: 0x13EC3E, size: 0x8, addend: 0x0, symName: '__ZN100_$LT$pyo3..pycell..impl_..MutableClass$u20$as$u20$pyo3..pycell..impl_..GetBorrowChecker$LT$T$GT$$GT$14borrow_checker17h0a537d5486b8e340E', symObjAddr: 0x3C, symBinAddr: 0x56664, symSize: 0x14 }
  - { offset: 0x13EC73, size: 0x8, addend: 0x0, symName: '__ZN100_$LT$pyo3..pycell..impl_..MutableClass$u20$as$u20$pyo3..pycell..impl_..GetBorrowChecker$LT$T$GT$$GT$14borrow_checker17h0d3a81281d4d1293E', symObjAddr: 0x50, symBinAddr: 0x56678, symSize: 0x14 }
  - { offset: 0x13ECA8, size: 0x8, addend: 0x0, symName: '__ZN100_$LT$pyo3..pycell..impl_..MutableClass$u20$as$u20$pyo3..pycell..impl_..GetBorrowChecker$LT$T$GT$$GT$14borrow_checker17h164a0ba4951ac0e0E', symObjAddr: 0x64, symBinAddr: 0x5668C, symSize: 0x14 }
  - { offset: 0x13ECDD, size: 0x8, addend: 0x0, symName: '__ZN100_$LT$pyo3..pycell..impl_..MutableClass$u20$as$u20$pyo3..pycell..impl_..GetBorrowChecker$LT$T$GT$$GT$14borrow_checker17h16832365f2da4f35E', symObjAddr: 0x78, symBinAddr: 0x566A0, symSize: 0x14 }
  - { offset: 0x13ED12, size: 0x8, addend: 0x0, symName: '__ZN100_$LT$pyo3..pycell..impl_..MutableClass$u20$as$u20$pyo3..pycell..impl_..GetBorrowChecker$LT$T$GT$$GT$14borrow_checker17h329061bc9c145d1cE', symObjAddr: 0x8C, symBinAddr: 0x566B4, symSize: 0x14 }
  - { offset: 0x13ED47, size: 0x8, addend: 0x0, symName: '__ZN100_$LT$pyo3..pycell..impl_..MutableClass$u20$as$u20$pyo3..pycell..impl_..GetBorrowChecker$LT$T$GT$$GT$14borrow_checker17h33ec962bc3a4e06cE', symObjAddr: 0xA0, symBinAddr: 0x566C8, symSize: 0x14 }
  - { offset: 0x13ED7C, size: 0x8, addend: 0x0, symName: '__ZN100_$LT$pyo3..pycell..impl_..MutableClass$u20$as$u20$pyo3..pycell..impl_..GetBorrowChecker$LT$T$GT$$GT$14borrow_checker17h599679d580d4d8bdE', symObjAddr: 0xB4, symBinAddr: 0x566DC, symSize: 0x14 }
  - { offset: 0x13EDB1, size: 0x8, addend: 0x0, symName: '__ZN100_$LT$pyo3..pycell..impl_..MutableClass$u20$as$u20$pyo3..pycell..impl_..GetBorrowChecker$LT$T$GT$$GT$14borrow_checker17h67e0d1950c33767aE', symObjAddr: 0xC8, symBinAddr: 0x566F0, symSize: 0x14 }
  - { offset: 0x13EDE6, size: 0x8, addend: 0x0, symName: '__ZN100_$LT$pyo3..pycell..impl_..MutableClass$u20$as$u20$pyo3..pycell..impl_..GetBorrowChecker$LT$T$GT$$GT$14borrow_checker17h6d3062f42f1802ddE', symObjAddr: 0xDC, symBinAddr: 0x56704, symSize: 0x14 }
  - { offset: 0x13EE1B, size: 0x8, addend: 0x0, symName: '__ZN100_$LT$pyo3..pycell..impl_..MutableClass$u20$as$u20$pyo3..pycell..impl_..GetBorrowChecker$LT$T$GT$$GT$14borrow_checker17h7c78493b3fce4558E', symObjAddr: 0xF0, symBinAddr: 0x56718, symSize: 0x14 }
  - { offset: 0x13EE50, size: 0x8, addend: 0x0, symName: '__ZN100_$LT$pyo3..pycell..impl_..MutableClass$u20$as$u20$pyo3..pycell..impl_..GetBorrowChecker$LT$T$GT$$GT$14borrow_checker17h85c173c48e3bd0dcE', symObjAddr: 0x104, symBinAddr: 0x5672C, symSize: 0x14 }
  - { offset: 0x13EE85, size: 0x8, addend: 0x0, symName: '__ZN100_$LT$pyo3..pycell..impl_..MutableClass$u20$as$u20$pyo3..pycell..impl_..GetBorrowChecker$LT$T$GT$$GT$14borrow_checker17h8957fa69c94923beE', symObjAddr: 0x118, symBinAddr: 0x56740, symSize: 0x14 }
  - { offset: 0x13EEBA, size: 0x8, addend: 0x0, symName: '__ZN100_$LT$pyo3..pycell..impl_..MutableClass$u20$as$u20$pyo3..pycell..impl_..GetBorrowChecker$LT$T$GT$$GT$14borrow_checker17h92399980f07edf21E', symObjAddr: 0x12C, symBinAddr: 0x56754, symSize: 0x14 }
  - { offset: 0x13EEEF, size: 0x8, addend: 0x0, symName: '__ZN100_$LT$pyo3..pycell..impl_..MutableClass$u20$as$u20$pyo3..pycell..impl_..GetBorrowChecker$LT$T$GT$$GT$14borrow_checker17hce007624ef980505E', symObjAddr: 0x140, symBinAddr: 0x56768, symSize: 0x14 }
  - { offset: 0x13EF24, size: 0x8, addend: 0x0, symName: '__ZN100_$LT$pyo3..pycell..impl_..MutableClass$u20$as$u20$pyo3..pycell..impl_..GetBorrowChecker$LT$T$GT$$GT$14borrow_checker17hd149803aff4e2ee3E', symObjAddr: 0x154, symBinAddr: 0x5677C, symSize: 0x14 }
  - { offset: 0x13EF59, size: 0x8, addend: 0x0, symName: '__ZN100_$LT$pyo3..pycell..impl_..MutableClass$u20$as$u20$pyo3..pycell..impl_..GetBorrowChecker$LT$T$GT$$GT$14borrow_checker17hd41bf0163513e436E', symObjAddr: 0x168, symBinAddr: 0x56790, symSize: 0x14 }
  - { offset: 0x13EF8E, size: 0x8, addend: 0x0, symName: '__ZN100_$LT$pyo3..pycell..impl_..MutableClass$u20$as$u20$pyo3..pycell..impl_..GetBorrowChecker$LT$T$GT$$GT$14borrow_checker17he24f3954eee8f91dE', symObjAddr: 0x17C, symBinAddr: 0x567A4, symSize: 0x14 }
  - { offset: 0x13EFC3, size: 0x8, addend: 0x0, symName: '__ZN100_$LT$pyo3..pycell..impl_..MutableClass$u20$as$u20$pyo3..pycell..impl_..GetBorrowChecker$LT$T$GT$$GT$14borrow_checker17hf1237fe49c838ceaE', symObjAddr: 0x190, symBinAddr: 0x567B8, symSize: 0x14 }
  - { offset: 0x13EFF8, size: 0x8, addend: 0x0, symName: '__ZN100_$LT$pyo3..pycell..impl_..MutableClass$u20$as$u20$pyo3..pycell..impl_..GetBorrowChecker$LT$T$GT$$GT$14borrow_checker17hf4f97119f0db050eE', symObjAddr: 0x1A4, symBinAddr: 0x567CC, symSize: 0x14 }
  - { offset: 0x13F033, size: 0x8, addend: 0x0, symName: '__ZN113_$LT$pyo3..pycell..impl_..PyClassObject$LT$T$GT$$u20$as$u20$pyo3..pycell..impl_..PyClassObjectLayout$LT$T$GT$$GT$10tp_dealloc17h02602201dcc46a26E', symObjAddr: 0x1B8, symBinAddr: 0x567E0, symSize: 0xB4 }
  - { offset: 0x13F097, size: 0x8, addend: 0x0, symName: '__ZN113_$LT$pyo3..pycell..impl_..PyClassObject$LT$T$GT$$u20$as$u20$pyo3..pycell..impl_..PyClassObjectLayout$LT$T$GT$$GT$10tp_dealloc17h0b660c9ea9dc3965E', symObjAddr: 0x26C, symBinAddr: 0x56894, symSize: 0xB4 }
  - { offset: 0x13F0FB, size: 0x8, addend: 0x0, symName: '__ZN113_$LT$pyo3..pycell..impl_..PyClassObject$LT$T$GT$$u20$as$u20$pyo3..pycell..impl_..PyClassObjectLayout$LT$T$GT$$GT$10tp_dealloc17h129c14643195c8a9E', symObjAddr: 0x320, symBinAddr: 0x56948, symSize: 0xB4 }
  - { offset: 0x13F15F, size: 0x8, addend: 0x0, symName: '__ZN113_$LT$pyo3..pycell..impl_..PyClassObject$LT$T$GT$$u20$as$u20$pyo3..pycell..impl_..PyClassObjectLayout$LT$T$GT$$GT$10tp_dealloc17h19846972b9e5d4ecE', symObjAddr: 0x3D4, symBinAddr: 0x569FC, symSize: 0xB4 }
  - { offset: 0x13F1C3, size: 0x8, addend: 0x0, symName: '__ZN113_$LT$pyo3..pycell..impl_..PyClassObject$LT$T$GT$$u20$as$u20$pyo3..pycell..impl_..PyClassObjectLayout$LT$T$GT$$GT$10tp_dealloc17h29d6494df732390fE', symObjAddr: 0x488, symBinAddr: 0x56AB0, symSize: 0xB4 }
  - { offset: 0x13F227, size: 0x8, addend: 0x0, symName: '__ZN113_$LT$pyo3..pycell..impl_..PyClassObject$LT$T$GT$$u20$as$u20$pyo3..pycell..impl_..PyClassObjectLayout$LT$T$GT$$GT$10tp_dealloc17h32bdf1f55a42e492E', symObjAddr: 0x53C, symBinAddr: 0x56B64, symSize: 0xB4 }
  - { offset: 0x13F28B, size: 0x8, addend: 0x0, symName: '__ZN113_$LT$pyo3..pycell..impl_..PyClassObject$LT$T$GT$$u20$as$u20$pyo3..pycell..impl_..PyClassObjectLayout$LT$T$GT$$GT$10tp_dealloc17h552610c4479660d9E', symObjAddr: 0x5F0, symBinAddr: 0x56C18, symSize: 0xB4 }
  - { offset: 0x13F2EF, size: 0x8, addend: 0x0, symName: '__ZN113_$LT$pyo3..pycell..impl_..PyClassObject$LT$T$GT$$u20$as$u20$pyo3..pycell..impl_..PyClassObjectLayout$LT$T$GT$$GT$10tp_dealloc17h611fc97405a96737E', symObjAddr: 0x6A4, symBinAddr: 0x56CCC, symSize: 0xB4 }
  - { offset: 0x13F353, size: 0x8, addend: 0x0, symName: '__ZN113_$LT$pyo3..pycell..impl_..PyClassObject$LT$T$GT$$u20$as$u20$pyo3..pycell..impl_..PyClassObjectLayout$LT$T$GT$$GT$10tp_dealloc17h754383caeb4f06cfE', symObjAddr: 0x758, symBinAddr: 0x56D80, symSize: 0xB4 }
  - { offset: 0x13F3B7, size: 0x8, addend: 0x0, symName: '__ZN113_$LT$pyo3..pycell..impl_..PyClassObject$LT$T$GT$$u20$as$u20$pyo3..pycell..impl_..PyClassObjectLayout$LT$T$GT$$GT$10tp_dealloc17h98bb831b97890156E', symObjAddr: 0x80C, symBinAddr: 0x56E34, symSize: 0xB4 }
  - { offset: 0x13F41B, size: 0x8, addend: 0x0, symName: '__ZN113_$LT$pyo3..pycell..impl_..PyClassObject$LT$T$GT$$u20$as$u20$pyo3..pycell..impl_..PyClassObjectLayout$LT$T$GT$$GT$10tp_dealloc17h9fa8d6a29fb60467E', symObjAddr: 0x8C0, symBinAddr: 0x56EE8, symSize: 0xB4 }
  - { offset: 0x13F47F, size: 0x8, addend: 0x0, symName: '__ZN113_$LT$pyo3..pycell..impl_..PyClassObject$LT$T$GT$$u20$as$u20$pyo3..pycell..impl_..PyClassObjectLayout$LT$T$GT$$GT$10tp_dealloc17ha1aee57ad5f79e29E', symObjAddr: 0x974, symBinAddr: 0x56F9C, symSize: 0xB4 }
  - { offset: 0x13F4E3, size: 0x8, addend: 0x0, symName: '__ZN113_$LT$pyo3..pycell..impl_..PyClassObject$LT$T$GT$$u20$as$u20$pyo3..pycell..impl_..PyClassObjectLayout$LT$T$GT$$GT$10tp_dealloc17hae69f0477152cee4E', symObjAddr: 0xA28, symBinAddr: 0x57050, symSize: 0xB4 }
  - { offset: 0x13F547, size: 0x8, addend: 0x0, symName: '__ZN113_$LT$pyo3..pycell..impl_..PyClassObject$LT$T$GT$$u20$as$u20$pyo3..pycell..impl_..PyClassObjectLayout$LT$T$GT$$GT$10tp_dealloc17hb8a70ddea960cd87E', symObjAddr: 0xADC, symBinAddr: 0x57104, symSize: 0xB4 }
  - { offset: 0x13F5AB, size: 0x8, addend: 0x0, symName: '__ZN113_$LT$pyo3..pycell..impl_..PyClassObject$LT$T$GT$$u20$as$u20$pyo3..pycell..impl_..PyClassObjectLayout$LT$T$GT$$GT$10tp_dealloc17hbc81b4c9e506024eE', symObjAddr: 0xB90, symBinAddr: 0x571B8, symSize: 0xB4 }
  - { offset: 0x13F60F, size: 0x8, addend: 0x0, symName: '__ZN113_$LT$pyo3..pycell..impl_..PyClassObject$LT$T$GT$$u20$as$u20$pyo3..pycell..impl_..PyClassObjectLayout$LT$T$GT$$GT$10tp_dealloc17hc6316f5adad97394E', symObjAddr: 0xC44, symBinAddr: 0x5726C, symSize: 0xB4 }
  - { offset: 0x13F673, size: 0x8, addend: 0x0, symName: '__ZN113_$LT$pyo3..pycell..impl_..PyClassObject$LT$T$GT$$u20$as$u20$pyo3..pycell..impl_..PyClassObjectLayout$LT$T$GT$$GT$10tp_dealloc17hc77aef86f547ae4aE', symObjAddr: 0xCF8, symBinAddr: 0x57320, symSize: 0xB4 }
  - { offset: 0x13F6D7, size: 0x8, addend: 0x0, symName: '__ZN113_$LT$pyo3..pycell..impl_..PyClassObject$LT$T$GT$$u20$as$u20$pyo3..pycell..impl_..PyClassObjectLayout$LT$T$GT$$GT$10tp_dealloc17hcdc4d3d859304a51E', symObjAddr: 0xDAC, symBinAddr: 0x573D4, symSize: 0xB4 }
  - { offset: 0x13F73B, size: 0x8, addend: 0x0, symName: '__ZN113_$LT$pyo3..pycell..impl_..PyClassObject$LT$T$GT$$u20$as$u20$pyo3..pycell..impl_..PyClassObjectLayout$LT$T$GT$$GT$10tp_dealloc17hd109d2a0832819fcE', symObjAddr: 0xE60, symBinAddr: 0x57488, symSize: 0xB4 }
  - { offset: 0x13F79F, size: 0x8, addend: 0x0, symName: '__ZN113_$LT$pyo3..pycell..impl_..PyClassObject$LT$T$GT$$u20$as$u20$pyo3..pycell..impl_..PyClassObjectLayout$LT$T$GT$$GT$10tp_dealloc17hdb5cf4d63ea45e7aE', symObjAddr: 0xF14, symBinAddr: 0x5753C, symSize: 0xB4 }
  - { offset: 0x13F803, size: 0x8, addend: 0x0, symName: '__ZN113_$LT$pyo3..pycell..impl_..PyClassObject$LT$T$GT$$u20$as$u20$pyo3..pycell..impl_..PyClassObjectLayout$LT$T$GT$$GT$10tp_dealloc17he0c27e29db5583aeE', symObjAddr: 0xFC8, symBinAddr: 0x575F0, symSize: 0xB4 }
  - { offset: 0x13F867, size: 0x8, addend: 0x0, symName: '__ZN113_$LT$pyo3..pycell..impl_..PyClassObject$LT$T$GT$$u20$as$u20$pyo3..pycell..impl_..PyClassObjectLayout$LT$T$GT$$GT$10tp_dealloc17hf2259513712a9f49E', symObjAddr: 0x107C, symBinAddr: 0x576A4, symSize: 0xB4 }
  - { offset: 0x13F8CB, size: 0x8, addend: 0x0, symName: '__ZN113_$LT$pyo3..pycell..impl_..PyClassObject$LT$T$GT$$u20$as$u20$pyo3..pycell..impl_..PyClassObjectLayout$LT$T$GT$$GT$17ensure_threadsafe17h0605eb876607d5c5E', symObjAddr: 0x1130, symBinAddr: 0x57758, symSize: 0x30 }
  - { offset: 0x13F8FE, size: 0x8, addend: 0x0, symName: '__ZN113_$LT$pyo3..pycell..impl_..PyClassObject$LT$T$GT$$u20$as$u20$pyo3..pycell..impl_..PyClassObjectLayout$LT$T$GT$$GT$17ensure_threadsafe17h1574675ff4ddb9f2E', symObjAddr: 0x1160, symBinAddr: 0x57788, symSize: 0x30 }
  - { offset: 0x13F931, size: 0x8, addend: 0x0, symName: '__ZN113_$LT$pyo3..pycell..impl_..PyClassObject$LT$T$GT$$u20$as$u20$pyo3..pycell..impl_..PyClassObjectLayout$LT$T$GT$$GT$17ensure_threadsafe17h183754aa3b905211E', symObjAddr: 0x1190, symBinAddr: 0x577B8, symSize: 0x30 }
  - { offset: 0x13F964, size: 0x8, addend: 0x0, symName: '__ZN113_$LT$pyo3..pycell..impl_..PyClassObject$LT$T$GT$$u20$as$u20$pyo3..pycell..impl_..PyClassObjectLayout$LT$T$GT$$GT$17ensure_threadsafe17h21ff989881dc3ed0E', symObjAddr: 0x11C0, symBinAddr: 0x577E8, symSize: 0x30 }
  - { offset: 0x13F997, size: 0x8, addend: 0x0, symName: '__ZN113_$LT$pyo3..pycell..impl_..PyClassObject$LT$T$GT$$u20$as$u20$pyo3..pycell..impl_..PyClassObjectLayout$LT$T$GT$$GT$17ensure_threadsafe17h2c40bfdcd1021d19E', symObjAddr: 0x11F0, symBinAddr: 0x57818, symSize: 0x30 }
  - { offset: 0x13F9CA, size: 0x8, addend: 0x0, symName: '__ZN113_$LT$pyo3..pycell..impl_..PyClassObject$LT$T$GT$$u20$as$u20$pyo3..pycell..impl_..PyClassObjectLayout$LT$T$GT$$GT$17ensure_threadsafe17h4a6710fd9cdfae12E', symObjAddr: 0x1220, symBinAddr: 0x57848, symSize: 0x30 }
  - { offset: 0x13F9FD, size: 0x8, addend: 0x0, symName: '__ZN113_$LT$pyo3..pycell..impl_..PyClassObject$LT$T$GT$$u20$as$u20$pyo3..pycell..impl_..PyClassObjectLayout$LT$T$GT$$GT$17ensure_threadsafe17h517fa6e73a3f686dE', symObjAddr: 0x1250, symBinAddr: 0x57878, symSize: 0x30 }
  - { offset: 0x13FA30, size: 0x8, addend: 0x0, symName: '__ZN113_$LT$pyo3..pycell..impl_..PyClassObject$LT$T$GT$$u20$as$u20$pyo3..pycell..impl_..PyClassObjectLayout$LT$T$GT$$GT$17ensure_threadsafe17h551e472fbb32ead1E', symObjAddr: 0x1280, symBinAddr: 0x578A8, symSize: 0x30 }
  - { offset: 0x13FA63, size: 0x8, addend: 0x0, symName: '__ZN113_$LT$pyo3..pycell..impl_..PyClassObject$LT$T$GT$$u20$as$u20$pyo3..pycell..impl_..PyClassObjectLayout$LT$T$GT$$GT$17ensure_threadsafe17h562341bad6cd1d0bE', symObjAddr: 0x12B0, symBinAddr: 0x578D8, symSize: 0x30 }
  - { offset: 0x13FA96, size: 0x8, addend: 0x0, symName: '__ZN113_$LT$pyo3..pycell..impl_..PyClassObject$LT$T$GT$$u20$as$u20$pyo3..pycell..impl_..PyClassObjectLayout$LT$T$GT$$GT$17ensure_threadsafe17h6a4b9b98b2af4bafE', symObjAddr: 0x12E0, symBinAddr: 0x57908, symSize: 0x30 }
  - { offset: 0x13FAC9, size: 0x8, addend: 0x0, symName: '__ZN113_$LT$pyo3..pycell..impl_..PyClassObject$LT$T$GT$$u20$as$u20$pyo3..pycell..impl_..PyClassObjectLayout$LT$T$GT$$GT$17ensure_threadsafe17h7069ac1c52b95b55E', symObjAddr: 0x1310, symBinAddr: 0x57938, symSize: 0x30 }
  - { offset: 0x13FAFC, size: 0x8, addend: 0x0, symName: '__ZN113_$LT$pyo3..pycell..impl_..PyClassObject$LT$T$GT$$u20$as$u20$pyo3..pycell..impl_..PyClassObjectLayout$LT$T$GT$$GT$17ensure_threadsafe17h800f576bdf7843f5E', symObjAddr: 0x1340, symBinAddr: 0x57968, symSize: 0x30 }
  - { offset: 0x13FB2F, size: 0x8, addend: 0x0, symName: '__ZN113_$LT$pyo3..pycell..impl_..PyClassObject$LT$T$GT$$u20$as$u20$pyo3..pycell..impl_..PyClassObjectLayout$LT$T$GT$$GT$17ensure_threadsafe17h89cd66acc6254731E', symObjAddr: 0x1370, symBinAddr: 0x57998, symSize: 0x30 }
  - { offset: 0x13FB62, size: 0x8, addend: 0x0, symName: '__ZN113_$LT$pyo3..pycell..impl_..PyClassObject$LT$T$GT$$u20$as$u20$pyo3..pycell..impl_..PyClassObjectLayout$LT$T$GT$$GT$17ensure_threadsafe17ha55563115d14272fE', symObjAddr: 0x13A0, symBinAddr: 0x579C8, symSize: 0x30 }
  - { offset: 0x13FB95, size: 0x8, addend: 0x0, symName: '__ZN113_$LT$pyo3..pycell..impl_..PyClassObject$LT$T$GT$$u20$as$u20$pyo3..pycell..impl_..PyClassObjectLayout$LT$T$GT$$GT$17ensure_threadsafe17had21c173cf77d8a3E', symObjAddr: 0x13D0, symBinAddr: 0x579F8, symSize: 0x30 }
  - { offset: 0x13FBC8, size: 0x8, addend: 0x0, symName: '__ZN113_$LT$pyo3..pycell..impl_..PyClassObject$LT$T$GT$$u20$as$u20$pyo3..pycell..impl_..PyClassObjectLayout$LT$T$GT$$GT$17ensure_threadsafe17hb7c1a856f12569d5E', symObjAddr: 0x1400, symBinAddr: 0x57A28, symSize: 0x30 }
  - { offset: 0x13FBFB, size: 0x8, addend: 0x0, symName: '__ZN113_$LT$pyo3..pycell..impl_..PyClassObject$LT$T$GT$$u20$as$u20$pyo3..pycell..impl_..PyClassObjectLayout$LT$T$GT$$GT$17ensure_threadsafe17hc8b2621efe6051c0E', symObjAddr: 0x1430, symBinAddr: 0x57A58, symSize: 0x30 }
  - { offset: 0x13FC2E, size: 0x8, addend: 0x0, symName: '__ZN113_$LT$pyo3..pycell..impl_..PyClassObject$LT$T$GT$$u20$as$u20$pyo3..pycell..impl_..PyClassObjectLayout$LT$T$GT$$GT$17ensure_threadsafe17hddc426161c331627E', symObjAddr: 0x1460, symBinAddr: 0x57A88, symSize: 0x30 }
  - { offset: 0x13FC61, size: 0x8, addend: 0x0, symName: '__ZN113_$LT$pyo3..pycell..impl_..PyClassObject$LT$T$GT$$u20$as$u20$pyo3..pycell..impl_..PyClassObjectLayout$LT$T$GT$$GT$17ensure_threadsafe17he43788f72ce6306cE', symObjAddr: 0x1490, symBinAddr: 0x57AB8, symSize: 0x30 }
  - { offset: 0x13FC94, size: 0x8, addend: 0x0, symName: '__ZN113_$LT$pyo3..pycell..impl_..PyClassObject$LT$T$GT$$u20$as$u20$pyo3..pycell..impl_..PyClassObjectLayout$LT$T$GT$$GT$17ensure_threadsafe17hf631f2bf8c59d2cbE', symObjAddr: 0x14C0, symBinAddr: 0x57AE8, symSize: 0x30 }
  - { offset: 0x13FCC7, size: 0x8, addend: 0x0, symName: '__ZN113_$LT$pyo3..pycell..impl_..PyClassObject$LT$T$GT$$u20$as$u20$pyo3..pycell..impl_..PyClassObjectLayout$LT$T$GT$$GT$17ensure_threadsafe17hfeca1d413859bcdcE', symObjAddr: 0x14F0, symBinAddr: 0x57B18, symSize: 0x30 }
  - { offset: 0x13FCFA, size: 0x8, addend: 0x0, symName: '__ZN113_$LT$pyo3..pycell..impl_..PyClassObject$LT$T$GT$$u20$as$u20$pyo3..pycell..impl_..PyClassObjectLayout$LT$T$GT$$GT$17ensure_threadsafe17hff80df2503b06aa4E', symObjAddr: 0x1520, symBinAddr: 0x57B48, symSize: 0x30 }
  - { offset: 0x13FD33, size: 0x8, addend: 0x0, symName: '__ZN117_$LT$pyo3..pycell..impl_..PyClassObjectBase$LT$U$GT$$u20$as$u20$pyo3..pycell..impl_..PyClassObjectLayout$LT$T$GT$$GT$10tp_dealloc17h21380ae5fafc9ac9E', symObjAddr: 0x1550, symBinAddr: 0x57B78, symSize: 0x270 }
  - { offset: 0x13FE36, size: 0x8, addend: 0x0, symName: '__ZN117_$LT$pyo3..pycell..impl_..PyClassObjectBase$LT$U$GT$$u20$as$u20$pyo3..pycell..impl_..PyClassObjectLayout$LT$T$GT$$GT$17ensure_threadsafe17h9ecd9419a88f3e84E', symObjAddr: 0x17C0, symBinAddr: 0x57DE8, symSize: 0x10 }
  - { offset: 0x1416CF, size: 0x8, addend: 0x0, symName: '__ZN4pyo36pycell5impl_22PyClassObject$LT$T$GT$14borrow_checker17h03e9a8718027e020E', symObjAddr: 0x17D0, symBinAddr: 0x57DF8, symSize: 0x24 }
  - { offset: 0x143135, size: 0x8, addend: 0x0, symName: '__ZN4pyo36pycell5impl_22PyClassObject$LT$T$GT$14borrow_checker17h0a1bfb5fc16e87e1E', symObjAddr: 0x17F4, symBinAddr: 0x57E1C, symSize: 0x24 }
  - { offset: 0x14316E, size: 0x8, addend: 0x0, symName: '__ZN4pyo36pycell5impl_22PyClassObject$LT$T$GT$14borrow_checker17h0b83a109c5c1ea83E', symObjAddr: 0x1818, symBinAddr: 0x57E40, symSize: 0x24 }
  - { offset: 0x1431A7, size: 0x8, addend: 0x0, symName: '__ZN4pyo36pycell5impl_22PyClassObject$LT$T$GT$14borrow_checker17h0c2ec33ac8f1139fE', symObjAddr: 0x183C, symBinAddr: 0x57E64, symSize: 0x24 }
  - { offset: 0x1431E0, size: 0x8, addend: 0x0, symName: '__ZN4pyo36pycell5impl_22PyClassObject$LT$T$GT$14borrow_checker17h1b39bc93cbce7378E', symObjAddr: 0x1860, symBinAddr: 0x57E88, symSize: 0x24 }
  - { offset: 0x143219, size: 0x8, addend: 0x0, symName: '__ZN4pyo36pycell5impl_22PyClassObject$LT$T$GT$14borrow_checker17h20c897c20da99fdaE', symObjAddr: 0x1884, symBinAddr: 0x57EAC, symSize: 0x24 }
  - { offset: 0x143252, size: 0x8, addend: 0x0, symName: '__ZN4pyo36pycell5impl_22PyClassObject$LT$T$GT$14borrow_checker17h3f3bee4a091e2e50E', symObjAddr: 0x18A8, symBinAddr: 0x57ED0, symSize: 0x24 }
  - { offset: 0x14328B, size: 0x8, addend: 0x0, symName: '__ZN4pyo36pycell5impl_22PyClassObject$LT$T$GT$14borrow_checker17h4146d39d6d5b296cE', symObjAddr: 0x18CC, symBinAddr: 0x57EF4, symSize: 0x24 }
  - { offset: 0x1432C4, size: 0x8, addend: 0x0, symName: '__ZN4pyo36pycell5impl_22PyClassObject$LT$T$GT$14borrow_checker17h45e025aa132264c8E', symObjAddr: 0x18F0, symBinAddr: 0x57F18, symSize: 0x24 }
  - { offset: 0x1432FD, size: 0x8, addend: 0x0, symName: '__ZN4pyo36pycell5impl_22PyClassObject$LT$T$GT$14borrow_checker17h510f348b56e229acE', symObjAddr: 0x1914, symBinAddr: 0x57F3C, symSize: 0x24 }
  - { offset: 0x143336, size: 0x8, addend: 0x0, symName: '__ZN4pyo36pycell5impl_22PyClassObject$LT$T$GT$14borrow_checker17h6166e17d9a45d91bE', symObjAddr: 0x1938, symBinAddr: 0x57F60, symSize: 0x24 }
  - { offset: 0x14336F, size: 0x8, addend: 0x0, symName: '__ZN4pyo36pycell5impl_22PyClassObject$LT$T$GT$14borrow_checker17h81ae977b060804cfE', symObjAddr: 0x195C, symBinAddr: 0x57F84, symSize: 0x24 }
  - { offset: 0x1433A8, size: 0x8, addend: 0x0, symName: '__ZN4pyo36pycell5impl_22PyClassObject$LT$T$GT$14borrow_checker17h893afcfa096edec1E', symObjAddr: 0x1980, symBinAddr: 0x57FA8, symSize: 0x24 }
  - { offset: 0x1433E1, size: 0x8, addend: 0x0, symName: '__ZN4pyo36pycell5impl_22PyClassObject$LT$T$GT$14borrow_checker17h90a8ca48be025f1dE', symObjAddr: 0x19A4, symBinAddr: 0x57FCC, symSize: 0x24 }
  - { offset: 0x14341A, size: 0x8, addend: 0x0, symName: '__ZN4pyo36pycell5impl_22PyClassObject$LT$T$GT$14borrow_checker17hab5131b73335ee3dE', symObjAddr: 0x19C8, symBinAddr: 0x57FF0, symSize: 0x24 }
  - { offset: 0x143453, size: 0x8, addend: 0x0, symName: '__ZN4pyo36pycell5impl_22PyClassObject$LT$T$GT$14borrow_checker17hb21c66137cb50031E', symObjAddr: 0x19EC, symBinAddr: 0x58014, symSize: 0x24 }
  - { offset: 0x143557, size: 0x8, addend: 0x0, symName: '__ZN4pyo36pycell5impl_22PyClassObject$LT$T$GT$14borrow_checker17hbe0904aad4321eb1E', symObjAddr: 0x1A10, symBinAddr: 0x58038, symSize: 0x24 }
  - { offset: 0x143590, size: 0x8, addend: 0x0, symName: '__ZN4pyo36pycell5impl_22PyClassObject$LT$T$GT$14borrow_checker17hbecf05396a6905beE', symObjAddr: 0x1A34, symBinAddr: 0x5805C, symSize: 0x24 }
  - { offset: 0x1435C9, size: 0x8, addend: 0x0, symName: '__ZN4pyo36pycell5impl_22PyClassObject$LT$T$GT$14borrow_checker17hcaca29569c9175f4E', symObjAddr: 0x1A58, symBinAddr: 0x58080, symSize: 0x24 }
  - { offset: 0x1436D1, size: 0x8, addend: 0x0, symName: '__ZN4pyo36pycell5impl_22PyClassObject$LT$T$GT$14borrow_checker17he3cbc7e7ac5da64dE', symObjAddr: 0x1A7C, symBinAddr: 0x580A4, symSize: 0x24 }
  - { offset: 0x14370A, size: 0x8, addend: 0x0, symName: '__ZN4pyo36pycell5impl_22PyClassObject$LT$T$GT$14borrow_checker17he5adf851010867b2E', symObjAddr: 0x1AA0, symBinAddr: 0x580C8, symSize: 0x24 }
  - { offset: 0x143743, size: 0x8, addend: 0x0, symName: '__ZN4pyo36pycell5impl_22PyClassObject$LT$T$GT$14borrow_checker17hfcdb85562d9386bfE', symObjAddr: 0x1AC4, symBinAddr: 0x580EC, symSize: 0x24 }
  - { offset: 0x14377C, size: 0x8, addend: 0x0, symName: '__ZN4pyo36pycell5impl_22PyClassObject$LT$T$GT$7get_ptr17h0b5619bd875f52ceE', symObjAddr: 0x1AE8, symBinAddr: 0x58110, symSize: 0x24 }
  - { offset: 0x1437B5, size: 0x8, addend: 0x0, symName: '__ZN4pyo36pycell5impl_22PyClassObject$LT$T$GT$7get_ptr17h1ae7734f346bf51eE', symObjAddr: 0x1B0C, symBinAddr: 0x58134, symSize: 0x24 }
  - { offset: 0x1437EE, size: 0x8, addend: 0x0, symName: '__ZN4pyo36pycell5impl_22PyClassObject$LT$T$GT$7get_ptr17h1b9eac02b7085de6E', symObjAddr: 0x1B30, symBinAddr: 0x58158, symSize: 0x24 }
  - { offset: 0x143827, size: 0x8, addend: 0x0, symName: '__ZN4pyo36pycell5impl_22PyClassObject$LT$T$GT$7get_ptr17h240775051f4b3635E', symObjAddr: 0x1B54, symBinAddr: 0x5817C, symSize: 0x24 }
  - { offset: 0x143860, size: 0x8, addend: 0x0, symName: '__ZN4pyo36pycell5impl_22PyClassObject$LT$T$GT$7get_ptr17h37750869a4ee7dffE', symObjAddr: 0x1B78, symBinAddr: 0x581A0, symSize: 0x24 }
  - { offset: 0x143899, size: 0x8, addend: 0x0, symName: '__ZN4pyo36pycell5impl_22PyClassObject$LT$T$GT$7get_ptr17h3cb178ef1ca4416bE', symObjAddr: 0x1B9C, symBinAddr: 0x581C4, symSize: 0x24 }
  - { offset: 0x1438D2, size: 0x8, addend: 0x0, symName: '__ZN4pyo36pycell5impl_22PyClassObject$LT$T$GT$7get_ptr17h41b677e43a7e6904E', symObjAddr: 0x1BC0, symBinAddr: 0x581E8, symSize: 0x24 }
  - { offset: 0x14390B, size: 0x8, addend: 0x0, symName: '__ZN4pyo36pycell5impl_22PyClassObject$LT$T$GT$7get_ptr17h4f7fd21429e97bbeE', symObjAddr: 0x1BE4, symBinAddr: 0x5820C, symSize: 0x24 }
  - { offset: 0x143944, size: 0x8, addend: 0x0, symName: '__ZN4pyo36pycell5impl_22PyClassObject$LT$T$GT$7get_ptr17h5220f8d82608c704E', symObjAddr: 0x1C08, symBinAddr: 0x58230, symSize: 0x24 }
  - { offset: 0x14397D, size: 0x8, addend: 0x0, symName: '__ZN4pyo36pycell5impl_22PyClassObject$LT$T$GT$7get_ptr17h528b5430ffb17500E', symObjAddr: 0x1C2C, symBinAddr: 0x58254, symSize: 0x24 }
  - { offset: 0x1439B6, size: 0x8, addend: 0x0, symName: '__ZN4pyo36pycell5impl_22PyClassObject$LT$T$GT$7get_ptr17h6fb9d0c357bbfea7E', symObjAddr: 0x1C50, symBinAddr: 0x58278, symSize: 0x24 }
  - { offset: 0x1439EF, size: 0x8, addend: 0x0, symName: '__ZN4pyo36pycell5impl_22PyClassObject$LT$T$GT$7get_ptr17h7339865c185c54c4E', symObjAddr: 0x1C74, symBinAddr: 0x5829C, symSize: 0x24 }
  - { offset: 0x143A28, size: 0x8, addend: 0x0, symName: '__ZN4pyo36pycell5impl_22PyClassObject$LT$T$GT$7get_ptr17h781983eb16d16c7cE', symObjAddr: 0x1C98, symBinAddr: 0x582C0, symSize: 0x24 }
  - { offset: 0x143A61, size: 0x8, addend: 0x0, symName: '__ZN4pyo36pycell5impl_22PyClassObject$LT$T$GT$7get_ptr17h7d0f445756c69b22E', symObjAddr: 0x1CBC, symBinAddr: 0x582E4, symSize: 0x24 }
  - { offset: 0x143A9A, size: 0x8, addend: 0x0, symName: '__ZN4pyo36pycell5impl_22PyClassObject$LT$T$GT$7get_ptr17h80ac4ee37c984561E', symObjAddr: 0x1CE0, symBinAddr: 0x58308, symSize: 0x24 }
  - { offset: 0x143AD3, size: 0x8, addend: 0x0, symName: '__ZN4pyo36pycell5impl_22PyClassObject$LT$T$GT$7get_ptr17ha16ca0220de74156E', symObjAddr: 0x1D04, symBinAddr: 0x5832C, symSize: 0x24 }
  - { offset: 0x143B0C, size: 0x8, addend: 0x0, symName: '__ZN4pyo36pycell5impl_22PyClassObject$LT$T$GT$7get_ptr17ha2859f4f6fc217ecE', symObjAddr: 0x1D28, symBinAddr: 0x58350, symSize: 0x24 }
  - { offset: 0x143B45, size: 0x8, addend: 0x0, symName: '__ZN4pyo36pycell5impl_22PyClassObject$LT$T$GT$7get_ptr17hb72f94ffbd720f16E', symObjAddr: 0x1D4C, symBinAddr: 0x58374, symSize: 0x24 }
  - { offset: 0x143B7E, size: 0x8, addend: 0x0, symName: '__ZN4pyo36pycell5impl_22PyClassObject$LT$T$GT$7get_ptr17hc99ebca5f49cfcefE', symObjAddr: 0x1D70, symBinAddr: 0x58398, symSize: 0x24 }
  - { offset: 0x143BB7, size: 0x8, addend: 0x0, symName: '__ZN4pyo36pycell5impl_22PyClassObject$LT$T$GT$7get_ptr17hccafdd34e5921d3cE', symObjAddr: 0x1D94, symBinAddr: 0x583BC, symSize: 0x24 }
  - { offset: 0x143BF0, size: 0x8, addend: 0x0, symName: '__ZN4pyo36pycell5impl_22PyClassObject$LT$T$GT$7get_ptr17hdaec8e9b6260bba4E', symObjAddr: 0x1DB8, symBinAddr: 0x583E0, symSize: 0x24 }
  - { offset: 0x143C29, size: 0x8, addend: 0x0, symName: '__ZN4pyo36pycell5impl_22PyClassObject$LT$T$GT$7get_ptr17hfadd22593a0b976cE', symObjAddr: 0x1DDC, symBinAddr: 0x58404, symSize: 0x24 }
  - { offset: 0x143DD6, size: 0x8, addend: 0x0, symName: __ZN4pyo35impl_4wrap19map_result_into_ptr17h011c025c1d3cd3c2E, symObjAddr: 0x0, symBinAddr: 0x58428, symSize: 0x38 }
  - { offset: 0x145C2E, size: 0x8, addend: 0x0, symName: __ZN4pyo35impl_4wrap19map_result_into_ptr17h011c025c1d3cd3c2E, symObjAddr: 0x0, symBinAddr: 0x58428, symSize: 0x38 }
  - { offset: 0x145C7D, size: 0x8, addend: 0x0, symName: __ZN4pyo35impl_4wrap19map_result_into_ptr17h04f8388f7a651da5E, symObjAddr: 0x38, symBinAddr: 0x58460, symSize: 0x4C }
  - { offset: 0x145CCC, size: 0x8, addend: 0x0, symName: __ZN4pyo35impl_4wrap19map_result_into_ptr17h06d52883c28cded4E, symObjAddr: 0x84, symBinAddr: 0x584AC, symSize: 0x38 }
  - { offset: 0x145D1B, size: 0x8, addend: 0x0, symName: __ZN4pyo35impl_4wrap19map_result_into_ptr17h2528e6e7fc25f7b3E, symObjAddr: 0xBC, symBinAddr: 0x584E4, symSize: 0x38 }
  - { offset: 0x145D6A, size: 0x8, addend: 0x0, symName: __ZN4pyo35impl_4wrap19map_result_into_ptr17h5125b2f546dcf641E, symObjAddr: 0xF4, symBinAddr: 0x5851C, symSize: 0x38 }
  - { offset: 0x145DB9, size: 0x8, addend: 0x0, symName: __ZN4pyo35impl_4wrap19map_result_into_ptr17h5226c921c6a38f80E, symObjAddr: 0x12C, symBinAddr: 0x58554, symSize: 0x4C }
  - { offset: 0x145E08, size: 0x8, addend: 0x0, symName: __ZN4pyo35impl_4wrap19map_result_into_ptr17hbef2ccb033c030d8E, symObjAddr: 0x178, symBinAddr: 0x585A0, symSize: 0x38 }
  - { offset: 0x145E57, size: 0x8, addend: 0x0, symName: __ZN4pyo35impl_4wrap19map_result_into_ptr17hd4195932c9fc97afE, symObjAddr: 0x1B0, symBinAddr: 0x585D8, symSize: 0x38 }
  - { offset: 0x145EA6, size: 0x8, addend: 0x0, symName: __ZN4pyo35impl_4wrap19map_result_into_ptr17heccf3ab3cbb9b7cdE, symObjAddr: 0x1E8, symBinAddr: 0x58610, symSize: 0x38 }
  - { offset: 0x145EFA, size: 0x8, addend: 0x0, symName: '__ZN4pyo35impl_4wrap19map_result_into_ptr28_$u7b$$u7b$closure$u7d$$u7d$17h16a4000bfabf5e63E', symObjAddr: 0x220, symBinAddr: 0x58648, symSize: 0x24 }
  - { offset: 0x145F48, size: 0x8, addend: 0x0, symName: '__ZN4pyo35impl_4wrap19map_result_into_ptr28_$u7b$$u7b$closure$u7d$$u7d$17h1dd54c9600387d49E', symObjAddr: 0x244, symBinAddr: 0x5866C, symSize: 0x34 }
  - { offset: 0x145F96, size: 0x8, addend: 0x0, symName: '__ZN4pyo35impl_4wrap19map_result_into_ptr28_$u7b$$u7b$closure$u7d$$u7d$17h2918ff95cdd59790E', symObjAddr: 0x278, symBinAddr: 0x586A0, symSize: 0x44 }
  - { offset: 0x145FE5, size: 0x8, addend: 0x0, symName: '__ZN4pyo35impl_4wrap19map_result_into_ptr28_$u7b$$u7b$closure$u7d$$u7d$17h439bb4cb8510e17fE', symObjAddr: 0x2BC, symBinAddr: 0x586E4, symSize: 0x38 }
  - { offset: 0x146034, size: 0x8, addend: 0x0, symName: '__ZN4pyo35impl_4wrap19map_result_into_ptr28_$u7b$$u7b$closure$u7d$$u7d$17h441ed997d53a5b81E', symObjAddr: 0x2F4, symBinAddr: 0x5871C, symSize: 0x44 }
  - { offset: 0x146083, size: 0x8, addend: 0x0, symName: '__ZN4pyo35impl_4wrap19map_result_into_ptr28_$u7b$$u7b$closure$u7d$$u7d$17h8eb0b72cf3ac6fccE', symObjAddr: 0x338, symBinAddr: 0x58760, symSize: 0x38 }
  - { offset: 0x1460D2, size: 0x8, addend: 0x0, symName: '__ZN4pyo35impl_4wrap19map_result_into_ptr28_$u7b$$u7b$closure$u7d$$u7d$17ha3744cfc3f486c41E', symObjAddr: 0x370, symBinAddr: 0x58798, symSize: 0x38 }
  - { offset: 0x146121, size: 0x8, addend: 0x0, symName: '__ZN4pyo35impl_4wrap19map_result_into_ptr28_$u7b$$u7b$closure$u7d$$u7d$17ha74ffada66022d17E', symObjAddr: 0x3A8, symBinAddr: 0x587D0, symSize: 0x38 }
  - { offset: 0x146170, size: 0x8, addend: 0x0, symName: '__ZN4pyo35impl_4wrap19map_result_into_ptr28_$u7b$$u7b$closure$u7d$$u7d$17hc055895e90b86cf0E', symObjAddr: 0x3E0, symBinAddr: 0x58808, symSize: 0x30 }
  - { offset: 0x14626F, size: 0x8, addend: 0x0, symName: '__ZN56_$LT$T$u20$as$u20$pyo3..impl_..wrap..OkWrap$LT$T$GT$$GT$4wrap17he6870c66fda8aeafE', symObjAddr: 0x410, symBinAddr: 0x58838, symSize: 0x10 }
  - { offset: 0x146E55, size: 0x8, addend: 0x0, symName: '__ZN4pyo311conversions3std3num115_$LT$impl$u20$pyo3..conversion..IntoPy$LT$pyo3..instance..Py$LT$pyo3..types..any..PyAny$GT$$GT$$u20$for$u20$u64$GT$7into_py17h975c707d7548d137E', symObjAddr: 0x0, symBinAddr: 0x58848, symSize: 0x2C }
  - { offset: 0x147F97, size: 0x8, addend: 0x0, symName: '__ZN4pyo311conversions3std3num115_$LT$impl$u20$pyo3..conversion..IntoPy$LT$pyo3..instance..Py$LT$pyo3..types..any..PyAny$GT$$GT$$u20$for$u20$u64$GT$7into_py17h975c707d7548d137E', symObjAddr: 0x0, symBinAddr: 0x58848, symSize: 0x2C }
  - { offset: 0x147FE2, size: 0x8, addend: 0x0, symName: '__ZN4pyo311conversions3std3num64_$LT$impl$u20$pyo3..conversion..ToPyObject$u20$for$u20$usize$GT$9to_object17hfa6f284537e394f8E', symObjAddr: 0x2C, symBinAddr: 0x58874, symSize: 0x28 }
  - { offset: 0x1485CE, size: 0x8, addend: 0x0, symName: '__ZN116_$LT$rand..distributions..uniform..UniformInt$LT$u32$GT$$u20$as$u20$rand..distributions..uniform..UniformSampler$GT$13sample_single17ha0e135b87e2287b7E', symObjAddr: 0x0, symBinAddr: 0x5889C, symSize: 0xF0 }
  - { offset: 0x148643, size: 0x8, addend: 0x0, symName: '__ZN116_$LT$rand..distributions..uniform..UniformInt$LT$u32$GT$$u20$as$u20$rand..distributions..uniform..UniformSampler$GT$13sample_single17ha0e135b87e2287b7E', symObjAddr: 0x0, symBinAddr: 0x5889C, symSize: 0xF0 }
  - { offset: 0x148722, size: 0x8, addend: 0x0, symName: '__ZN116_$LT$rand..distributions..uniform..UniformInt$LT$u32$GT$$u20$as$u20$rand..distributions..uniform..UniformSampler$GT$23sample_single_inclusive17hd47129a099b97a89E', symObjAddr: 0xF0, symBinAddr: 0x5898C, symSize: 0x284 }
  - { offset: 0x14897D, size: 0x8, addend: 0x0, symName: '__ZN118_$LT$rand..distributions..uniform..UniformInt$LT$usize$GT$$u20$as$u20$rand..distributions..uniform..UniformSampler$GT$13sample_single17h19a3a8a4700372deE', symObjAddr: 0x374, symBinAddr: 0x58C10, symSize: 0xF0 }
  - { offset: 0x148A5C, size: 0x8, addend: 0x0, symName: '__ZN118_$LT$rand..distributions..uniform..UniformInt$LT$usize$GT$$u20$as$u20$rand..distributions..uniform..UniformSampler$GT$23sample_single_inclusive17hd14438319f625dadE', symObjAddr: 0x464, symBinAddr: 0x58D00, symSize: 0x28C }
  - { offset: 0x149061, size: 0x8, addend: 0x0, symName: '__ZN4core3num7nonzero16NonZero$LT$T$GT$13new_unchecked18precondition_check17h4cc4eab194cec3abE', symObjAddr: 0x0, symBinAddr: 0x58F8C, symSize: 0x3C }
  - { offset: 0x149087, size: 0x8, addend: 0x0, symName: '__ZN4core3num7nonzero16NonZero$LT$T$GT$13new_unchecked18precondition_check17h4cc4eab194cec3abE', symObjAddr: 0x0, symBinAddr: 0x58F8C, symSize: 0x3C }
  - { offset: 0x149116, size: 0x8, addend: 0x0, symName: '__ZN10serde_core3ser5impls78_$LT$impl$u20$serde_core..ser..Serialize$u20$for$u20$alloc..string..String$GT$9serialize17h90a0a646ce83873aE', symObjAddr: 0x0, symBinAddr: 0x58FC8, symSize: 0x84 }
  - { offset: 0x149B79, size: 0x8, addend: 0x0, symName: '__ZN44_$LT$$RF$T$u20$as$u20$core..fmt..Display$GT$3fmt17hc0d1ad3f7613150bE', symObjAddr: 0x84, symBinAddr: 0x5904C, symSize: 0x30 }
  - { offset: 0x149C26, size: 0x8, addend: 0x0, symName: '__ZN4core3cmp5impls69_$LT$impl$u20$core..cmp..PartialEq$LT$$RF$B$GT$$u20$for$u20$$RF$A$GT$2eq17h66aee4bdfa46cd65E', symObjAddr: 0x100, symBinAddr: 0x590C8, symSize: 0x3C }
  - { offset: 0x149CB8, size: 0x8, addend: 0x0, symName: __ZN4core3cmp9PartialEq2ne17h0061ccde4c05dbe7E, symObjAddr: 0x13C, symBinAddr: 0x59104, symSize: 0x30 }
  - { offset: 0x149D18, size: 0x8, addend: 0x0, symName: '__ZN4core4hash5impls52_$LT$impl$u20$core..hash..Hash$u20$for$u20$$RF$T$GT$4hash17he293bdcd5f936d43E', symObjAddr: 0x16C, symBinAddr: 0x59134, symSize: 0x30 }
  - { offset: 0x149E9A, size: 0x8, addend: 0x0, symName: '__ZN4core5slice29_$LT$impl$u20$$u5b$T$u5d$$GT$12split_at_mut17h08de12fa201a02f5E', symObjAddr: 0x19C, symBinAddr: 0x59164, symSize: 0xAC }
  - { offset: 0x149F31, size: 0x8, addend: 0x0, symName: '__ZN4core5slice29_$LT$impl$u20$$u5b$T$u5d$$GT$12split_at_mut17h14f9cf54d7262afeE', symObjAddr: 0x248, symBinAddr: 0x59210, symSize: 0xAC }
  - { offset: 0x149FBC, size: 0x8, addend: 0x0, symName: '__ZN4core5slice29_$LT$impl$u20$$u5b$T$u5d$$GT$22split_at_mut_unchecked17h33600294a9f1ffcdE', symObjAddr: 0x2F4, symBinAddr: 0x592BC, symSize: 0x104 }
  - { offset: 0x14A137, size: 0x8, addend: 0x0, symName: '__ZN4core5slice29_$LT$impl$u20$$u5b$T$u5d$$GT$22split_at_mut_unchecked17he2057c1a625a3b22E', symObjAddr: 0x3F8, symBinAddr: 0x593C0, symSize: 0xFC }
  - { offset: 0x14A28B, size: 0x8, addend: 0x0, symName: '__ZN4core5slice29_$LT$impl$u20$$u5b$T$u5d$$GT$4iter17h774a309aafcec3c3E', symObjAddr: 0x4F4, symBinAddr: 0x594BC, symSize: 0x28 }
  - { offset: 0x14A2C2, size: 0x8, addend: 0x0, symName: '__ZN4core5slice29_$LT$impl$u20$$u5b$T$u5d$$GT$4last17hef71436a0760e8d9E', symObjAddr: 0x51C, symBinAddr: 0x594E4, symSize: 0x58 }
  - { offset: 0x14A35D, size: 0x8, addend: 0x0, symName: '__ZN4core5slice29_$LT$impl$u20$$u5b$T$u5d$$GT$7reverse17h6e3565ef274af3acE', symObjAddr: 0x574, symBinAddr: 0x5953C, symSize: 0x118 }
  - { offset: 0x14A53B, size: 0x8, addend: 0x0, symName: '__ZN4core5slice29_$LT$impl$u20$$u5b$T$u5d$$GT$7reverse17hf5b81be9ae1dd98fE', symObjAddr: 0x68C, symBinAddr: 0x59654, symSize: 0x114 }
  - { offset: 0x14A82D, size: 0x8, addend: 0x0, symName: '__ZN68_$LT$T$u20$as$u20$core..slice..sort..stable..quicksort..IsFreeze$GT$9is_freeze17h1e83850ce642a3b6E', symObjAddr: 0xA08, symBinAddr: 0x599D0, symSize: 0xC }
  - { offset: 0x14A854, size: 0x8, addend: 0x0, symName: '__ZN68_$LT$T$u20$as$u20$core..slice..sort..stable..quicksort..IsFreeze$GT$9is_freeze17h327750baf87c65cbE', symObjAddr: 0xA14, symBinAddr: 0x599DC, symSize: 0xC }
  - { offset: 0x14BE0A, size: 0x8, addend: 0x0, symName: '__ZN10serde_core3ser5impls78_$LT$impl$u20$serde_core..ser..Serialize$u20$for$u20$alloc..string..String$GT$9serialize17h90a0a646ce83873aE', symObjAddr: 0x0, symBinAddr: 0x58FC8, symSize: 0x84 }
  - { offset: 0x14BE60, size: 0x8, addend: 0x0, symName: '__ZN45_$LT$T$u20$as$u20$alloc..string..ToString$GT$9to_string17h3f0af746e5fa9ac0E', symObjAddr: 0xB4, symBinAddr: 0x5907C, symSize: 0x28 }
  - { offset: 0x14BE97, size: 0x8, addend: 0x0, symName: '__ZN45_$LT$T$u20$as$u20$alloc..string..ToString$GT$9to_string17h8dd6789913a7a137E', symObjAddr: 0xDC, symBinAddr: 0x590A4, symSize: 0x24 }
  - { offset: 0x14BF23, size: 0x8, addend: 0x0, symName: '__ZN58_$LT$alloc..string..String$u20$as$u20$core..hash..Hash$GT$4hash17h841b8d1b7859ecafE', symObjAddr: 0x87C, symBinAddr: 0x59844, symSize: 0x88 }
  - { offset: 0x14C479, size: 0x8, addend: 0x0, symName: '__ZN5alloc5slice29_$LT$impl$u20$$u5b$T$u5d$$GT$7sort_by17h44f2a5e4fc2f5418E', symObjAddr: 0x904, symBinAddr: 0x598CC, symSize: 0x48 }
  - { offset: 0x14C4C1, size: 0x8, addend: 0x0, symName: '__ZN5alloc5slice29_$LT$impl$u20$$u5b$T$u5d$$GT$7sort_by17ha95e312d4ea8b01cE', symObjAddr: 0x94C, symBinAddr: 0x59914, symSize: 0x48 }
  - { offset: 0x14C509, size: 0x8, addend: 0x0, symName: '__ZN5alloc5slice29_$LT$impl$u20$$u5b$T$u5d$$GT$8into_vec17h48b75aaed7a373b3E', symObjAddr: 0x994, symBinAddr: 0x5995C, symSize: 0x4C }
  - { offset: 0x14C5BD, size: 0x8, addend: 0x0, symName: '__ZN87_$LT$T$u20$as$u20$alloc..slice..$LT$impl$u20$$u5b$T$u5d$$GT$..to_vec_in..ConvertVec$GT$6to_vec17hc2de85406f5146e1E', symObjAddr: 0xA48, symBinAddr: 0x59A10, symSize: 0x37C }
  - { offset: 0x14CCD5, size: 0x8, addend: 0x0, symName: '__ZN52_$LT$Q$u20$as$u20$hashbrown..Equivalent$LT$K$GT$$GT$10equivalent17h153cd06cd0229c03E', symObjAddr: 0x7A0, symBinAddr: 0x59768, symSize: 0x40 }
  - { offset: 0x14CD46, size: 0x8, addend: 0x0, symName: '__ZN54_$LT$$RF$T$u20$as$u20$pyo3..conversion..ToPyObject$GT$9to_object17h075e433a41bd19f3E', symObjAddr: 0x7E0, symBinAddr: 0x597A8, symSize: 0x28 }
  - { offset: 0x14CD98, size: 0x8, addend: 0x0, symName: '__ZN54_$LT$$RF$T$u20$as$u20$pyo3..conversion..ToPyObject$GT$9to_object17h0fa0fa734f859252E', symObjAddr: 0x808, symBinAddr: 0x597D0, symSize: 0x28 }
  - { offset: 0x14CDF0, size: 0x8, addend: 0x0, symName: '__ZN57_$LT$T$u20$as$u20$pyo3..conversion..FromPyObjectBound$GT$20from_py_object_bound17hb02a80710011ba43E', symObjAddr: 0x848, symBinAddr: 0x59810, symSize: 0x34 }
  - { offset: 0x14CE38, size: 0x8, addend: 0x0, symName: '__ZN56_$LT$T$u20$as$u20$pyo3..impl_..wrap..OkWrap$LT$T$GT$$GT$4wrap17h34a9310263164054E', symObjAddr: 0x830, symBinAddr: 0x597F8, symSize: 0x18 }
  - { offset: 0x14CE79, size: 0x8, addend: 0x0, symName: '__ZN71_$LT$T$u20$as$u20$pyo3..impl_..extract_argument..PyFunctionArgument$GT$7extract17hdc53f98ad8c09b60E', symObjAddr: 0xA20, symBinAddr: 0x599E8, symSize: 0x28 }
  - { offset: 0x14CEE5, size: 0x8, addend: 0x0, symName: '__ZN63_$LT$$LP$K$C$V$RP$$u20$as$u20$pyo3..types..dict..PyDictItem$GT$3key17ha0af867890c6499dE', symObjAddr: 0x9E0, symBinAddr: 0x599A8, symSize: 0x14 }
  - { offset: 0x14CF25, size: 0x8, addend: 0x0, symName: '__ZN63_$LT$$LP$K$C$V$RP$$u20$as$u20$pyo3..types..dict..PyDictItem$GT$5value17he52a8f54b1d0c4a7E', symObjAddr: 0x9F4, symBinAddr: 0x599BC, symSize: 0x14 }
  - { offset: 0x14E007, size: 0x8, addend: 0x0, symName: __ZN4core3cmp3Ord3max17h416e1e7b03c66c96E, symObjAddr: 0x0, symBinAddr: 0x59D8C, symSize: 0x74 }
  - { offset: 0x14E111, size: 0x8, addend: 0x0, symName: __ZN4core3cmp3Ord3max17h416e1e7b03c66c96E, symObjAddr: 0x0, symBinAddr: 0x59D8C, symSize: 0x74 }
  - { offset: 0x14E17D, size: 0x8, addend: 0x0, symName: __ZN4core3cmp3Ord3min17h9ad6ac56de18cef7E, symObjAddr: 0x74, symBinAddr: 0x59E00, symSize: 0x74 }
  - { offset: 0x14E1E9, size: 0x8, addend: 0x0, symName: __ZN4core3cmp3Ord3min17hff0705c928d6a4a4E, symObjAddr: 0xE8, symBinAddr: 0x59E74, symSize: 0x74 }
  - { offset: 0x14E255, size: 0x8, addend: 0x0, symName: __ZN4core3cmp3Ord5clamp17h41a7fbcd2fc3e160E, symObjAddr: 0x15C, symBinAddr: 0x59EE8, symSize: 0x17C }
  - { offset: 0x14E31D, size: 0x8, addend: 0x0, symName: __ZN4core3cmp6min_by17h7efba8eecbc59afbE, symObjAddr: 0x2D8, symBinAddr: 0x5A064, symSize: 0xD0 }
  - { offset: 0x14E538, size: 0x8, addend: 0x0, symName: '__ZN103_$LT$alloc..vec..into_iter..IntoIter$LT$T$C$A$GT$$u20$as$u20$core..iter..traits..iterator..Iterator$GT$24__iterator_get_unchecked17haf2d3043b2290d13E', symObjAddr: 0x0, symBinAddr: 0x5A134, symSize: 0x20 }
  - { offset: 0x157D9F, size: 0x8, addend: 0x0, symName: __ZN4core4iter6traits10exact_size17ExactSizeIterator3len17h23cf52688a6bb69aE, symObjAddr: 0x3960, symBinAddr: 0x5DA94, symSize: 0xB8 }
  - { offset: 0x157E6B, size: 0x8, addend: 0x0, symName: __ZN4core4iter6traits10exact_size17ExactSizeIterator3len17h47c2a31a0a659a17E, symObjAddr: 0x3A18, symBinAddr: 0x5DB4C, symSize: 0xB8 }
  - { offset: 0x157F37, size: 0x8, addend: 0x0, symName: __ZN4core4iter6traits10exact_size17ExactSizeIterator3len17h5360f8449ced47eeE, symObjAddr: 0x3AD0, symBinAddr: 0x5DC04, symSize: 0xB8 }
  - { offset: 0x158003, size: 0x8, addend: 0x0, symName: __ZN4core4iter6traits10exact_size17ExactSizeIterator3len17h5b8578250c8a3b65E, symObjAddr: 0x3B88, symBinAddr: 0x5DCBC, symSize: 0xB8 }
  - { offset: 0x1580CF, size: 0x8, addend: 0x0, symName: __ZN4core4iter6traits10exact_size17ExactSizeIterator3len17h65424f26e734672dE, symObjAddr: 0x3C40, symBinAddr: 0x5DD74, symSize: 0xB8 }
  - { offset: 0x15819B, size: 0x8, addend: 0x0, symName: __ZN4core4iter6traits10exact_size17ExactSizeIterator3len17h7aacaa131169b137E, symObjAddr: 0x3CF8, symBinAddr: 0x5DE2C, symSize: 0xB8 }
  - { offset: 0x158267, size: 0x8, addend: 0x0, symName: __ZN4core4iter6traits10exact_size17ExactSizeIterator3len17h8226c27d883a1232E, symObjAddr: 0x3DB0, symBinAddr: 0x5DEE4, symSize: 0xB8 }
  - { offset: 0x158333, size: 0x8, addend: 0x0, symName: __ZN4core4iter6traits10exact_size17ExactSizeIterator3len17hab354847db9107d3E, symObjAddr: 0x3E68, symBinAddr: 0x5DF9C, symSize: 0xB8 }
  - { offset: 0x1583FF, size: 0x8, addend: 0x0, symName: __ZN4core4iter6traits10exact_size17ExactSizeIterator3len17hec850bcdf5876cf6E, symObjAddr: 0x3F20, symBinAddr: 0x5E054, symSize: 0xB8 }
  - { offset: 0x1593CB, size: 0x8, addend: 0x0, symName: __ZN4core4iter6traits8iterator8Iterator3any17h33b8b0b35393d0acE, symObjAddr: 0x3FD8, symBinAddr: 0x5E10C, symSize: 0x54 }
  - { offset: 0x15943A, size: 0x8, addend: 0x0, symName: __ZN4core4iter6traits8iterator8Iterator3map17h009baa925af2c52bE, symObjAddr: 0x402C, symBinAddr: 0x5E160, symSize: 0x1C }
  - { offset: 0x1594A7, size: 0x8, addend: 0x0, symName: __ZN4core4iter6traits8iterator8Iterator3map17h00e1206ead56692cE, symObjAddr: 0x4048, symBinAddr: 0x5E17C, symSize: 0x1C }
  - { offset: 0x159514, size: 0x8, addend: 0x0, symName: __ZN4core4iter6traits8iterator8Iterator3map17h066ef26619aa79d2E, symObjAddr: 0x4064, symBinAddr: 0x5E198, symSize: 0x1C }
  - { offset: 0x159581, size: 0x8, addend: 0x0, symName: __ZN4core4iter6traits8iterator8Iterator3map17h0e7c0478338d5cc4E, symObjAddr: 0x4080, symBinAddr: 0x5E1B4, symSize: 0x28 }
  - { offset: 0x1595EE, size: 0x8, addend: 0x0, symName: __ZN4core4iter6traits8iterator8Iterator3map17h408ec02e07b8aea2E, symObjAddr: 0x40A8, symBinAddr: 0x5E1DC, symSize: 0x28 }
  - { offset: 0x15965B, size: 0x8, addend: 0x0, symName: __ZN4core4iter6traits8iterator8Iterator3map17h43517d781ceac3b0E, symObjAddr: 0x40D0, symBinAddr: 0x5E204, symSize: 0x1C }
  - { offset: 0x1596C8, size: 0x8, addend: 0x0, symName: __ZN4core4iter6traits8iterator8Iterator3map17h43f5da03717e2dfeE, symObjAddr: 0x40EC, symBinAddr: 0x5E220, symSize: 0x28 }
  - { offset: 0x159735, size: 0x8, addend: 0x0, symName: __ZN4core4iter6traits8iterator8Iterator3map17h4a328c1779799902E, symObjAddr: 0x4114, symBinAddr: 0x5E248, symSize: 0x28 }
  - { offset: 0x1597A2, size: 0x8, addend: 0x0, symName: __ZN4core4iter6traits8iterator8Iterator3map17h60d2bedee3996000E, symObjAddr: 0x413C, symBinAddr: 0x5E270, symSize: 0x1C }
  - { offset: 0x15980F, size: 0x8, addend: 0x0, symName: __ZN4core4iter6traits8iterator8Iterator3map17h7592b03cd6e6b78aE, symObjAddr: 0x4158, symBinAddr: 0x5E28C, symSize: 0x1C }
  - { offset: 0x15987C, size: 0x8, addend: 0x0, symName: __ZN4core4iter6traits8iterator8Iterator3map17h84802c9c30a98228E, symObjAddr: 0x4174, symBinAddr: 0x5E2A8, symSize: 0x28 }
  - { offset: 0x1598E9, size: 0x8, addend: 0x0, symName: __ZN4core4iter6traits8iterator8Iterator3map17h860869ab189e92c8E, symObjAddr: 0x419C, symBinAddr: 0x5E2D0, symSize: 0x1C }
  - { offset: 0x159956, size: 0x8, addend: 0x0, symName: __ZN4core4iter6traits8iterator8Iterator3map17h89abfbd1dd1ccc06E, symObjAddr: 0x41B8, symBinAddr: 0x5E2EC, symSize: 0x28 }
  - { offset: 0x1599C3, size: 0x8, addend: 0x0, symName: __ZN4core4iter6traits8iterator8Iterator3map17h8abf3918607050f2E, symObjAddr: 0x41E0, symBinAddr: 0x5E314, symSize: 0x1C }
  - { offset: 0x159A30, size: 0x8, addend: 0x0, symName: __ZN4core4iter6traits8iterator8Iterator3map17h8c1140737a5b9b08E, symObjAddr: 0x41FC, symBinAddr: 0x5E330, symSize: 0x28 }
  - { offset: 0x159A9D, size: 0x8, addend: 0x0, symName: __ZN4core4iter6traits8iterator8Iterator3map17h8c5749f131420292E, symObjAddr: 0x4224, symBinAddr: 0x5E358, symSize: 0x1C }
  - { offset: 0x159B0A, size: 0x8, addend: 0x0, symName: __ZN4core4iter6traits8iterator8Iterator3map17h9f2492cd83684583E, symObjAddr: 0x4240, symBinAddr: 0x5E374, symSize: 0x28 }
  - { offset: 0x159B77, size: 0x8, addend: 0x0, symName: __ZN4core4iter6traits8iterator8Iterator3map17h9fa7038afa4964dfE, symObjAddr: 0x4268, symBinAddr: 0x5E39C, symSize: 0x28 }
  - { offset: 0x159BE4, size: 0x8, addend: 0x0, symName: __ZN4core4iter6traits8iterator8Iterator3map17hdd50f9221c5f07ebE, symObjAddr: 0x4290, symBinAddr: 0x5E3C4, symSize: 0x1C }
  - { offset: 0x159C51, size: 0x8, addend: 0x0, symName: __ZN4core4iter6traits8iterator8Iterator3map17he4ffad00289d44a4E, symObjAddr: 0x42AC, symBinAddr: 0x5E3E0, symSize: 0x28 }
  - { offset: 0x159CBE, size: 0x8, addend: 0x0, symName: __ZN4core4iter6traits8iterator8Iterator3map17hed96a489c6b1dd14E, symObjAddr: 0x42D4, symBinAddr: 0x5E408, symSize: 0x1C }
  - { offset: 0x159D2B, size: 0x8, addend: 0x0, symName: __ZN4core4iter6traits8iterator8Iterator3map17hf3718bf91e213876E, symObjAddr: 0x42F0, symBinAddr: 0x5E424, symSize: 0x28 }
  - { offset: 0x159D98, size: 0x8, addend: 0x0, symName: __ZN4core4iter6traits8iterator8Iterator3map17hf56b269aecb0c998E, symObjAddr: 0x4318, symBinAddr: 0x5E44C, symSize: 0x1C }
  - { offset: 0x159E05, size: 0x8, addend: 0x0, symName: __ZN4core4iter6traits8iterator8Iterator3map17hf9d65cee32d6600eE, symObjAddr: 0x4334, symBinAddr: 0x5E468, symSize: 0x28 }
  - { offset: 0x159E72, size: 0x8, addend: 0x0, symName: __ZN4core4iter6traits8iterator8Iterator3map17hfa2fcee7c4c3fb1fE, symObjAddr: 0x435C, symBinAddr: 0x5E490, symSize: 0x1C }
  - { offset: 0x159EDF, size: 0x8, addend: 0x0, symName: __ZN4core4iter6traits8iterator8Iterator8peekable17ha427b208cf0e7210E, symObjAddr: 0x4378, symBinAddr: 0x5E4AC, symSize: 0x34 }
  - { offset: 0x159F2B, size: 0x8, addend: 0x0, symName: __ZN4core4iter6traits8iterator8Iterator8peekable17ha43a8e2cfc322c63E, symObjAddr: 0x43AC, symBinAddr: 0x5E4E0, symSize: 0x4C }
  - { offset: 0x15ACC1, size: 0x8, addend: 0x0, symName: '__ZN72_$LT$I$u20$as$u20$core..iter..adapters..zip..SpecTrustedRandomAccess$GT$17try_get_unchecked17h02de83c39404dfb3E', symObjAddr: 0x5F44, symBinAddr: 0x60078, symSize: 0x28 }
  - { offset: 0x15B394, size: 0x8, addend: 0x0, symName: '__ZN103_$LT$alloc..vec..into_iter..IntoIter$LT$T$C$A$GT$$u20$as$u20$core..iter..traits..iterator..Iterator$GT$24__iterator_get_unchecked17haf2d3043b2290d13E', symObjAddr: 0x0, symBinAddr: 0x5A134, symSize: 0x20 }
  - { offset: 0x15B40E, size: 0x8, addend: 0x0, symName: '__ZN103_$LT$alloc..vec..into_iter..IntoIter$LT$T$C$A$GT$$u20$as$u20$core..iter..traits..iterator..Iterator$GT$4fold17h5b5a2b44955fffdbE', symObjAddr: 0x20, symBinAddr: 0x5A154, symSize: 0x10C }
  - { offset: 0x15B5BD, size: 0x8, addend: 0x0, symName: '__ZN103_$LT$alloc..vec..into_iter..IntoIter$LT$T$C$A$GT$$u20$as$u20$core..iter..traits..iterator..Iterator$GT$4fold17h9187408431cb5a38E', symObjAddr: 0x12C, symBinAddr: 0x5A260, symSize: 0x134 }
  - { offset: 0x15B770, size: 0x8, addend: 0x0, symName: '__ZN103_$LT$alloc..vec..into_iter..IntoIter$LT$T$C$A$GT$$u20$as$u20$core..iter..traits..iterator..Iterator$GT$4fold17hb7c94ab9114b9c6eE', symObjAddr: 0x260, symBinAddr: 0x5A394, symSize: 0x150 }
  - { offset: 0x15B923, size: 0x8, addend: 0x0, symName: '__ZN103_$LT$alloc..vec..into_iter..IntoIter$LT$T$C$A$GT$$u20$as$u20$core..iter..traits..iterator..Iterator$GT$4next17h1f0151f94a11b758E', symObjAddr: 0x3B0, symBinAddr: 0x5A4E4, symSize: 0x88 }
  - { offset: 0x15BA7D, size: 0x8, addend: 0x0, symName: '__ZN103_$LT$alloc..vec..into_iter..IntoIter$LT$T$C$A$GT$$u20$as$u20$core..iter..traits..iterator..Iterator$GT$4next17h321be2c7f4893608E', symObjAddr: 0x438, symBinAddr: 0x5A56C, symSize: 0xC4 }
  - { offset: 0x15BBD5, size: 0x8, addend: 0x0, symName: '__ZN103_$LT$alloc..vec..into_iter..IntoIter$LT$T$C$A$GT$$u20$as$u20$core..iter..traits..iterator..Iterator$GT$4next17h3c2762e3b67b83aaE', symObjAddr: 0x4FC, symBinAddr: 0x5A630, symSize: 0xB0 }
  - { offset: 0x15BD33, size: 0x8, addend: 0x0, symName: '__ZN103_$LT$alloc..vec..into_iter..IntoIter$LT$T$C$A$GT$$u20$as$u20$core..iter..traits..iterator..Iterator$GT$4next17h4f2b78f3945516d5E', symObjAddr: 0x5AC, symBinAddr: 0x5A6E0, symSize: 0x94 }
  - { offset: 0x15BE8D, size: 0x8, addend: 0x0, symName: '__ZN103_$LT$alloc..vec..into_iter..IntoIter$LT$T$C$A$GT$$u20$as$u20$core..iter..traits..iterator..Iterator$GT$4next17h5c76a38e0b98de1cE', symObjAddr: 0x640, symBinAddr: 0x5A774, symSize: 0xBC }
  - { offset: 0x15BFE5, size: 0x8, addend: 0x0, symName: '__ZN103_$LT$alloc..vec..into_iter..IntoIter$LT$T$C$A$GT$$u20$as$u20$core..iter..traits..iterator..Iterator$GT$4next17h6ae17190d8e262fbE', symObjAddr: 0x6FC, symBinAddr: 0x5A830, symSize: 0x94 }
  - { offset: 0x15C13F, size: 0x8, addend: 0x0, symName: '__ZN103_$LT$alloc..vec..into_iter..IntoIter$LT$T$C$A$GT$$u20$as$u20$core..iter..traits..iterator..Iterator$GT$4next17h6d044a56a6c6db08E', symObjAddr: 0x790, symBinAddr: 0x5A8C4, symSize: 0xAC }
  - { offset: 0x15C29D, size: 0x8, addend: 0x0, symName: '__ZN103_$LT$alloc..vec..into_iter..IntoIter$LT$T$C$A$GT$$u20$as$u20$core..iter..traits..iterator..Iterator$GT$4next17h71d36bc6696c35f9E', symObjAddr: 0x83C, symBinAddr: 0x5A970, symSize: 0x8C }
  - { offset: 0x15C3F7, size: 0x8, addend: 0x0, symName: '__ZN103_$LT$alloc..vec..into_iter..IntoIter$LT$T$C$A$GT$$u20$as$u20$core..iter..traits..iterator..Iterator$GT$4next17h7cf10b95f5c4a0edE', symObjAddr: 0x8C8, symBinAddr: 0x5A9FC, symSize: 0xC4 }
  - { offset: 0x15C54F, size: 0x8, addend: 0x0, symName: '__ZN103_$LT$alloc..vec..into_iter..IntoIter$LT$T$C$A$GT$$u20$as$u20$core..iter..traits..iterator..Iterator$GT$4next17h8ba4a66c528ebfa4E', symObjAddr: 0x98C, symBinAddr: 0x5AAC0, symSize: 0xBC }
  - { offset: 0x15C6A7, size: 0x8, addend: 0x0, symName: '__ZN103_$LT$alloc..vec..into_iter..IntoIter$LT$T$C$A$GT$$u20$as$u20$core..iter..traits..iterator..Iterator$GT$4next17ha673ed1dd7262b35E', symObjAddr: 0xA48, symBinAddr: 0x5AB7C, symSize: 0xBC }
  - { offset: 0x15C7FF, size: 0x8, addend: 0x0, symName: '__ZN103_$LT$alloc..vec..into_iter..IntoIter$LT$T$C$A$GT$$u20$as$u20$core..iter..traits..iterator..Iterator$GT$4next17hb83451d54b92b6d3E', symObjAddr: 0xB04, symBinAddr: 0x5AC38, symSize: 0xBC }
  - { offset: 0x15C957, size: 0x8, addend: 0x0, symName: '__ZN103_$LT$alloc..vec..into_iter..IntoIter$LT$T$C$A$GT$$u20$as$u20$core..iter..traits..iterator..Iterator$GT$4next17hb881924e1cc3edf4E', symObjAddr: 0xBC0, symBinAddr: 0x5ACF4, symSize: 0x9C }
  - { offset: 0x15CAB3, size: 0x8, addend: 0x0, symName: '__ZN103_$LT$alloc..vec..into_iter..IntoIter$LT$T$C$A$GT$$u20$as$u20$core..iter..traits..iterator..Iterator$GT$4next17he5cfda72f02a346dE', symObjAddr: 0xC5C, symBinAddr: 0x5AD90, symSize: 0x94 }
  - { offset: 0x15CC0D, size: 0x8, addend: 0x0, symName: '__ZN103_$LT$alloc..vec..into_iter..IntoIter$LT$T$C$A$GT$$u20$as$u20$core..iter..traits..iterator..Iterator$GT$4next17he6dcc3c9cc8ce884E', symObjAddr: 0xCF0, symBinAddr: 0x5AE24, symSize: 0xAC }
  - { offset: 0x15CD6B, size: 0x8, addend: 0x0, symName: '__ZN103_$LT$alloc..vec..into_iter..IntoIter$LT$T$C$A$GT$$u20$as$u20$core..iter..traits..iterator..Iterator$GT$4next17heddbbf89b18ddcb1E', symObjAddr: 0xD9C, symBinAddr: 0x5AED0, symSize: 0xAC }
  - { offset: 0x15CEC9, size: 0x8, addend: 0x0, symName: '__ZN103_$LT$alloc..vec..into_iter..IntoIter$LT$T$C$A$GT$$u20$as$u20$core..iter..traits..iterator..Iterator$GT$8try_fold17h0c9ae26099d8fba7E', symObjAddr: 0xE48, symBinAddr: 0x5AF7C, symSize: 0x174 }
  - { offset: 0x15D0A0, size: 0x8, addend: 0x0, symName: '__ZN103_$LT$alloc..vec..into_iter..IntoIter$LT$T$C$A$GT$$u20$as$u20$core..iter..traits..iterator..Iterator$GT$8try_fold17h14558bf1674ebd81E', symObjAddr: 0xFBC, symBinAddr: 0x5B0F0, symSize: 0x1B4 }
  - { offset: 0x15D27B, size: 0x8, addend: 0x0, symName: '__ZN103_$LT$alloc..vec..into_iter..IntoIter$LT$T$C$A$GT$$u20$as$u20$core..iter..traits..iterator..Iterator$GT$8try_fold17h1b16f3993d168af1E', symObjAddr: 0x1170, symBinAddr: 0x5B2A4, symSize: 0x1D8 }
  - { offset: 0x15D440, size: 0x8, addend: 0x0, symName: '__ZN103_$LT$alloc..vec..into_iter..IntoIter$LT$T$C$A$GT$$u20$as$u20$core..iter..traits..iterator..Iterator$GT$8try_fold17h41b7b4730d7cb94dE', symObjAddr: 0x1348, symBinAddr: 0x5B47C, symSize: 0x1D8 }
  - { offset: 0x15D605, size: 0x8, addend: 0x0, symName: '__ZN103_$LT$alloc..vec..into_iter..IntoIter$LT$T$C$A$GT$$u20$as$u20$core..iter..traits..iterator..Iterator$GT$8try_fold17h4363681becf393faE', symObjAddr: 0x1520, symBinAddr: 0x5B654, symSize: 0x1A8 }
  - { offset: 0x15D7DD, size: 0x8, addend: 0x0, symName: '__ZN103_$LT$alloc..vec..into_iter..IntoIter$LT$T$C$A$GT$$u20$as$u20$core..iter..traits..iterator..Iterator$GT$8try_fold17h4e5dbd48a1d429e6E', symObjAddr: 0x16C8, symBinAddr: 0x5B7FC, symSize: 0x1B8 }
  - { offset: 0x15D9A2, size: 0x8, addend: 0x0, symName: '__ZN103_$LT$alloc..vec..into_iter..IntoIter$LT$T$C$A$GT$$u20$as$u20$core..iter..traits..iterator..Iterator$GT$8try_fold17h4e8a0bb835ef7146E', symObjAddr: 0x1880, symBinAddr: 0x5B9B4, symSize: 0x1B4 }
  - { offset: 0x15DB7D, size: 0x8, addend: 0x0, symName: '__ZN103_$LT$alloc..vec..into_iter..IntoIter$LT$T$C$A$GT$$u20$as$u20$core..iter..traits..iterator..Iterator$GT$8try_fold17h53500d50a52f0281E', symObjAddr: 0x1A34, symBinAddr: 0x5BB68, symSize: 0x194 }
  - { offset: 0x15DD55, size: 0x8, addend: 0x0, symName: '__ZN103_$LT$alloc..vec..into_iter..IntoIter$LT$T$C$A$GT$$u20$as$u20$core..iter..traits..iterator..Iterator$GT$8try_fold17h57cb3416f4d08a9fE', symObjAddr: 0x1BC8, symBinAddr: 0x5BCFC, symSize: 0x1B4 }
  - { offset: 0x15DF30, size: 0x8, addend: 0x0, symName: '__ZN103_$LT$alloc..vec..into_iter..IntoIter$LT$T$C$A$GT$$u20$as$u20$core..iter..traits..iterator..Iterator$GT$8try_fold17h581ee24701a99dbcE', symObjAddr: 0x1D7C, symBinAddr: 0x5BEB0, symSize: 0x1C8 }
  - { offset: 0x15E0F5, size: 0x8, addend: 0x0, symName: '__ZN103_$LT$alloc..vec..into_iter..IntoIter$LT$T$C$A$GT$$u20$as$u20$core..iter..traits..iterator..Iterator$GT$8try_fold17h59c8e6deb2f12629E', symObjAddr: 0x1F44, symBinAddr: 0x5C078, symSize: 0x1B8 }
  - { offset: 0x15E2BA, size: 0x8, addend: 0x0, symName: '__ZN103_$LT$alloc..vec..into_iter..IntoIter$LT$T$C$A$GT$$u20$as$u20$core..iter..traits..iterator..Iterator$GT$8try_fold17h669f5de2a4ae174eE', symObjAddr: 0x20FC, symBinAddr: 0x5C230, symSize: 0x1D8 }
  - { offset: 0x15E47F, size: 0x8, addend: 0x0, symName: '__ZN103_$LT$alloc..vec..into_iter..IntoIter$LT$T$C$A$GT$$u20$as$u20$core..iter..traits..iterator..Iterator$GT$8try_fold17h7ca690dd8bdbb95aE', symObjAddr: 0x22D4, symBinAddr: 0x5C408, symSize: 0x1D8 }
  - { offset: 0x15E644, size: 0x8, addend: 0x0, symName: '__ZN103_$LT$alloc..vec..into_iter..IntoIter$LT$T$C$A$GT$$u20$as$u20$core..iter..traits..iterator..Iterator$GT$8try_fold17h9b3edfce31f69f93E', symObjAddr: 0x24AC, symBinAddr: 0x5C5E0, symSize: 0x1A4 }
  - { offset: 0x15E81C, size: 0x8, addend: 0x0, symName: '__ZN103_$LT$alloc..vec..into_iter..IntoIter$LT$T$C$A$GT$$u20$as$u20$core..iter..traits..iterator..Iterator$GT$8try_fold17h9e43d97cbf6dcb24E', symObjAddr: 0x2650, symBinAddr: 0x5C784, symSize: 0x1D8 }
  - { offset: 0x15E9E1, size: 0x8, addend: 0x0, symName: '__ZN103_$LT$alloc..vec..into_iter..IntoIter$LT$T$C$A$GT$$u20$as$u20$core..iter..traits..iterator..Iterator$GT$8try_fold17ha293557c997e8f8eE', symObjAddr: 0x2828, symBinAddr: 0x5C95C, symSize: 0x1CC }
  - { offset: 0x15EBA6, size: 0x8, addend: 0x0, symName: '__ZN103_$LT$alloc..vec..into_iter..IntoIter$LT$T$C$A$GT$$u20$as$u20$core..iter..traits..iterator..Iterator$GT$8try_fold17hc14fe28ff6ecbbdaE', symObjAddr: 0x29F4, symBinAddr: 0x5CB28, symSize: 0x1CC }
  - { offset: 0x15ED6B, size: 0x8, addend: 0x0, symName: '__ZN103_$LT$alloc..vec..into_iter..IntoIter$LT$T$C$A$GT$$u20$as$u20$core..iter..traits..iterator..Iterator$GT$8try_fold17hc8a05873b67985abE', symObjAddr: 0x2BC0, symBinAddr: 0x5CCF4, symSize: 0x1B4 }
  - { offset: 0x15EF46, size: 0x8, addend: 0x0, symName: '__ZN103_$LT$alloc..vec..into_iter..IntoIter$LT$T$C$A$GT$$u20$as$u20$core..iter..traits..iterator..Iterator$GT$8try_fold17hdf007fa54496920dE', symObjAddr: 0x2D74, symBinAddr: 0x5CEA8, symSize: 0x174 }
  - { offset: 0x15F11D, size: 0x8, addend: 0x0, symName: '__ZN103_$LT$alloc..vec..into_iter..IntoIter$LT$T$C$A$GT$$u20$as$u20$core..iter..traits..iterator..Iterator$GT$8try_fold17hf4d024513fd331e2E', symObjAddr: 0x2EE8, symBinAddr: 0x5D01C, symSize: 0x154 }
  - { offset: 0x15F2F3, size: 0x8, addend: 0x0, symName: '__ZN103_$LT$alloc..vec..into_iter..IntoIter$LT$T$C$A$GT$$u20$as$u20$core..iter..traits..iterator..Iterator$GT$8try_fold17hff0e90468582646bE', symObjAddr: 0x303C, symBinAddr: 0x5D170, symSize: 0x1C8 }
  - { offset: 0x15F4B8, size: 0x8, addend: 0x0, symName: '__ZN103_$LT$alloc..vec..into_iter..IntoIter$LT$T$C$A$GT$$u20$as$u20$core..iter..traits..iterator..Iterator$GT$9size_hint17h0226d626b87f9df0E', symObjAddr: 0x3204, symBinAddr: 0x5D338, symSize: 0x5C }
  - { offset: 0x15F513, size: 0x8, addend: 0x0, symName: '__ZN103_$LT$alloc..vec..into_iter..IntoIter$LT$T$C$A$GT$$u20$as$u20$core..iter..traits..iterator..Iterator$GT$9size_hint17h174ead4f6ecdfe8fE', symObjAddr: 0x3260, symBinAddr: 0x5D394, symSize: 0x5C }
  - { offset: 0x15F56E, size: 0x8, addend: 0x0, symName: '__ZN103_$LT$alloc..vec..into_iter..IntoIter$LT$T$C$A$GT$$u20$as$u20$core..iter..traits..iterator..Iterator$GT$9size_hint17h6e585515528320dbE', symObjAddr: 0x32BC, symBinAddr: 0x5D3F0, symSize: 0x5C }
  - { offset: 0x15F5C9, size: 0x8, addend: 0x0, symName: '__ZN103_$LT$alloc..vec..into_iter..IntoIter$LT$T$C$A$GT$$u20$as$u20$core..iter..traits..iterator..Iterator$GT$9size_hint17h868caa6b045f61daE', symObjAddr: 0x3318, symBinAddr: 0x5D44C, symSize: 0x5C }
  - { offset: 0x15F624, size: 0x8, addend: 0x0, symName: '__ZN103_$LT$alloc..vec..into_iter..IntoIter$LT$T$C$A$GT$$u20$as$u20$core..iter..traits..iterator..Iterator$GT$9size_hint17hbaa359859ac19f53E', symObjAddr: 0x3374, symBinAddr: 0x5D4A8, symSize: 0x5C }
  - { offset: 0x15F67F, size: 0x8, addend: 0x0, symName: '__ZN103_$LT$alloc..vec..into_iter..IntoIter$LT$T$C$A$GT$$u20$as$u20$core..iter..traits..iterator..Iterator$GT$9size_hint17hbeb3a3d0d7002ef4E', symObjAddr: 0x33D0, symBinAddr: 0x5D504, symSize: 0x5C }
  - { offset: 0x15F6DA, size: 0x8, addend: 0x0, symName: '__ZN103_$LT$alloc..vec..into_iter..IntoIter$LT$T$C$A$GT$$u20$as$u20$core..iter..traits..iterator..Iterator$GT$9size_hint17hc28fd5ccb8a0de02E', symObjAddr: 0x342C, symBinAddr: 0x5D560, symSize: 0x5C }
  - { offset: 0x15F735, size: 0x8, addend: 0x0, symName: '__ZN103_$LT$alloc..vec..into_iter..IntoIter$LT$T$C$A$GT$$u20$as$u20$core..iter..traits..iterator..Iterator$GT$9size_hint17hc35463a891be7b16E', symObjAddr: 0x3488, symBinAddr: 0x5D5BC, symSize: 0x5C }
  - { offset: 0x15F790, size: 0x8, addend: 0x0, symName: '__ZN103_$LT$alloc..vec..into_iter..IntoIter$LT$T$C$A$GT$$u20$as$u20$core..iter..traits..iterator..Iterator$GT$9size_hint17he15e4d0b6cc70accE', symObjAddr: 0x34E4, symBinAddr: 0x5D618, symSize: 0x5C }
  - { offset: 0x15F7EB, size: 0x8, addend: 0x0, symName: '__ZN103_$LT$alloc..vec..into_iter..IntoIter$LT$T$C$A$GT$$u20$as$u20$core..iter..traits..iterator..Iterator$GT$9size_hint17he1f3b03fbd7c1a9fE', symObjAddr: 0x3540, symBinAddr: 0x5D674, symSize: 0x5C }
  - { offset: 0x15F846, size: 0x8, addend: 0x0, symName: '__ZN103_$LT$alloc..vec..into_iter..IntoIter$LT$T$C$A$GT$$u20$as$u20$core..iter..traits..iterator..Iterator$GT$9size_hint17hf7223f8daadf6358E', symObjAddr: 0x359C, symBinAddr: 0x5D6D0, symSize: 0x5C }
  - { offset: 0x15F8A1, size: 0x8, addend: 0x0, symName: '__ZN103_$LT$alloc..vec..into_iter..IntoIter$LT$T$C$A$GT$$u20$as$u20$core..iter..traits..iterator..Iterator$GT$9size_hint17hf8623ef32fe8508dE', symObjAddr: 0x35F8, symBinAddr: 0x5D72C, symSize: 0x5C }
  - { offset: 0x15FF56, size: 0x8, addend: 0x0, symName: '__ZN104_$LT$alloc..vec..into_iter..IntoIter$LT$T$GT$$u20$as$u20$alloc..vec..in_place_collect..AsVecIntoIter$GT$12as_into_iter17h00c42a743af897c6E', symObjAddr: 0x3654, symBinAddr: 0x5D788, symSize: 0x14 }
  - { offset: 0x15FF8D, size: 0x8, addend: 0x0, symName: '__ZN104_$LT$alloc..vec..into_iter..IntoIter$LT$T$GT$$u20$as$u20$alloc..vec..in_place_collect..AsVecIntoIter$GT$12as_into_iter17h03df69aa9a622619E', symObjAddr: 0x3668, symBinAddr: 0x5D79C, symSize: 0x14 }
  - { offset: 0x15FFC4, size: 0x8, addend: 0x0, symName: '__ZN104_$LT$alloc..vec..into_iter..IntoIter$LT$T$GT$$u20$as$u20$alloc..vec..in_place_collect..AsVecIntoIter$GT$12as_into_iter17h0f1fcdd52fac2745E', symObjAddr: 0x367C, symBinAddr: 0x5D7B0, symSize: 0x14 }
  - { offset: 0x15FFFB, size: 0x8, addend: 0x0, symName: '__ZN104_$LT$alloc..vec..into_iter..IntoIter$LT$T$GT$$u20$as$u20$alloc..vec..in_place_collect..AsVecIntoIter$GT$12as_into_iter17h2ae331fa2c2db68fE', symObjAddr: 0x3690, symBinAddr: 0x5D7C4, symSize: 0x14 }
  - { offset: 0x160032, size: 0x8, addend: 0x0, symName: '__ZN104_$LT$alloc..vec..into_iter..IntoIter$LT$T$GT$$u20$as$u20$alloc..vec..in_place_collect..AsVecIntoIter$GT$12as_into_iter17h431362d8d8e29cf3E', symObjAddr: 0x36A4, symBinAddr: 0x5D7D8, symSize: 0x14 }
  - { offset: 0x160069, size: 0x8, addend: 0x0, symName: '__ZN104_$LT$alloc..vec..into_iter..IntoIter$LT$T$GT$$u20$as$u20$alloc..vec..in_place_collect..AsVecIntoIter$GT$12as_into_iter17h74a793535c698437E', symObjAddr: 0x36B8, symBinAddr: 0x5D7EC, symSize: 0x14 }
  - { offset: 0x1600A0, size: 0x8, addend: 0x0, symName: '__ZN104_$LT$alloc..vec..into_iter..IntoIter$LT$T$GT$$u20$as$u20$alloc..vec..in_place_collect..AsVecIntoIter$GT$12as_into_iter17h8bc13118a3c7c2c7E', symObjAddr: 0x36CC, symBinAddr: 0x5D800, symSize: 0x14 }
  - { offset: 0x1600D7, size: 0x8, addend: 0x0, symName: '__ZN104_$LT$alloc..vec..into_iter..IntoIter$LT$T$GT$$u20$as$u20$alloc..vec..in_place_collect..AsVecIntoIter$GT$12as_into_iter17ha62cdae31ae17515E', symObjAddr: 0x36E0, symBinAddr: 0x5D814, symSize: 0x14 }
  - { offset: 0x16010E, size: 0x8, addend: 0x0, symName: '__ZN104_$LT$alloc..vec..into_iter..IntoIter$LT$T$GT$$u20$as$u20$alloc..vec..in_place_collect..AsVecIntoIter$GT$12as_into_iter17hbc8aebc3f1bfbc46E', symObjAddr: 0x36F4, symBinAddr: 0x5D828, symSize: 0x14 }
  - { offset: 0x160145, size: 0x8, addend: 0x0, symName: '__ZN104_$LT$alloc..vec..into_iter..IntoIter$LT$T$GT$$u20$as$u20$alloc..vec..in_place_collect..AsVecIntoIter$GT$12as_into_iter17he66bcd3975eeac0eE', symObjAddr: 0x3708, symBinAddr: 0x5D83C, symSize: 0x14 }
  - { offset: 0x16017C, size: 0x8, addend: 0x0, symName: '__ZN104_$LT$alloc..vec..into_iter..IntoIter$LT$T$GT$$u20$as$u20$alloc..vec..in_place_collect..AsVecIntoIter$GT$12as_into_iter17he7b9f470790edd6fE', symObjAddr: 0x371C, symBinAddr: 0x5D850, symSize: 0x14 }
  - { offset: 0x1601B3, size: 0x8, addend: 0x0, symName: '__ZN104_$LT$alloc..vec..into_iter..IntoIter$LT$T$GT$$u20$as$u20$alloc..vec..in_place_collect..AsVecIntoIter$GT$12as_into_iter17hf6f2bf52ff0bab94E', symObjAddr: 0x3730, symBinAddr: 0x5D864, symSize: 0x14 }
  - { offset: 0x1601F0, size: 0x8, addend: 0x0, symName: '__ZN114_$LT$alloc..vec..into_iter..IntoIter$LT$T$C$A$GT$$u20$as$u20$core..iter..traits..exact_size..ExactSizeIterator$GT$8is_empty17h100a6215e82482beE', symObjAddr: 0x3744, symBinAddr: 0x5D878, symSize: 0x3C }
  - { offset: 0x160253, size: 0x8, addend: 0x0, symName: '__ZN114_$LT$alloc..vec..into_iter..IntoIter$LT$T$C$A$GT$$u20$as$u20$core..iter..traits..exact_size..ExactSizeIterator$GT$8is_empty17h14dae4678de7acd5E', symObjAddr: 0x3780, symBinAddr: 0x5D8B4, symSize: 0x3C }
  - { offset: 0x1602B6, size: 0x8, addend: 0x0, symName: '__ZN114_$LT$alloc..vec..into_iter..IntoIter$LT$T$C$A$GT$$u20$as$u20$core..iter..traits..exact_size..ExactSizeIterator$GT$8is_empty17h15ff377f9f5bce8cE', symObjAddr: 0x37BC, symBinAddr: 0x5D8F0, symSize: 0x3C }
  - { offset: 0x160319, size: 0x8, addend: 0x0, symName: '__ZN114_$LT$alloc..vec..into_iter..IntoIter$LT$T$C$A$GT$$u20$as$u20$core..iter..traits..exact_size..ExactSizeIterator$GT$8is_empty17h28c41f705204010eE', symObjAddr: 0x37F8, symBinAddr: 0x5D92C, symSize: 0x3C }
  - { offset: 0x16037C, size: 0x8, addend: 0x0, symName: '__ZN114_$LT$alloc..vec..into_iter..IntoIter$LT$T$C$A$GT$$u20$as$u20$core..iter..traits..exact_size..ExactSizeIterator$GT$8is_empty17h2bbf3dd49c4f9fafE', symObjAddr: 0x3834, symBinAddr: 0x5D968, symSize: 0x3C }
  - { offset: 0x1603DF, size: 0x8, addend: 0x0, symName: '__ZN114_$LT$alloc..vec..into_iter..IntoIter$LT$T$C$A$GT$$u20$as$u20$core..iter..traits..exact_size..ExactSizeIterator$GT$8is_empty17h6800db04d3745b57E', symObjAddr: 0x3870, symBinAddr: 0x5D9A4, symSize: 0x3C }
  - { offset: 0x160442, size: 0x8, addend: 0x0, symName: '__ZN114_$LT$alloc..vec..into_iter..IntoIter$LT$T$C$A$GT$$u20$as$u20$core..iter..traits..exact_size..ExactSizeIterator$GT$8is_empty17ha5457d20c90999fcE', symObjAddr: 0x38AC, symBinAddr: 0x5D9E0, symSize: 0x3C }
  - { offset: 0x1604A5, size: 0x8, addend: 0x0, symName: '__ZN114_$LT$alloc..vec..into_iter..IntoIter$LT$T$C$A$GT$$u20$as$u20$core..iter..traits..exact_size..ExactSizeIterator$GT$8is_empty17haf4c0a7cd75beb49E', symObjAddr: 0x38E8, symBinAddr: 0x5DA1C, symSize: 0x3C }
  - { offset: 0x160508, size: 0x8, addend: 0x0, symName: '__ZN114_$LT$alloc..vec..into_iter..IntoIter$LT$T$C$A$GT$$u20$as$u20$core..iter..traits..exact_size..ExactSizeIterator$GT$8is_empty17hd8cdbe7b2888ef40E', symObjAddr: 0x3924, symBinAddr: 0x5DA58, symSize: 0x3C }
  - { offset: 0x161540, size: 0x8, addend: 0x0, symName: '__ZN97_$LT$alloc..vec..into_iter..IntoIter$LT$T$C$A$GT$$u20$as$u20$core..iter..adapters..SourceIter$GT$8as_inner17h0da904a63a5fdcf4E', symObjAddr: 0x5F6C, symBinAddr: 0x600A0, symSize: 0x14 }
  - { offset: 0x161580, size: 0x8, addend: 0x0, symName: '__ZN97_$LT$alloc..vec..into_iter..IntoIter$LT$T$C$A$GT$$u20$as$u20$core..iter..adapters..SourceIter$GT$8as_inner17h3a8ff52442d476aeE', symObjAddr: 0x5F80, symBinAddr: 0x600B4, symSize: 0x14 }
  - { offset: 0x1615C0, size: 0x8, addend: 0x0, symName: '__ZN97_$LT$alloc..vec..into_iter..IntoIter$LT$T$C$A$GT$$u20$as$u20$core..iter..adapters..SourceIter$GT$8as_inner17h431f0229bb7f158bE', symObjAddr: 0x5F94, symBinAddr: 0x600C8, symSize: 0x14 }
  - { offset: 0x161600, size: 0x8, addend: 0x0, symName: '__ZN97_$LT$alloc..vec..into_iter..IntoIter$LT$T$C$A$GT$$u20$as$u20$core..iter..adapters..SourceIter$GT$8as_inner17h6122b203b542dfcaE', symObjAddr: 0x5FA8, symBinAddr: 0x600DC, symSize: 0x14 }
  - { offset: 0x161640, size: 0x8, addend: 0x0, symName: '__ZN97_$LT$alloc..vec..into_iter..IntoIter$LT$T$C$A$GT$$u20$as$u20$core..iter..adapters..SourceIter$GT$8as_inner17h78242f906b4be66fE', symObjAddr: 0x5FBC, symBinAddr: 0x600F0, symSize: 0x14 }
  - { offset: 0x161680, size: 0x8, addend: 0x0, symName: '__ZN97_$LT$alloc..vec..into_iter..IntoIter$LT$T$C$A$GT$$u20$as$u20$core..iter..adapters..SourceIter$GT$8as_inner17h920cb8d47e75c892E', symObjAddr: 0x5FD0, symBinAddr: 0x60104, symSize: 0x14 }
  - { offset: 0x1616C0, size: 0x8, addend: 0x0, symName: '__ZN97_$LT$alloc..vec..into_iter..IntoIter$LT$T$C$A$GT$$u20$as$u20$core..iter..adapters..SourceIter$GT$8as_inner17h9deaeb7911bdaaf7E', symObjAddr: 0x5FE4, symBinAddr: 0x60118, symSize: 0x14 }
  - { offset: 0x161700, size: 0x8, addend: 0x0, symName: '__ZN97_$LT$alloc..vec..into_iter..IntoIter$LT$T$C$A$GT$$u20$as$u20$core..iter..adapters..SourceIter$GT$8as_inner17haa9a6013598fc121E', symObjAddr: 0x5FF8, symBinAddr: 0x6012C, symSize: 0x14 }
  - { offset: 0x161740, size: 0x8, addend: 0x0, symName: '__ZN97_$LT$alloc..vec..into_iter..IntoIter$LT$T$C$A$GT$$u20$as$u20$core..iter..adapters..SourceIter$GT$8as_inner17hade5522e1432c419E', symObjAddr: 0x600C, symBinAddr: 0x60140, symSize: 0x14 }
  - { offset: 0x161780, size: 0x8, addend: 0x0, symName: '__ZN97_$LT$alloc..vec..into_iter..IntoIter$LT$T$C$A$GT$$u20$as$u20$core..iter..adapters..SourceIter$GT$8as_inner17hb20d378696dea887E', symObjAddr: 0x6020, symBinAddr: 0x60154, symSize: 0x14 }
  - { offset: 0x1617C0, size: 0x8, addend: 0x0, symName: '__ZN97_$LT$alloc..vec..into_iter..IntoIter$LT$T$C$A$GT$$u20$as$u20$core..iter..adapters..SourceIter$GT$8as_inner17hb3e3b16f82f0c323E', symObjAddr: 0x6034, symBinAddr: 0x60168, symSize: 0x14 }
  - { offset: 0x161800, size: 0x8, addend: 0x0, symName: '__ZN97_$LT$alloc..vec..into_iter..IntoIter$LT$T$C$A$GT$$u20$as$u20$core..iter..adapters..SourceIter$GT$8as_inner17he274dee1cdff795aE', symObjAddr: 0x6048, symBinAddr: 0x6017C, symSize: 0x14 }
  - { offset: 0x165451, size: 0x8, addend: 0x0, symName: '__ZN5alloc3vec9into_iter21IntoIter$LT$T$C$A$GT$16as_raw_mut_slice17h1ffdf08e053d9e35E', symObjAddr: 0x43F8, symBinAddr: 0x5E52C, symSize: 0xCC }
  - { offset: 0x16560B, size: 0x8, addend: 0x0, symName: '__ZN5alloc3vec9into_iter21IntoIter$LT$T$C$A$GT$16as_raw_mut_slice17h381ac3e959629ed4E', symObjAddr: 0x44C4, symBinAddr: 0x5E5F8, symSize: 0xCC }
  - { offset: 0x1657C5, size: 0x8, addend: 0x0, symName: '__ZN5alloc3vec9into_iter21IntoIter$LT$T$C$A$GT$16as_raw_mut_slice17h3854100c1723cbf8E', symObjAddr: 0x4590, symBinAddr: 0x5E6C4, symSize: 0xCC }
  - { offset: 0x16597F, size: 0x8, addend: 0x0, symName: '__ZN5alloc3vec9into_iter21IntoIter$LT$T$C$A$GT$16as_raw_mut_slice17h396348d2eb1d2fdaE', symObjAddr: 0x465C, symBinAddr: 0x5E790, symSize: 0xCC }
  - { offset: 0x165B39, size: 0x8, addend: 0x0, symName: '__ZN5alloc3vec9into_iter21IntoIter$LT$T$C$A$GT$16as_raw_mut_slice17h427648e51ae2e052E', symObjAddr: 0x4728, symBinAddr: 0x5E85C, symSize: 0xCC }
  - { offset: 0x165CF3, size: 0x8, addend: 0x0, symName: '__ZN5alloc3vec9into_iter21IntoIter$LT$T$C$A$GT$16as_raw_mut_slice17h42bb5a24d4a8afc3E', symObjAddr: 0x47F4, symBinAddr: 0x5E928, symSize: 0xCC }
  - { offset: 0x165EAD, size: 0x8, addend: 0x0, symName: '__ZN5alloc3vec9into_iter21IntoIter$LT$T$C$A$GT$16as_raw_mut_slice17h44c9b80d7b476f3bE', symObjAddr: 0x48C0, symBinAddr: 0x5E9F4, symSize: 0xCC }
  - { offset: 0x166067, size: 0x8, addend: 0x0, symName: '__ZN5alloc3vec9into_iter21IntoIter$LT$T$C$A$GT$16as_raw_mut_slice17h4f9e7af133d37310E', symObjAddr: 0x498C, symBinAddr: 0x5EAC0, symSize: 0xCC }
  - { offset: 0x166221, size: 0x8, addend: 0x0, symName: '__ZN5alloc3vec9into_iter21IntoIter$LT$T$C$A$GT$16as_raw_mut_slice17h4fdd6e6dbf88d389E', symObjAddr: 0x4A58, symBinAddr: 0x5EB8C, symSize: 0xCC }
  - { offset: 0x1663DB, size: 0x8, addend: 0x0, symName: '__ZN5alloc3vec9into_iter21IntoIter$LT$T$C$A$GT$16as_raw_mut_slice17h626863bdbff4b982E', symObjAddr: 0x4B24, symBinAddr: 0x5EC58, symSize: 0xCC }
  - { offset: 0x166595, size: 0x8, addend: 0x0, symName: '__ZN5alloc3vec9into_iter21IntoIter$LT$T$C$A$GT$16as_raw_mut_slice17h6e4bd565c851dc8fE', symObjAddr: 0x4BF0, symBinAddr: 0x5ED24, symSize: 0xCC }
  - { offset: 0x16674F, size: 0x8, addend: 0x0, symName: '__ZN5alloc3vec9into_iter21IntoIter$LT$T$C$A$GT$16as_raw_mut_slice17h7d10811628d4a2f7E', symObjAddr: 0x4CBC, symBinAddr: 0x5EDF0, symSize: 0xCC }
  - { offset: 0x166909, size: 0x8, addend: 0x0, symName: '__ZN5alloc3vec9into_iter21IntoIter$LT$T$C$A$GT$16as_raw_mut_slice17h7f4626c95afdaa75E', symObjAddr: 0x4D88, symBinAddr: 0x5EEBC, symSize: 0xCC }
  - { offset: 0x166AC3, size: 0x8, addend: 0x0, symName: '__ZN5alloc3vec9into_iter21IntoIter$LT$T$C$A$GT$16as_raw_mut_slice17h8bf56feabdd7465eE', symObjAddr: 0x4E54, symBinAddr: 0x5EF88, symSize: 0xCC }
  - { offset: 0x166C7D, size: 0x8, addend: 0x0, symName: '__ZN5alloc3vec9into_iter21IntoIter$LT$T$C$A$GT$16as_raw_mut_slice17h909328158dfbd7c3E', symObjAddr: 0x4F20, symBinAddr: 0x5F054, symSize: 0xCC }
  - { offset: 0x166E37, size: 0x8, addend: 0x0, symName: '__ZN5alloc3vec9into_iter21IntoIter$LT$T$C$A$GT$16as_raw_mut_slice17h93d4b33b2e1e44efE', symObjAddr: 0x4FEC, symBinAddr: 0x5F120, symSize: 0xCC }
  - { offset: 0x166FF1, size: 0x8, addend: 0x0, symName: '__ZN5alloc3vec9into_iter21IntoIter$LT$T$C$A$GT$16as_raw_mut_slice17ha0b7e179030fe43bE', symObjAddr: 0x50B8, symBinAddr: 0x5F1EC, symSize: 0xCC }
  - { offset: 0x1671AB, size: 0x8, addend: 0x0, symName: '__ZN5alloc3vec9into_iter21IntoIter$LT$T$C$A$GT$16as_raw_mut_slice17ha482ad7c433db0f0E', symObjAddr: 0x5184, symBinAddr: 0x5F2B8, symSize: 0xCC }
  - { offset: 0x167365, size: 0x8, addend: 0x0, symName: '__ZN5alloc3vec9into_iter21IntoIter$LT$T$C$A$GT$16as_raw_mut_slice17ha4ffb991b78cda58E', symObjAddr: 0x5250, symBinAddr: 0x5F384, symSize: 0xCC }
  - { offset: 0x16751F, size: 0x8, addend: 0x0, symName: '__ZN5alloc3vec9into_iter21IntoIter$LT$T$C$A$GT$16as_raw_mut_slice17hb07a165555f26be1E', symObjAddr: 0x531C, symBinAddr: 0x5F450, symSize: 0xCC }
  - { offset: 0x1676D9, size: 0x8, addend: 0x0, symName: '__ZN5alloc3vec9into_iter21IntoIter$LT$T$C$A$GT$16as_raw_mut_slice17hb1c04e09e9050c87E', symObjAddr: 0x53E8, symBinAddr: 0x5F51C, symSize: 0xCC }
  - { offset: 0x167893, size: 0x8, addend: 0x0, symName: '__ZN5alloc3vec9into_iter21IntoIter$LT$T$C$A$GT$16as_raw_mut_slice17hb6f37740264b0050E', symObjAddr: 0x54B4, symBinAddr: 0x5F5E8, symSize: 0xCC }
  - { offset: 0x167A4D, size: 0x8, addend: 0x0, symName: '__ZN5alloc3vec9into_iter21IntoIter$LT$T$C$A$GT$16as_raw_mut_slice17hd4894ddbecf78dc4E', symObjAddr: 0x5580, symBinAddr: 0x5F6B4, symSize: 0xCC }
  - { offset: 0x167C07, size: 0x8, addend: 0x0, symName: '__ZN5alloc3vec9into_iter21IntoIter$LT$T$C$A$GT$16as_raw_mut_slice17hd48cfc99a5fd1ee2E', symObjAddr: 0x564C, symBinAddr: 0x5F780, symSize: 0xCC }
  - { offset: 0x167DC1, size: 0x8, addend: 0x0, symName: '__ZN5alloc3vec9into_iter21IntoIter$LT$T$C$A$GT$16as_raw_mut_slice17hef3546c5fd73391fE', symObjAddr: 0x5718, symBinAddr: 0x5F84C, symSize: 0xCC }
  - { offset: 0x167F7B, size: 0x8, addend: 0x0, symName: '__ZN5alloc3vec9into_iter21IntoIter$LT$T$C$A$GT$16as_raw_mut_slice17hfa048c44f0fd43cfE', symObjAddr: 0x57E4, symBinAddr: 0x5F918, symSize: 0xCC }
  - { offset: 0x16814C, size: 0x8, addend: 0x0, symName: '__ZN5alloc3vec9into_iter21IntoIter$LT$T$C$A$GT$32forget_allocation_drop_remaining17h01c46cdf1d9d2232E', symObjAddr: 0x58B0, symBinAddr: 0x5F9E4, symSize: 0x80 }
  - { offset: 0x16826B, size: 0x8, addend: 0x0, symName: '__ZN5alloc3vec9into_iter21IntoIter$LT$T$C$A$GT$32forget_allocation_drop_remaining17h09b73976c21235feE', symObjAddr: 0x5930, symBinAddr: 0x5FA64, symSize: 0x80 }
  - { offset: 0x16838A, size: 0x8, addend: 0x0, symName: '__ZN5alloc3vec9into_iter21IntoIter$LT$T$C$A$GT$32forget_allocation_drop_remaining17h2a5c988b1a1b576fE', symObjAddr: 0x59B0, symBinAddr: 0x5FAE4, symSize: 0x80 }
  - { offset: 0x1684A9, size: 0x8, addend: 0x0, symName: '__ZN5alloc3vec9into_iter21IntoIter$LT$T$C$A$GT$32forget_allocation_drop_remaining17h32a1436bcf5109b1E', symObjAddr: 0x5A30, symBinAddr: 0x5FB64, symSize: 0x6C }
  - { offset: 0x1685C8, size: 0x8, addend: 0x0, symName: '__ZN5alloc3vec9into_iter21IntoIter$LT$T$C$A$GT$32forget_allocation_drop_remaining17h4f2bb6af2a6ea859E', symObjAddr: 0x5A9C, symBinAddr: 0x5FBD0, symSize: 0x80 }
  - { offset: 0x1686E7, size: 0x8, addend: 0x0, symName: '__ZN5alloc3vec9into_iter21IntoIter$LT$T$C$A$GT$32forget_allocation_drop_remaining17h7bfd061e25eeae54E', symObjAddr: 0x5B1C, symBinAddr: 0x5FC50, symSize: 0x80 }
  - { offset: 0x168806, size: 0x8, addend: 0x0, symName: '__ZN5alloc3vec9into_iter21IntoIter$LT$T$C$A$GT$32forget_allocation_drop_remaining17h7f65f8208fadb0b5E', symObjAddr: 0x5B9C, symBinAddr: 0x5FCD0, symSize: 0x80 }
  - { offset: 0x168925, size: 0x8, addend: 0x0, symName: '__ZN5alloc3vec9into_iter21IntoIter$LT$T$C$A$GT$32forget_allocation_drop_remaining17h874b0d13ba1f8ec8E', symObjAddr: 0x5C1C, symBinAddr: 0x5FD50, symSize: 0x6C }
  - { offset: 0x168A44, size: 0x8, addend: 0x0, symName: '__ZN5alloc3vec9into_iter21IntoIter$LT$T$C$A$GT$32forget_allocation_drop_remaining17hab748d6dfab5d591E', symObjAddr: 0x5C88, symBinAddr: 0x5FDBC, symSize: 0x6C }
  - { offset: 0x168B63, size: 0x8, addend: 0x0, symName: '__ZN5alloc3vec9into_iter21IntoIter$LT$T$C$A$GT$32forget_allocation_drop_remaining17hd4ec480fbf38b977E', symObjAddr: 0x5CF4, symBinAddr: 0x5FE28, symSize: 0x6C }
  - { offset: 0x168C82, size: 0x8, addend: 0x0, symName: '__ZN5alloc3vec9into_iter21IntoIter$LT$T$C$A$GT$32forget_allocation_drop_remaining17hea1965a6b1b05ee9E', symObjAddr: 0x5D60, symBinAddr: 0x5FE94, symSize: 0x80 }
  - { offset: 0x168DA1, size: 0x8, addend: 0x0, symName: '__ZN5alloc3vec9into_iter21IntoIter$LT$T$C$A$GT$32forget_allocation_drop_remaining17hf324f82f43d2c3a2E', symObjAddr: 0x5DE0, symBinAddr: 0x5FF14, symSize: 0x6C }
  - { offset: 0x168E77, size: 0x8, addend: 0x0, symName: '__ZN5alloc3vec9into_iter21IntoIter$LT$T$C$A$GT$8as_slice17h9b7c106a426f4f28E', symObjAddr: 0x5E4C, symBinAddr: 0x5FF80, symSize: 0xF8 }
  - { offset: 0x1691AE, size: 0x8, addend: 0x0, symName: '__ZN104_$LT$core..str..pattern..MultiCharEqSearcher$LT$C$GT$$u20$as$u20$core..str..pattern..ReverseSearcher$GT$9next_back17h594789241da2a39cE', symObjAddr: 0x0, symBinAddr: 0x60190, symSize: 0x128 }
  - { offset: 0x169313, size: 0x8, addend: 0x0, symName: '__ZN104_$LT$core..str..pattern..MultiCharEqSearcher$LT$C$GT$$u20$as$u20$core..str..pattern..ReverseSearcher$GT$9next_back17h594789241da2a39cE', symObjAddr: 0x0, symBinAddr: 0x60190, symSize: 0x128 }
  - { offset: 0x169437, size: 0x8, addend: 0x0, symName: '__ZN106_$LT$core..str..pattern..CharPredicateSearcher$LT$F$GT$$u20$as$u20$core..str..pattern..ReverseSearcher$GT$16next_reject_back17h5bfe03031fa8199bE', symObjAddr: 0x128, symBinAddr: 0x602B8, symSize: 0x24 }
  - { offset: 0x169474, size: 0x8, addend: 0x0, symName: __ZN4core3str7pattern15ReverseSearcher16next_reject_back17hfd56cf243467057aE, symObjAddr: 0x14C, symBinAddr: 0x602DC, symSize: 0x90 }
  - { offset: 0x1694DF, size: 0x8, addend: 0x0, symName: __ZN4core3str7pattern8Searcher11next_reject17h5e2bbed683c5b980E, symObjAddr: 0x1DC, symBinAddr: 0x6036C, symSize: 0x90 }
  - { offset: 0x16954A, size: 0x8, addend: 0x0, symName: '__ZN95_$LT$core..str..pattern..MultiCharEqPattern$LT$C$GT$$u20$as$u20$core..str..pattern..Pattern$GT$13into_searcher17he95e5861a236bad3E', symObjAddr: 0x26C, symBinAddr: 0x603FC, symSize: 0x90 }
  - { offset: 0x1695AC, size: 0x8, addend: 0x0, symName: '__ZN97_$LT$core..str..pattern..MultiCharEqSearcher$LT$C$GT$$u20$as$u20$core..str..pattern..Searcher$GT$4next17hf0179f31d224c934E', symObjAddr: 0x2FC, symBinAddr: 0x6048C, symSize: 0x128 }
  - { offset: 0x1696D0, size: 0x8, addend: 0x0, symName: '__ZN99_$LT$core..str..pattern..CharPredicateSearcher$LT$F$GT$$u20$as$u20$core..str..pattern..Searcher$GT$11next_reject17h816ae1f4bc36f4f6E', symObjAddr: 0x424, symBinAddr: 0x605B4, symSize: 0x24 }
  - { offset: 0x1699BB, size: 0x8, addend: 0x0, symName: __ZN7managym5infra8profiler11insert_info17h01589ab26f0ff129E, symObjAddr: 0x0, symBinAddr: 0x605D8, symSize: 0xCC }
  - { offset: 0x1699D7, size: 0x8, addend: 0x0, symName: __ZN7managym5infra8profiler11insert_info17h01589ab26f0ff129E, symObjAddr: 0x0, symBinAddr: 0x605D8, symSize: 0xCC }
  - { offset: 0x169A25, size: 0x8, addend: 0x0, symName: __ZN7managym5infra8profiler11insert_info17hf7556de58012ead0E, symObjAddr: 0xCC, symBinAddr: 0x606A4, symSize: 0xC8 }
  - { offset: 0x169A7E, size: 0x8, addend: 0x0, symName: '__ZN7managym5infra8profiler8Profiler14parse_baseline28_$u7b$$u7b$closure$u7d$$u7d$17h42af4f5540534c8cE', symObjAddr: 0x194, symBinAddr: 0x6076C, symSize: 0x38 }
  - { offset: 0x169AB4, size: 0x8, addend: 0x0, symName: '__ZN7managym5infra8profiler8Profiler14parse_baseline28_$u7b$$u7b$closure$u7d$$u7d$17hb8900d85700f8f30E', symObjAddr: 0x1CC, symBinAddr: 0x607A4, symSize: 0x38 }
  - { offset: 0x169AFE, size: 0x8, addend: 0x0, symName: '__ZN7managym5infra8profiler8Profiler5track28_$u7b$$u7b$closure$u7d$$u7d$17hd9735a82319b1777E', symObjAddr: 0x204, symBinAddr: 0x607DC, symSize: 0x28 }
  - { offset: 0x169B32, size: 0x8, addend: 0x0, symName: '__ZN7managym5infra8profiler8Profiler9end_scope28_$u7b$$u7b$closure$u7d$$u7d$17h473e024f6c40b3feE', symObjAddr: 0x22C, symBinAddr: 0x60804, symSize: 0x38 }
  - { offset: 0x169B6E, size: 0x8, addend: 0x0, symName: '__ZN7managym5infra8profiler8Profiler9end_scope28_$u7b$$u7b$closure$u7d$$u7d$17hb01f24658db64486E', symObjAddr: 0x264, symBinAddr: 0x6083C, symSize: 0x34 }
  - { offset: 0x169BB1, size: 0x8, addend: 0x0, symName: '__ZN7managym5infra8profiler8Profiler9get_stats28_$u7b$$u7b$closure$u7d$$u7d$17h58b5af445c98a2a8E', symObjAddr: 0x298, symBinAddr: 0x60870, symSize: 0xB0 }
  - { offset: 0x16A516, size: 0x8, addend: 0x0, symName: '__ZN70_$LT$managym..flow..turn..StepKind$u20$as$u20$core..cmp..PartialEq$GT$2eq17h56b28c93999d680bE', symObjAddr: 0x0, symBinAddr: 0x60920, symSize: 0x34 }
  - { offset: 0x16A5B5, size: 0x8, addend: 0x0, symName: '__ZN70_$LT$managym..flow..turn..StepKind$u20$as$u20$core..cmp..PartialEq$GT$2eq17h56b28c93999d680bE', symObjAddr: 0x0, symBinAddr: 0x60920, symSize: 0x34 }
  - { offset: 0x16A790, size: 0x8, addend: 0x0, symName: '__ZN7managym6python8bindings122_$LT$impl$u20$core..convert..From$LT$managym..python..bindings..StepEnum$GT$$u20$for$u20$managym..flow..turn..StepKind$GT$4from17hef5162fbee9c3143E', symObjAddr: 0x484, symBinAddr: 0x60DA4, symSize: 0xC8 }
  - { offset: 0x16A7C4, size: 0x8, addend: 0x0, symName: '__ZN7managym6python8bindings124_$LT$impl$u20$core..convert..From$LT$managym..python..bindings..PhaseEnum$GT$$u20$for$u20$managym..flow..turn..PhaseKind$GT$4from17h89c15a511c29abc1E', symObjAddr: 0x54C, symBinAddr: 0x60E6C, symSize: 0x8C }
  - { offset: 0x16A840, size: 0x8, addend: 0x0, symName: __ZN7managym4flow4turn9TurnState12advance_step17h8f84528827344958E, symObjAddr: 0x34, symBinAddr: 0x60954, symSize: 0x1E8 }
  - { offset: 0x16A86F, size: 0x8, addend: 0x0, symName: __ZN7managym4flow4turn9TurnState17current_step_kind17he50778b684e64bc8E, symObjAddr: 0x21C, symBinAddr: 0x60B3C, symSize: 0xC0 }
  - { offset: 0x16A891, size: 0x8, addend: 0x0, symName: __ZN7managym4flow4turn9TurnState17step_has_priority17hce4d4f0c081d0d73E, symObjAddr: 0x2DC, symBinAddr: 0x60BFC, symSize: 0x4C }
  - { offset: 0x16A8B3, size: 0x8, addend: 0x0, symName: __ZN7managym4flow4turn9TurnState18can_cast_sorceries17hd77a3bf1b78b5008E, symObjAddr: 0x328, symBinAddr: 0x60C48, symSize: 0x60 }
  - { offset: 0x16A8D5, size: 0x8, addend: 0x0, symName: __ZN7managym4flow4turn9TurnState18current_phase_kind17h570cb057dc56813cE, symObjAddr: 0x388, symBinAddr: 0x60CA8, symSize: 0xCC }
  - { offset: 0x16A8F7, size: 0x8, addend: 0x0, symName: __ZN7managym4flow4turn9TurnState3new17hb793e454805cd1b6E, symObjAddr: 0x454, symBinAddr: 0x60D74, symSize: 0x30 }
  - { offset: 0x16A944, size: 0x8, addend: 0x0, symName: __ZN4pyo35types8sequence16extract_sequence17h3656f95799bffca9E, symObjAddr: 0x0, symBinAddr: 0x60EF8, symSize: 0x3D8 }
  - { offset: 0x16C64B, size: 0x8, addend: 0x0, symName: __ZN4pyo35types8sequence16extract_sequence17h3656f95799bffca9E, symObjAddr: 0x0, symBinAddr: 0x60EF8, symSize: 0x3D8 }
  - { offset: 0x16C74B, size: 0x8, addend: 0x0, symName: __ZN4pyo35types8sequence16extract_sequence17h3eb77a406960ae69E, symObjAddr: 0x3D8, symBinAddr: 0x612D0, symSize: 0x3B4 }
  - { offset: 0x16C84B, size: 0x8, addend: 0x0, symName: __ZN4pyo35types8sequence16extract_sequence17h492bb1a3ebcfd016E, symObjAddr: 0x78C, symBinAddr: 0x61684, symSize: 0x3D4 }
  - { offset: 0x16C94B, size: 0x8, addend: 0x0, symName: __ZN4pyo35types8sequence16extract_sequence17h9396c49d1c61bc46E, symObjAddr: 0xB60, symBinAddr: 0x61A58, symSize: 0x3D8 }
  - { offset: 0x16CA4B, size: 0x8, addend: 0x0, symName: __ZN4pyo35types8sequence16extract_sequence17ha2901038ec1876d8E, symObjAddr: 0xF38, symBinAddr: 0x61E30, symSize: 0x3A4 }
  - { offset: 0x16CB4B, size: 0x8, addend: 0x0, symName: __ZN4pyo35types8sequence16extract_sequence17hd02678ef36464abaE, symObjAddr: 0x12DC, symBinAddr: 0x621D4, symSize: 0x39C }
  - { offset: 0x16CC4B, size: 0x8, addend: 0x0, symName: __ZN4pyo35types8sequence16extract_sequence17hf26eacf34f9c46beE, symObjAddr: 0x1678, symBinAddr: 0x62570, symSize: 0x3CC }
  - { offset: 0x16CD4B, size: 0x8, addend: 0x0, symName: __ZN4pyo35types8sequence16extract_sequence17hf63173c6fc0a93ceE, symObjAddr: 0x1A44, symBinAddr: 0x6293C, symSize: 0x3D8 }
  - { offset: 0x16CE4B, size: 0x8, addend: 0x0, symName: __ZN4pyo35types8sequence16extract_sequence17hff31df9bbb9ff0ccE, symObjAddr: 0x1E1C, symBinAddr: 0x62D14, symSize: 0x39C }
  - { offset: 0x16DD01, size: 0x8, addend: 0x0, symName: '__ZN4core3ptr7mut_ptr31_$LT$impl$u20$$BP$mut$u20$T$GT$6offset18precondition_check17h535a543b9bb7d273E', symObjAddr: 0x0, symBinAddr: 0x630B0, symSize: 0xC4 }
  - { offset: 0x16DDB7, size: 0x8, addend: 0x0, symName: '__ZN4core3ptr7mut_ptr31_$LT$impl$u20$$BP$mut$u20$T$GT$6offset18precondition_check17h535a543b9bb7d273E', symObjAddr: 0x0, symBinAddr: 0x630B0, symSize: 0xC4 }
  - { offset: 0x16E1AA, size: 0x8, addend: 0x0, symName: __ZN7managym5state12stack_object11StackObject10controller17h4281314bb5409b4bE, symObjAddr: 0x0, symBinAddr: 0x63174, symSize: 0x9C }
  - { offset: 0x16E706, size: 0x8, addend: 0x0, symName: __ZN7managym5state12stack_object11StackObject10controller17h4281314bb5409b4bE, symObjAddr: 0x0, symBinAddr: 0x63174, symSize: 0x9C }
  - { offset: 0x16E77F, size: 0x8, addend: 0x0, symName: __ZN7managym5state12stack_object11StackObject13ability_index17hff2a9d974197670eE, symObjAddr: 0x9C, symBinAddr: 0x63210, symSize: 0xA0 }
  - { offset: 0x16E7DB, size: 0x8, addend: 0x0, symName: __ZN7managym5state12stack_object11StackObject24source_card_registry_key17h7b3db54aaa56bca7E, symObjAddr: 0x13C, symBinAddr: 0x632B0, symSize: 0x9C }
  - { offset: 0x16E854, size: 0x8, addend: 0x0, symName: __ZN7managym5state12stack_object11StackObject26source_permanent_object_id17h4be499c8d79e898aE, symObjAddr: 0x1D8, symBinAddr: 0x6334C, symSize: 0x80 }
  - { offset: 0x16E893, size: 0x8, addend: 0x0, symName: __ZN7managym5state12stack_object11StackObject2id17hc494cc4e5425d32aE, symObjAddr: 0x258, symBinAddr: 0x633CC, symSize: 0x9C }
  - { offset: 0x16E933, size: 0x8, addend: 0x0, symName: __ZN7managym5state12stack_object11StackObject7targets17h8b803a58b67139c5E, symObjAddr: 0x2F4, symBinAddr: 0x63468, symSize: 0xC0 }
  - { offset: 0x16E9F1, size: 0x8, addend: 0x0, symName: __ZN4core5array11try_from_fn17h37b52c0ca793f9a6E, symObjAddr: 0x0, symBinAddr: 0x63528, symSize: 0x70 }
  - { offset: 0x16ED87, size: 0x8, addend: 0x0, symName: __ZN4core5array11try_from_fn17h37b52c0ca793f9a6E, symObjAddr: 0x0, symBinAddr: 0x63528, symSize: 0x70 }
  - { offset: 0x16EDFF, size: 0x8, addend: 0x0, symName: __ZN4core5array11try_from_fn17h4989b738c0686bb9E, symObjAddr: 0x70, symBinAddr: 0x63598, symSize: 0x70 }
  - { offset: 0x16EE77, size: 0x8, addend: 0x0, symName: __ZN4core5array11try_from_fn17h600154f8f416cd52E, symObjAddr: 0xE0, symBinAddr: 0x63608, symSize: 0x70 }
  - { offset: 0x16EEEF, size: 0x8, addend: 0x0, symName: __ZN4core5array11try_from_fn17haa656a57551bf566E, symObjAddr: 0x150, symBinAddr: 0x63678, symSize: 0x70 }
  - { offset: 0x16EF67, size: 0x8, addend: 0x0, symName: __ZN4core5array11try_from_fn17hbed379ffc752e683E, symObjAddr: 0x1C0, symBinAddr: 0x636E8, symSize: 0x70 }
  - { offset: 0x16EFDF, size: 0x8, addend: 0x0, symName: __ZN4core5array11try_from_fn17hee132544041ba730E, symObjAddr: 0x230, symBinAddr: 0x63758, symSize: 0x70 }
  - { offset: 0x16F057, size: 0x8, addend: 0x0, symName: __ZN4core5array11try_from_fn17hf27ef91a26b6b2a8E, symObjAddr: 0x2A0, symBinAddr: 0x637C8, symSize: 0x70 }
  - { offset: 0x16F119, size: 0x8, addend: 0x0, symName: __ZN4core5array18try_from_fn_erased17h2648c0ccdc88088cE, symObjAddr: 0x41C, symBinAddr: 0x63944, symSize: 0x118 }
  - { offset: 0x16F1D4, size: 0x8, addend: 0x0, symName: __ZN4core5array18try_from_fn_erased17h5bec26034d5b3447E, symObjAddr: 0x534, symBinAddr: 0x63A5C, symSize: 0x118 }
  - { offset: 0x16F28F, size: 0x8, addend: 0x0, symName: __ZN4core5array18try_from_fn_erased17h6645e874aca42ff4E, symObjAddr: 0x64C, symBinAddr: 0x63B74, symSize: 0x118 }
  - { offset: 0x16F34A, size: 0x8, addend: 0x0, symName: __ZN4core5array18try_from_fn_erased17h67ff8adff54de3c2E, symObjAddr: 0x764, symBinAddr: 0x63C8C, symSize: 0x118 }
  - { offset: 0x16F405, size: 0x8, addend: 0x0, symName: __ZN4core5array18try_from_fn_erased17hb14390cf2aed74efE, symObjAddr: 0x87C, symBinAddr: 0x63DA4, symSize: 0x118 }
  - { offset: 0x16F4C0, size: 0x8, addend: 0x0, symName: __ZN4core5array18try_from_fn_erased17hedeec9b80413a138E, symObjAddr: 0x994, symBinAddr: 0x63EBC, symSize: 0x118 }
  - { offset: 0x16F57B, size: 0x8, addend: 0x0, symName: __ZN4core5array18try_from_fn_erased17hf462cdd9ad6fe4c4E, symObjAddr: 0xAAC, symBinAddr: 0x63FD4, symSize: 0x118 }
  - { offset: 0x16F63B, size: 0x8, addend: 0x0, symName: '__ZN4core5array75_$LT$impl$u20$core..default..Default$u20$for$u20$$u5b$T$u3b$$u20$6$u5d$$GT$7default17hb0a390993ab1cf15E', symObjAddr: 0xBC4, symBinAddr: 0x640EC, symSize: 0x48 }
  - { offset: 0x16F6D2, size: 0x8, addend: 0x0, symName: '__ZN4core5array75_$LT$impl$u20$core..default..Default$u20$for$u20$$u5b$T$u3b$$u20$7$u5d$$GT$7default17h11d26dbde7c81f34E', symObjAddr: 0xC0C, symBinAddr: 0x64134, symSize: 0x60 }
  - { offset: 0x16F779, size: 0x8, addend: 0x0, symName: __ZN4core5array7from_fn17h0050e039c77b63dcE, symObjAddr: 0xC6C, symBinAddr: 0x64194, symSize: 0x3C }
  - { offset: 0x16F7B7, size: 0x8, addend: 0x0, symName: __ZN4core5array7from_fn17h2471ea653bacbf04E, symObjAddr: 0xCA8, symBinAddr: 0x641D0, symSize: 0x3C }
  - { offset: 0x16F7F5, size: 0x8, addend: 0x0, symName: __ZN4core5array7from_fn17h29d161a5f825f70cE, symObjAddr: 0xCE4, symBinAddr: 0x6420C, symSize: 0x3C }
  - { offset: 0x16F833, size: 0x8, addend: 0x0, symName: __ZN4core5array7from_fn17h51243f99e3ba844dE, symObjAddr: 0xD20, symBinAddr: 0x64248, symSize: 0x3C }
  - { offset: 0x16F871, size: 0x8, addend: 0x0, symName: __ZN4core5array7from_fn17h6cad51824e902908E, symObjAddr: 0xD5C, symBinAddr: 0x64284, symSize: 0x3C }
  - { offset: 0x16F8AF, size: 0x8, addend: 0x0, symName: __ZN4core5array7from_fn17h7e2514381058b757E, symObjAddr: 0xD98, symBinAddr: 0x642C0, symSize: 0x3C }
  - { offset: 0x16F8ED, size: 0x8, addend: 0x0, symName: __ZN4core5array7from_fn17hb5a57a7029923a04E, symObjAddr: 0xDD4, symBinAddr: 0x642FC, symSize: 0x3C }
  - { offset: 0x16F930, size: 0x8, addend: 0x0, symName: '__ZN4core5array85_$LT$impl$u20$core..ops..index..Index$LT$I$GT$$u20$for$u20$$u5b$T$u3b$$u20$N$u5d$$GT$5index17h2c688af3e601a462E', symObjAddr: 0xE10, symBinAddr: 0x64338, symSize: 0xB0 }
  - { offset: 0x16FA21, size: 0x8, addend: 0x0, symName: '__ZN4core5array85_$LT$impl$u20$core..ops..index..Index$LT$I$GT$$u20$for$u20$$u5b$T$u3b$$u20$N$u5d$$GT$5index17habb0e8e606d18abdE', symObjAddr: 0xEC0, symBinAddr: 0x643E8, symSize: 0xB0 }
  - { offset: 0x16FB18, size: 0x8, addend: 0x0, symName: '__ZN4core5array98_$LT$impl$u20$core..iter..traits..collect..IntoIterator$u20$for$u20$$RF$$u5b$T$u3b$$u20$N$u5d$$GT$9into_iter17h6bf4db033515fbc1E', symObjAddr: 0xF70, symBinAddr: 0x64498, symSize: 0x58 }
  - { offset: 0x1707AD, size: 0x8, addend: 0x0, symName: '__ZN4core5array14Guard$LT$T$GT$14push_unchecked17h9fdc7973fd71d2f5E', symObjAddr: 0x310, symBinAddr: 0x63838, symSize: 0x10C }
  - { offset: 0x170A78, size: 0x8, addend: 0x0, symName: '__ZN4core3ptr8non_null16NonNull$LT$T$GT$20offset_from_unsigned17h0502808af0e4976dE', symObjAddr: 0x0, symBinAddr: 0x644F0, symSize: 0x7C }
  - { offset: 0x175D88, size: 0x8, addend: 0x0, symName: '__ZN4core3ptr8non_null16NonNull$LT$T$GT$20offset_from_unsigned17h0502808af0e4976dE', symObjAddr: 0x0, symBinAddr: 0x644F0, symSize: 0x7C }
  - { offset: 0x175E92, size: 0x8, addend: 0x0, symName: '__ZN4core3ptr8non_null16NonNull$LT$T$GT$20offset_from_unsigned17h06947dde731bc5f7E', symObjAddr: 0x7C, symBinAddr: 0x6456C, symSize: 0x7C }
  - { offset: 0x175F9C, size: 0x8, addend: 0x0, symName: '__ZN4core3ptr8non_null16NonNull$LT$T$GT$20offset_from_unsigned17h0e621c2fc6728592E', symObjAddr: 0xF8, symBinAddr: 0x645E8, symSize: 0x7C }
  - { offset: 0x1760A6, size: 0x8, addend: 0x0, symName: '__ZN4core3ptr8non_null16NonNull$LT$T$GT$20offset_from_unsigned17h19aabc452e6d30adE', symObjAddr: 0x174, symBinAddr: 0x64664, symSize: 0x7C }
  - { offset: 0x1761B0, size: 0x8, addend: 0x0, symName: '__ZN4core3ptr8non_null16NonNull$LT$T$GT$20offset_from_unsigned17h27063f1fe9099082E', symObjAddr: 0x1F0, symBinAddr: 0x646E0, symSize: 0x7C }
  - { offset: 0x1762BA, size: 0x8, addend: 0x0, symName: '__ZN4core3ptr8non_null16NonNull$LT$T$GT$20offset_from_unsigned17h273ed64d0cfc6382E', symObjAddr: 0x26C, symBinAddr: 0x6475C, symSize: 0x7C }
  - { offset: 0x1763C4, size: 0x8, addend: 0x0, symName: '__ZN4core3ptr8non_null16NonNull$LT$T$GT$20offset_from_unsigned17h336d70ef5327d024E', symObjAddr: 0x2E8, symBinAddr: 0x647D8, symSize: 0x7C }
  - { offset: 0x1764CE, size: 0x8, addend: 0x0, symName: '__ZN4core3ptr8non_null16NonNull$LT$T$GT$20offset_from_unsigned17h36cbd46e37285503E', symObjAddr: 0x364, symBinAddr: 0x64854, symSize: 0x7C }
  - { offset: 0x1765D8, size: 0x8, addend: 0x0, symName: '__ZN4core3ptr8non_null16NonNull$LT$T$GT$20offset_from_unsigned17h3a3717befb5b9232E', symObjAddr: 0x3E0, symBinAddr: 0x648D0, symSize: 0x7C }
  - { offset: 0x176B82, size: 0x8, addend: 0x0, symName: '__ZN4core3ptr8non_null16NonNull$LT$T$GT$20offset_from_unsigned17h43894886d8bbe725E', symObjAddr: 0x45C, symBinAddr: 0x6494C, symSize: 0x7C }
  - { offset: 0x176CAC, size: 0x8, addend: 0x0, symName: '__ZN4core3ptr8non_null16NonNull$LT$T$GT$20offset_from_unsigned17h43bf8eb85dbd788dE', symObjAddr: 0x4D8, symBinAddr: 0x649C8, symSize: 0x7C }
  - { offset: 0x176DB6, size: 0x8, addend: 0x0, symName: '__ZN4core3ptr8non_null16NonNull$LT$T$GT$20offset_from_unsigned17h4ab53b189cdf041dE', symObjAddr: 0x554, symBinAddr: 0x64A44, symSize: 0x7C }
  - { offset: 0x176EC7, size: 0x8, addend: 0x0, symName: '__ZN4core3ptr8non_null16NonNull$LT$T$GT$20offset_from_unsigned17h56956b5af5097978E', symObjAddr: 0x5D0, symBinAddr: 0x64AC0, symSize: 0x7C }
  - { offset: 0x176FD1, size: 0x8, addend: 0x0, symName: '__ZN4core3ptr8non_null16NonNull$LT$T$GT$20offset_from_unsigned17h5fdfb6dc250e49f8E', symObjAddr: 0x64C, symBinAddr: 0x64B3C, symSize: 0x7C }
  - { offset: 0x1770DB, size: 0x8, addend: 0x0, symName: '__ZN4core3ptr8non_null16NonNull$LT$T$GT$20offset_from_unsigned17h630525aef85e73f0E', symObjAddr: 0x6C8, symBinAddr: 0x64BB8, symSize: 0x7C }
  - { offset: 0x1771E5, size: 0x8, addend: 0x0, symName: '__ZN4core3ptr8non_null16NonNull$LT$T$GT$20offset_from_unsigned17h6a6c0223f71534fdE', symObjAddr: 0x744, symBinAddr: 0x64C34, symSize: 0x7C }
  - { offset: 0x17730D, size: 0x8, addend: 0x0, symName: '__ZN4core3ptr8non_null16NonNull$LT$T$GT$20offset_from_unsigned17h6dcb43b4d3b22652E', symObjAddr: 0x7C0, symBinAddr: 0x64CB0, symSize: 0x7C }
  - { offset: 0x177417, size: 0x8, addend: 0x0, symName: '__ZN4core3ptr8non_null16NonNull$LT$T$GT$20offset_from_unsigned17h7cc57c41ec8d9e2fE', symObjAddr: 0x83C, symBinAddr: 0x64D2C, symSize: 0x7C }
  - { offset: 0x177521, size: 0x8, addend: 0x0, symName: '__ZN4core3ptr8non_null16NonNull$LT$T$GT$20offset_from_unsigned17h93379df21bd3320aE', symObjAddr: 0x8B8, symBinAddr: 0x64DA8, symSize: 0x7C }
  - { offset: 0x177638, size: 0x8, addend: 0x0, symName: '__ZN4core3ptr8non_null16NonNull$LT$T$GT$20offset_from_unsigned17h980252b01780de53E', symObjAddr: 0x934, symBinAddr: 0x64E24, symSize: 0x7C }
  - { offset: 0x177742, size: 0x8, addend: 0x0, symName: '__ZN4core3ptr8non_null16NonNull$LT$T$GT$20offset_from_unsigned17h9d9ee763b9f109a6E', symObjAddr: 0x9B0, symBinAddr: 0x64EA0, symSize: 0x7C }
  - { offset: 0x17784C, size: 0x8, addend: 0x0, symName: '__ZN4core3ptr8non_null16NonNull$LT$T$GT$20offset_from_unsigned17haa098887c18039f9E', symObjAddr: 0xA2C, symBinAddr: 0x64F1C, symSize: 0x7C }
  - { offset: 0x177974, size: 0x8, addend: 0x0, symName: '__ZN4core3ptr8non_null16NonNull$LT$T$GT$20offset_from_unsigned17hb12fe4f4a1ceae9cE', symObjAddr: 0xAA8, symBinAddr: 0x64F98, symSize: 0x7C }
  - { offset: 0x177A7E, size: 0x8, addend: 0x0, symName: '__ZN4core3ptr8non_null16NonNull$LT$T$GT$20offset_from_unsigned17hb13edb1c2f872e77E', symObjAddr: 0xB24, symBinAddr: 0x65014, symSize: 0x7C }
  - { offset: 0x177CCC, size: 0x8, addend: 0x0, symName: '__ZN4core3ptr8non_null16NonNull$LT$T$GT$20offset_from_unsigned17hc28b8d51bf0e84d0E', symObjAddr: 0xBA0, symBinAddr: 0x65090, symSize: 0x7C }
  - { offset: 0x177DD6, size: 0x8, addend: 0x0, symName: '__ZN4core3ptr8non_null16NonNull$LT$T$GT$20offset_from_unsigned17hd1e83833cfaf15b9E', symObjAddr: 0xC1C, symBinAddr: 0x6510C, symSize: 0x7C }
  - { offset: 0x177EE0, size: 0x8, addend: 0x0, symName: '__ZN4core3ptr8non_null16NonNull$LT$T$GT$20offset_from_unsigned17he40acab2d99df1e6E', symObjAddr: 0xC98, symBinAddr: 0x65188, symSize: 0x7C }
  - { offset: 0x177FEA, size: 0x8, addend: 0x0, symName: '__ZN4core3ptr8non_null16NonNull$LT$T$GT$20offset_from_unsigned17hea7c581d530f8b7eE', symObjAddr: 0xD14, symBinAddr: 0x65204, symSize: 0x7C }
  - { offset: 0x1780F4, size: 0x8, addend: 0x0, symName: '__ZN4core3ptr8non_null16NonNull$LT$T$GT$20offset_from_unsigned17hed73547f27ef7eb8E', symObjAddr: 0xD90, symBinAddr: 0x65280, symSize: 0x7C }
  - { offset: 0x178242, size: 0x8, addend: 0x0, symName: '__ZN4core3ptr8non_null16NonNull$LT$T$GT$20offset_from_unsigned17hf3099c093dfefe3eE', symObjAddr: 0xE0C, symBinAddr: 0x652FC, symSize: 0x7C }
  - { offset: 0x17834C, size: 0x8, addend: 0x0, symName: '__ZN4core3ptr8non_null16NonNull$LT$T$GT$20offset_from_unsigned17hf30f5afa06b104e9E', symObjAddr: 0xE88, symBinAddr: 0x65378, symSize: 0x7C }
  - { offset: 0x178456, size: 0x8, addend: 0x0, symName: '__ZN4core3ptr8non_null16NonNull$LT$T$GT$20offset_from_unsigned17hfb2284335262d5a2E', symObjAddr: 0xF04, symBinAddr: 0x653F4, symSize: 0x7C }
  - { offset: 0x178560, size: 0x8, addend: 0x0, symName: '__ZN4core3ptr8non_null16NonNull$LT$T$GT$20offset_from_unsigned17hfde5b51370e4e6ebE', symObjAddr: 0xF80, symBinAddr: 0x65470, symSize: 0x7C }
  - { offset: 0x17866A, size: 0x8, addend: 0x0, symName: '__ZN4core3ptr8non_null16NonNull$LT$T$GT$20offset_from_unsigned17hfef30be4cec1643bE', symObjAddr: 0xFFC, symBinAddr: 0x654EC, symSize: 0x7C }
  - { offset: 0x17875C, size: 0x8, addend: 0x0, symName: '__ZN4core5slice29_$LT$impl$u20$$u5b$T$u5d$$GT$3get17h73bce09e6b8626b6E', symObjAddr: 0x0, symBinAddr: 0x65568, symSize: 0x44 }
  - { offset: 0x1788FB, size: 0x8, addend: 0x0, symName: '__ZN4core5slice29_$LT$impl$u20$$u5b$T$u5d$$GT$3get17h73bce09e6b8626b6E', symObjAddr: 0x0, symBinAddr: 0x65568, symSize: 0x44 }
  - { offset: 0x17894A, size: 0x8, addend: 0x0, symName: '__ZN4core5slice29_$LT$impl$u20$$u5b$T$u5d$$GT$4iter17h440f2bf5935cc5ebE', symObjAddr: 0x44, symBinAddr: 0x655AC, symSize: 0x28 }
  - { offset: 0x178FC4, size: 0x8, addend: 0x0, symName: '__ZN5alloc5slice29_$LT$impl$u20$$u5b$T$u5d$$GT$8into_vec17h928804956813bb08E', symObjAddr: 0x6C, symBinAddr: 0x655D4, symSize: 0x4C }
  - { offset: 0x179078, size: 0x8, addend: 0x0, symName: '__ZN87_$LT$T$u20$as$u20$alloc..slice..$LT$impl$u20$$u5b$T$u5d$$GT$..to_vec_in..ConvertVec$GT$6to_vec17he44f512e1afea3d5E', symObjAddr: 0xB8, symBinAddr: 0x65620, symSize: 0x350 }
  - { offset: 0x179C8B, size: 0x8, addend: 0x0, symName: __ZN7managym5agent16behavior_tracker15BehaviorTracker10is_enabled17h74bceaef889791e1E, symObjAddr: 0x0, symBinAddr: 0x65970, symSize: 0x1C }
  - { offset: 0x179D53, size: 0x8, addend: 0x0, symName: __ZN7managym5agent16behavior_tracker15BehaviorTracker10is_enabled17h74bceaef889791e1E, symObjAddr: 0x0, symBinAddr: 0x65970, symSize: 0x1C }
  - { offset: 0x179D82, size: 0x8, addend: 0x0, symName: __ZN7managym5agent16behavior_tracker15BehaviorTracker11on_game_won17h844b24c38723daa5E, symObjAddr: 0x1C, symBinAddr: 0x6598C, symSize: 0x68 }
  - { offset: 0x179DA4, size: 0x8, addend: 0x0, symName: __ZN7managym5agent16behavior_tracker15BehaviorTracker13on_game_start17h18dbf585b843cfd7E, symObjAddr: 0x84, symBinAddr: 0x659F4, symSize: 0x68 }
  - { offset: 0x179DC6, size: 0x8, addend: 0x0, symName: __ZN7managym5agent16behavior_tracker15BehaviorTracker3new17h0044904a0c297da1E, symObjAddr: 0xEC, symBinAddr: 0x65A5C, symSize: 0x1C }
  - { offset: 0x17A393, size: 0x8, addend: 0x0, symName: __ZN7managym5agent16behavior_tracker15BehaviorTracker9get_stats17h812f3a4b32b05723E, symObjAddr: 0x108, symBinAddr: 0x65A78, symSize: 0x1B0 }
  - { offset: 0x17A3E8, size: 0x8, addend: 0x0, symName: __ZN4core4hint16assert_unchecked18precondition_check17h05359271b238388fE, symObjAddr: 0x0, symBinAddr: 0x65C28, symSize: 0x58 }
  - { offset: 0x17A404, size: 0x8, addend: 0x0, symName: __ZN4core4hint16assert_unchecked18precondition_check17h05359271b238388fE, symObjAddr: 0x0, symBinAddr: 0x65C28, symSize: 0x58 }
  - { offset: 0x17A44F, size: 0x8, addend: 0x0, symName: __ZN4core4hint21unreachable_unchecked18precondition_check17hb5149c5b110203d4E, symObjAddr: 0x58, symBinAddr: 0x65C80, symSize: 0x3C }
  - { offset: 0x17A4E3, size: 0x8, addend: 0x0, symName: '__ZN79_$LT$pyo3..types..string..PyString$u20$as$u20$pyo3..type_object..PyTypeInfo$GT$16is_type_of_bound17h6c4f0eed15009889E', symObjAddr: 0x0, symBinAddr: 0x65CBC, symSize: 0x30 }
  - { offset: 0x17B64A, size: 0x8, addend: 0x0, symName: '__ZN79_$LT$pyo3..types..string..PyString$u20$as$u20$pyo3..type_object..PyTypeInfo$GT$16is_type_of_bound17h6c4f0eed15009889E', symObjAddr: 0x0, symBinAddr: 0x65CBC, symSize: 0x30 }
  - { offset: 0x17BC49, size: 0x8, addend: 0x0, symName: __ZN4core4iter6traits8iterator8Iterator7collect17h1cf89ee7bcc5febdE, symObjAddr: 0x0, symBinAddr: 0x65CEC, symSize: 0x14 }
  - { offset: 0x17C4C4, size: 0x8, addend: 0x0, symName: __ZN4core4iter6traits8iterator8Iterator7collect17h1cf89ee7bcc5febdE, symObjAddr: 0x0, symBinAddr: 0x65CEC, symSize: 0x14 }
  - { offset: 0x17C505, size: 0x8, addend: 0x0, symName: __ZN4core4iter6traits8iterator8Iterator7collect17hf463924fd8c06bdaE, symObjAddr: 0x14, symBinAddr: 0x65D00, symSize: 0x14 }
  - { offset: 0x17C595, size: 0x8, addend: 0x0, symName: __ZN4core4iter6traits8iterator8Iterator8for_each17hbcf8d6d7d4e158ebE, symObjAddr: 0x28, symBinAddr: 0x65D14, symSize: 0x34 }
  - { offset: 0x17C601, size: 0x8, addend: 0x0, symName: __ZN4core4iter6traits8iterator8Iterator9enumerate17h4a79054808d73f89E, symObjAddr: 0x5C, symBinAddr: 0x65D48, symSize: 0x38 }
  - { offset: 0x17C65A, size: 0x8, addend: 0x0, symName: '__ZN63_$LT$I$u20$as$u20$core..iter..traits..collect..IntoIterator$GT$9into_iter17hebdd221e2d7c8088E', symObjAddr: 0x94, symBinAddr: 0x65D80, symSize: 0x18 }
  - { offset: 0x17C905, size: 0x8, addend: 0x0, symName: '__ZN99_$LT$core..array..iter..IntoIter$LT$T$C$_$GT$$u20$as$u20$core..iter..traits..iterator..Iterator$GT$4fold17hcdfdceedb105f4ffE', symObjAddr: 0xAC, symBinAddr: 0x65D98, symSize: 0xA0 }
  - { offset: 0x17CA14, size: 0x8, addend: 0x0, symName: '__ZN99_$LT$core..array..iter..IntoIter$LT$T$C$_$GT$$u20$as$u20$core..iter..traits..iterator..Iterator$GT$4next17h49aaebd78545d748E', symObjAddr: 0x14C, symBinAddr: 0x65E38, symSize: 0x2C }
  - { offset: 0x17CA49, size: 0x8, addend: 0x0, symName: '__ZN99_$LT$core..array..iter..IntoIter$LT$T$C$_$GT$$u20$as$u20$core..iter..traits..iterator..Iterator$GT$4next17h5f1715f8ba6bf13dE', symObjAddr: 0x178, symBinAddr: 0x65E64, symSize: 0x2C }
  - { offset: 0x17CA7E, size: 0x8, addend: 0x0, symName: '__ZN99_$LT$core..array..iter..IntoIter$LT$T$C$_$GT$$u20$as$u20$core..iter..traits..iterator..Iterator$GT$4next17hbc07661b5d2c2225E', symObjAddr: 0x1A4, symBinAddr: 0x65E90, symSize: 0x2C }
  - { offset: 0x17CAB3, size: 0x8, addend: 0x0, symName: '__ZN99_$LT$core..array..iter..IntoIter$LT$T$C$_$GT$$u20$as$u20$core..iter..traits..iterator..Iterator$GT$4next17hfa430ff86db4295eE', symObjAddr: 0x1D0, symBinAddr: 0x65EBC, symSize: 0x2C }
  - { offset: 0x17CAE8, size: 0x8, addend: 0x0, symName: '__ZN99_$LT$core..array..iter..IntoIter$LT$T$C$_$GT$$u20$as$u20$core..iter..traits..iterator..Iterator$GT$9size_hint17h3b3ac18b8223a580E', symObjAddr: 0x1FC, symBinAddr: 0x65EE8, symSize: 0x34 }
  - { offset: 0x17E60C, size: 0x8, addend: 0x0, symName: '__ZN106_$LT$core..ops..range..Range$LT$usize$GT$$u20$as$u20$core..slice..index..SliceIndex$LT$$u5b$T$u5d$$GT$$GT$13get_unchecked18precondition_check17h1bb706498e3eb02cE', symObjAddr: 0x0, symBinAddr: 0x65F1C, symSize: 0x80 }
  - { offset: 0x17E632, size: 0x8, addend: 0x0, symName: '__ZN106_$LT$core..ops..range..Range$LT$usize$GT$$u20$as$u20$core..slice..index..SliceIndex$LT$$u5b$T$u5d$$GT$$GT$13get_unchecked18precondition_check17h1bb706498e3eb02cE', symObjAddr: 0x0, symBinAddr: 0x65F1C, symSize: 0x80 }
  - { offset: 0x17E699, size: 0x8, addend: 0x0, symName: '__ZN106_$LT$core..ops..range..Range$LT$usize$GT$$u20$as$u20$core..slice..index..SliceIndex$LT$$u5b$T$u5d$$GT$$GT$17get_unchecked_mut18precondition_check17h1e3228f2e086a649E', symObjAddr: 0x80, symBinAddr: 0x65F9C, symSize: 0x80 }
  - { offset: 0x17E706, size: 0x8, addend: 0x0, symName: '__ZN75_$LT$usize$u20$as$u20$core..slice..index..SliceIndex$LT$$u5b$T$u5d$$GT$$GT$13get_unchecked18precondition_check17hcc520879a8c96207E', symObjAddr: 0x100, symBinAddr: 0x6601C, symSize: 0x60 }
  - { offset: 0x17E75F, size: 0x8, addend: 0x0, symName: '__ZN75_$LT$usize$u20$as$u20$core..slice..index..SliceIndex$LT$$u5b$T$u5d$$GT$$GT$17get_unchecked_mut18precondition_check17ha50b46194a282ec3E', symObjAddr: 0x160, symBinAddr: 0x6607C, symSize: 0x60 }
  - { offset: 0x17E80A, size: 0x8, addend: 0x0, symName: '__ZN4core3fmt3num52_$LT$impl$u20$core..fmt..Debug$u20$for$u20$usize$GT$3fmt17h2207dc5074021665E', symObjAddr: 0x0, symBinAddr: 0x660DC, symSize: 0x90 }
  - { offset: 0x17E8A5, size: 0x8, addend: 0x0, symName: '__ZN4core3fmt3num52_$LT$impl$u20$core..fmt..Debug$u20$for$u20$usize$GT$3fmt17h2207dc5074021665E', symObjAddr: 0x0, symBinAddr: 0x660DC, symSize: 0x90 }
  - { offset: 0x17EA8F, size: 0x8, addend: 0x0, symName: __ZN4core3ptr12align_offset7mod_inv17h4b4694e90f813373E, symObjAddr: 0x0, symBinAddr: 0x6616C, symSize: 0x104 }
  - { offset: 0x17EAAB, size: 0x8, addend: 0x0, symName: __ZN4core3ptr12align_offset7mod_inv17h4b4694e90f813373E, symObjAddr: 0x0, symBinAddr: 0x6616C, symSize: 0x104 }
  - { offset: 0x17EB66, size: 0x8, addend: 0x0, symName: __ZN4core3ptr19copy_nonoverlapping18precondition_check17hebd88a8ac5e7c24bE, symObjAddr: 0x104, symBinAddr: 0x66270, symSize: 0x168 }
  - { offset: 0x17ED20, size: 0x8, addend: 0x0, symName: __ZN4core3ptr4copy18precondition_check17hee3dbbffd2e48671E, symObjAddr: 0x5CC, symBinAddr: 0x663D8, symSize: 0x130 }
  - { offset: 0x17F03A, size: 0x8, addend: 0x0, symName: '__ZN7managym6python19vector_env_bindings218_$LT$impl$u20$pyo3..impl_..pyclass..PyMethods$LT$managym..python..vector_env_bindings..PyVectorEnv$GT$$u20$for$u20$pyo3..impl_..pyclass..PyClassImplCollector$LT$managym..python..vector_env_bindings..PyVectorEnv$GT$$GT$10py_methods17he72a519d4312bb37E', symObjAddr: 0x0, symBinAddr: 0x66508, symSize: 0x14 }
  - { offset: 0x182E67, size: 0x8, addend: 0x0, symName: '__ZN7managym6python8bindings184_$LT$impl$u20$pyo3..impl_..pyclass..PyMethods$LT$managym..python..bindings..PyEnv$GT$$u20$for$u20$pyo3..impl_..pyclass..PyClassImplCollector$LT$managym..python..bindings..PyEnv$GT$$GT$10py_methods17hfd258e770b2bfaa6E', symObjAddr: 0x30, symBinAddr: 0x66538, symSize: 0x14 }
  - { offset: 0x182EB5, size: 0x8, addend: 0x0, symName: '__ZN7managym6python8bindings184_$LT$impl$u20$pyo3..impl_..pyclass..PyMethods$LT$managym..python..bindings..PyEnv$GT$$u20$for$u20$pyo3..impl_..pyclass..PyClassImplCollector$LT$managym..python..bindings..PyEnv$GT$$GT$10py_methods5ITEMS10trampoline198_$LT$impl$u20$pyo3..impl_..pyclass..PyClassNewTextSignature$LT$managym..python..bindings..PyEnv$GT$$u20$for$u20$pyo3..impl_..pyclass..PyClassImplCollector$LT$managym..python..bindings..PyEnv$GT$$GT$18new_text_signature17h1cb94fe0129ba252E', symObjAddr: 0x44, symBinAddr: 0x6654C, symSize: 0x1C }
  - { offset: 0x182EF9, size: 0x8, addend: 0x0, symName: '__ZN7managym6python8bindings190_$LT$impl$u20$pyo3..impl_..pyclass..PyMethods$LT$managym..python..bindings..StepEnum$GT$$u20$for$u20$pyo3..impl_..pyclass..PyClassImplCollector$LT$managym..python..bindings..StepEnum$GT$$GT$10py_methods17hc66088344e9614cdE', symObjAddr: 0x60, symBinAddr: 0x66568, symSize: 0x14 }
  - { offset: 0x182F39, size: 0x8, addend: 0x0, symName: '__ZN7managym6python8bindings190_$LT$impl$u20$pyo3..impl_..pyclass..PyMethods$LT$managym..python..bindings..ZoneEnum$GT$$u20$for$u20$pyo3..impl_..pyclass..PyClassImplCollector$LT$managym..python..bindings..ZoneEnum$GT$$GT$10py_methods17h2c07e93421396fb3E', symObjAddr: 0x74, symBinAddr: 0x6657C, symSize: 0x14 }
  - { offset: 0x182F76, size: 0x8, addend: 0x0, symName: '__ZN7managym6python8bindings192_$LT$impl$u20$pyo3..impl_..pyclass..PyMethods$LT$managym..python..bindings..PhaseEnum$GT$$u20$for$u20$pyo3..impl_..pyclass..PyClassImplCollector$LT$managym..python..bindings..PhaseEnum$GT$$GT$10py_methods17hdb90b5005f7338aeE', symObjAddr: 0x88, symBinAddr: 0x66590, symSize: 0x14 }
  - { offset: 0x182FB6, size: 0x8, addend: 0x0, symName: '__ZN7managym6python8bindings194_$LT$impl$u20$pyo3..impl_..pyclass..PyMethods$LT$managym..python..bindings..ActionEnum$GT$$u20$for$u20$pyo3..impl_..pyclass..PyClassImplCollector$LT$managym..python..bindings..ActionEnum$GT$$GT$10py_methods17h59b18061f4fe1262E', symObjAddr: 0x9C, symBinAddr: 0x665A4, symSize: 0x14 }
  - { offset: 0x182FF6, size: 0x8, addend: 0x0, symName: '__ZN7managym6python8bindings200_$LT$impl$u20$pyo3..impl_..pyclass..PyMethods$LT$managym..python..bindings..PyObservation$GT$$u20$for$u20$pyo3..impl_..pyclass..PyClassImplCollector$LT$managym..python..bindings..PyObservation$GT$$GT$10py_methods17hcbe4cf45737b169aE', symObjAddr: 0xB0, symBinAddr: 0x665B8, symSize: 0x14 }
  - { offset: 0x183036, size: 0x8, addend: 0x0, symName: '__ZN7managym6python8bindings202_$LT$impl$u20$pyo3..impl_..pyclass..PyMethods$LT$managym..python..bindings..PyPlayerConfig$GT$$u20$for$u20$pyo3..impl_..pyclass..PyClassImplCollector$LT$managym..python..bindings..PyPlayerConfig$GT$$GT$10py_methods17h91624a4837ad7769E', symObjAddr: 0xC4, symBinAddr: 0x665CC, symSize: 0x14 }
  - { offset: 0x183084, size: 0x8, addend: 0x0, symName: '__ZN7managym6python8bindings202_$LT$impl$u20$pyo3..impl_..pyclass..PyMethods$LT$managym..python..bindings..PyPlayerConfig$GT$$u20$for$u20$pyo3..impl_..pyclass..PyClassImplCollector$LT$managym..python..bindings..PyPlayerConfig$GT$$GT$10py_methods5ITEMS10trampoline216_$LT$impl$u20$pyo3..impl_..pyclass..PyClassNewTextSignature$LT$managym..python..bindings..PyPlayerConfig$GT$$u20$for$u20$pyo3..impl_..pyclass..PyClassImplCollector$LT$managym..python..bindings..PyPlayerConfig$GT$$GT$18new_text_signature17h9d5ed0c3a1ee3b1aE', symObjAddr: 0xD8, symBinAddr: 0x665E0, symSize: 0x1C }
  - { offset: 0x1830C8, size: 0x8, addend: 0x0, symName: '__ZN7managym6python8bindings204_$LT$impl$u20$pyo3..impl_..pyclass..PyMethods$LT$managym..python..bindings..ActionSpaceEnum$GT$$u20$for$u20$pyo3..impl_..pyclass..PyClassImplCollector$LT$managym..python..bindings..ActionSpaceEnum$GT$$GT$10py_methods17haef5f846c819e073E', symObjAddr: 0xF4, symBinAddr: 0x665FC, symSize: 0x14 }
  - { offset: 0x183108, size: 0x8, addend: 0x0, symName: '__ZN7managym6python8bindings212_$LT$impl$u20$pyo3..impl_..pyclass..PyMethods$LT$managym..python..bindings..StackObjectKindEnum$GT$$u20$for$u20$pyo3..impl_..pyclass..PyClassImplCollector$LT$managym..python..bindings..StackObjectKindEnum$GT$$GT$10py_methods17hd4cc313215fa830aE', symObjAddr: 0x108, symBinAddr: 0x66610, symSize: 0x14 }
  - { offset: 0x183148, size: 0x8, addend: 0x0, symName: '__ZN7managym6python8bindings212_$LT$impl$u20$pyo3..impl_..pyclass..PyMethods$LT$managym..python..bindings..StackTargetKindEnum$GT$$u20$for$u20$pyo3..impl_..pyclass..PyClassImplCollector$LT$managym..python..bindings..StackTargetKindEnum$GT$$GT$10py_methods17he6c2b526964af481E', symObjAddr: 0x11C, symBinAddr: 0x66624, symSize: 0x14 }
  - { offset: 0x1835D1, size: 0x8, addend: 0x0, symName: '__ZN7managym6python19vector_env_bindings218_$LT$impl$u20$pyo3..impl_..pyclass..PyMethods$LT$managym..python..vector_env_bindings..PyVectorEnv$GT$$u20$for$u20$pyo3..impl_..pyclass..PyClassImplCollector$LT$managym..python..vector_env_bindings..PyVectorEnv$GT$$GT$10py_methods17he72a519d4312bb37E', symObjAddr: 0x0, symBinAddr: 0x66508, symSize: 0x14 }
  - { offset: 0x18361C, size: 0x8, addend: 0x0, symName: '__ZN7managym6python19vector_env_bindings218_$LT$impl$u20$pyo3..impl_..pyclass..PyMethods$LT$managym..python..vector_env_bindings..PyVectorEnv$GT$$u20$for$u20$pyo3..impl_..pyclass..PyClassImplCollector$LT$managym..python..vector_env_bindings..PyVectorEnv$GT$$GT$10py_methods5ITEMS10trampoline232_$LT$impl$u20$pyo3..impl_..pyclass..PyClassNewTextSignature$LT$managym..python..vector_env_bindings..PyVectorEnv$GT$$u20$for$u20$pyo3..impl_..pyclass..PyClassImplCollector$LT$managym..python..vector_env_bindings..PyVectorEnv$GT$$GT$18new_text_signature17h9258b0f88a766102E', symObjAddr: 0x14, symBinAddr: 0x6651C, symSize: 0x1C }
  - { offset: 0x1860B6, size: 0x8, addend: 0x0, symName: '__ZN4core3mem13manually_drop21ManuallyDrop$LT$T$GT$4drop17h19d8c8c479721482E', symObjAddr: 0x0, symBinAddr: 0x66638, symSize: 0x10 }
  - { offset: 0x18A99C, size: 0x8, addend: 0x0, symName: '__ZN4core3mem13manually_drop21ManuallyDrop$LT$T$GT$4drop17h19d8c8c479721482E', symObjAddr: 0x0, symBinAddr: 0x66638, symSize: 0x10 }
  - { offset: 0x18A9DB, size: 0x8, addend: 0x0, symName: '__ZN4core3mem13manually_drop21ManuallyDrop$LT$T$GT$4drop17h20298058e7fc1f6bE', symObjAddr: 0x10, symBinAddr: 0x66648, symSize: 0x10 }
  - { offset: 0x18BEBC, size: 0x8, addend: 0x0, symName: '__ZN4core3mem13manually_drop21ManuallyDrop$LT$T$GT$4drop17h433c568a3731f76bE', symObjAddr: 0x20, symBinAddr: 0x66658, symSize: 0x24 }
  - { offset: 0x18BEF4, size: 0x8, addend: 0x0, symName: '__ZN4core3mem13manually_drop21ManuallyDrop$LT$T$GT$4drop17h451006779d46260eE', symObjAddr: 0x44, symBinAddr: 0x6667C, symSize: 0x10 }
  - { offset: 0x18CA23, size: 0x8, addend: 0x0, symName: '__ZN4core3mem13manually_drop21ManuallyDrop$LT$T$GT$4drop17h57516440f1510acdE', symObjAddr: 0x54, symBinAddr: 0x6668C, symSize: 0x24 }
  - { offset: 0x18CA5B, size: 0x8, addend: 0x0, symName: '__ZN4core3mem13manually_drop21ManuallyDrop$LT$T$GT$4drop17h66e49ee643987d6fE', symObjAddr: 0x78, symBinAddr: 0x666B0, symSize: 0x24 }
  - { offset: 0x18CA93, size: 0x8, addend: 0x0, symName: '__ZN4core3mem13manually_drop21ManuallyDrop$LT$T$GT$4drop17h672b5ee474375a62E', symObjAddr: 0x9C, symBinAddr: 0x666D4, symSize: 0x10 }
  - { offset: 0x18CACB, size: 0x8, addend: 0x0, symName: '__ZN4core3mem13manually_drop21ManuallyDrop$LT$T$GT$4drop17h74739d8c23d7b62eE', symObjAddr: 0xAC, symBinAddr: 0x666E4, symSize: 0x10 }
  - { offset: 0x18CBD2, size: 0x8, addend: 0x0, symName: '__ZN4core3mem13manually_drop21ManuallyDrop$LT$T$GT$4drop17h7d27fcf36c954c66E', symObjAddr: 0xBC, symBinAddr: 0x666F4, symSize: 0x24 }
  - { offset: 0x18CC0A, size: 0x8, addend: 0x0, symName: '__ZN4core3mem13manually_drop21ManuallyDrop$LT$T$GT$4drop17h815ff16c9961210eE', symObjAddr: 0xE0, symBinAddr: 0x66718, symSize: 0x24 }
  - { offset: 0x18CC42, size: 0x8, addend: 0x0, symName: '__ZN4core3mem13manually_drop21ManuallyDrop$LT$T$GT$4drop17h84f862b3c862f1abE', symObjAddr: 0x104, symBinAddr: 0x6673C, symSize: 0x24 }
  - { offset: 0x18CC7A, size: 0x8, addend: 0x0, symName: '__ZN4core3mem13manually_drop21ManuallyDrop$LT$T$GT$4drop17h876912e9ddd9d2e9E', symObjAddr: 0x128, symBinAddr: 0x66760, symSize: 0x10 }
  - { offset: 0x18CCB2, size: 0x8, addend: 0x0, symName: '__ZN4core3mem13manually_drop21ManuallyDrop$LT$T$GT$4drop17h8cdfa5e8d7dc818eE', symObjAddr: 0x138, symBinAddr: 0x66770, symSize: 0x24 }
  - { offset: 0x18CCEA, size: 0x8, addend: 0x0, symName: '__ZN4core3mem13manually_drop21ManuallyDrop$LT$T$GT$4drop17h8df659b09b30ec98E', symObjAddr: 0x15C, symBinAddr: 0x66794, symSize: 0x24 }
  - { offset: 0x18CD22, size: 0x8, addend: 0x0, symName: '__ZN4core3mem13manually_drop21ManuallyDrop$LT$T$GT$4drop17ha810f764fe6de8c3E', symObjAddr: 0x180, symBinAddr: 0x667B8, symSize: 0x10 }
  - { offset: 0x18CD5A, size: 0x8, addend: 0x0, symName: '__ZN4core3mem13manually_drop21ManuallyDrop$LT$T$GT$4drop17ha9ac0112fac6c0c1E', symObjAddr: 0x190, symBinAddr: 0x667C8, symSize: 0x24 }
  - { offset: 0x18CD92, size: 0x8, addend: 0x0, symName: '__ZN4core3mem13manually_drop21ManuallyDrop$LT$T$GT$4drop17hcf67ca0d6233e9a0E', symObjAddr: 0x1B4, symBinAddr: 0x667EC, symSize: 0x10 }
  - { offset: 0x18CDCA, size: 0x8, addend: 0x0, symName: '__ZN4core3mem13manually_drop21ManuallyDrop$LT$T$GT$4drop17hd48cab161ac9c685E', symObjAddr: 0x1C4, symBinAddr: 0x667FC, symSize: 0x10 }
  - { offset: 0x18CE02, size: 0x8, addend: 0x0, symName: '__ZN4core3mem13manually_drop21ManuallyDrop$LT$T$GT$4drop17he09d98299c94e9acE', symObjAddr: 0x1D4, symBinAddr: 0x6680C, symSize: 0x24 }
  - { offset: 0x18CE3A, size: 0x8, addend: 0x0, symName: '__ZN4core3mem13manually_drop21ManuallyDrop$LT$T$GT$4drop17he9d9a4d9cc537183E', symObjAddr: 0x1F8, symBinAddr: 0x66830, symSize: 0x10 }
  - { offset: 0x18CE72, size: 0x8, addend: 0x0, symName: '__ZN4core3mem13manually_drop21ManuallyDrop$LT$T$GT$4drop17hf60e750086282b3bE', symObjAddr: 0x208, symBinAddr: 0x66840, symSize: 0x10 }
  - { offset: 0x18CEAA, size: 0x8, addend: 0x0, symName: '__ZN4core3mem13manually_drop21ManuallyDrop$LT$T$GT$4drop17hffc394289c95115fE', symObjAddr: 0x218, symBinAddr: 0x66850, symSize: 0x10 }
  - { offset: 0x18CEF3, size: 0x8, addend: 0x0, symName: __ZN9hashbrown3raw11TableLayout20calculate_layout_for17h57cab720f6e97eb4E, symObjAddr: 0x0, symBinAddr: 0x66860, symSize: 0x220 }
  - { offset: 0x18E4E9, size: 0x8, addend: 0x0, symName: __ZN9hashbrown3raw11TableLayout20calculate_layout_for17h57cab720f6e97eb4E, symObjAddr: 0x0, symBinAddr: 0x66860, symSize: 0x220 }
  - { offset: 0x18E9C7, size: 0x8, addend: 0x0, symName: __ZN9hashbrown3raw13RawTableInner15rehash_in_place17haa8b4c259d67ebebE, symObjAddr: 0x220, symBinAddr: 0x66A80, symSize: 0x408 }
  - { offset: 0x18F229, size: 0x8, addend: 0x0, symName: __ZN9hashbrown3raw13RawTableInner16fix_insert_index17h97c975197d4ba119E, symObjAddr: 0x628, symBinAddr: 0x66E88, symSize: 0x100 }
  - { offset: 0x18F49B, size: 0x8, addend: 0x0, symName: __ZN9hashbrown3raw13RawTableInner17find_insert_index17hecec1aba2177affeE, symObjAddr: 0x728, symBinAddr: 0x66F88, symSize: 0xFC }
  - { offset: 0x18F7A0, size: 0x8, addend: 0x0, symName: __ZN9hashbrown3raw13RawTableInner23prepare_rehash_in_place17hfed04282c644169aE, symObjAddr: 0x824, symBinAddr: 0x67084, symSize: 0x204 }
  - { offset: 0x18FD96, size: 0x8, addend: 0x0, symName: __ZN9hashbrown3raw13RawTableInner26find_insert_index_in_group17ha918ed95cdb26646E, symObjAddr: 0xA28, symBinAddr: 0x67288, symSize: 0x120 }
  - { offset: 0x190053, size: 0x8, addend: 0x0, symName: __ZN9hashbrown3raw13RawTableInner31find_or_find_insert_index_inner17h2f3d51ceee71baa1E, symObjAddr: 0xB48, symBinAddr: 0x673A8, symSize: 0x2A0 }
  - { offset: 0x1903FF, size: 0x8, addend: 0x0, symName: '__ZN4core5slice29_$LT$impl$u20$$u5b$T$u5d$$GT$4iter17h407d4c014c081eb9E', symObjAddr: 0x0, symBinAddr: 0x67648, symSize: 0x28 }
  - { offset: 0x190FAB, size: 0x8, addend: 0x0, symName: '__ZN7managym5agent10vector_env9VectorEnv3new28_$u7b$$u7b$closure$u7d$$u7d$17h5e4a4d6c871d5fc8E', symObjAddr: 0x28, symBinAddr: 0x67670, symSize: 0x6C }
  - { offset: 0x191020, size: 0x8, addend: 0x0, symName: '__ZN7managym5agent10vector_env9VectorEnv3new28_$u7b$$u7b$closure$u7d$$u7d$17hcd1fc11b020d3c80E', symObjAddr: 0x94, symBinAddr: 0x676DC, symSize: 0x40 }
  - { offset: 0x191088, size: 0x8, addend: 0x0, symName: '__ZN7managym5agent10vector_env9VectorEnv9reset_env28_$u7b$$u7b$closure$u7d$$u7d$17hb9c6d5294ef752e1E', symObjAddr: 0xD4, symBinAddr: 0x6771C, symSize: 0x78 }
  - { offset: 0x191D17, size: 0x8, addend: 0x0, symName: '__ZN4core5slice29_$LT$impl$u20$$u5b$T$u5d$$GT$4iter17h407d4c014c081eb9E', symObjAddr: 0x0, symBinAddr: 0x67648, symSize: 0x28 }
  - { offset: 0x194C23, size: 0x8, addend: 0x0, symName: '__ZN42_$LT$$RF$T$u20$as$u20$core..fmt..Debug$GT$3fmt17h37b5440833da8db2E', symObjAddr: 0x0, symBinAddr: 0x67794, symSize: 0x3C }
  - { offset: 0x194C3F, size: 0x8, addend: 0x0, symName: '__ZN42_$LT$$RF$T$u20$as$u20$core..fmt..Debug$GT$3fmt17h37b5440833da8db2E', symObjAddr: 0x0, symBinAddr: 0x67794, symSize: 0x3C }
  - { offset: 0x194C8B, size: 0x8, addend: 0x0, symName: '__ZN48_$LT$$u5b$T$u5d$$u20$as$u20$core..fmt..Debug$GT$3fmt17h8703d9f39dfdf3aaE', symObjAddr: 0x3C, symBinAddr: 0x677D0, symSize: 0x88 }
  - { offset: 0x19557E, size: 0x8, addend: 0x0, symName: __ZN4core3fmt9Arguments3new17h079b8a8acbd7d585E, symObjAddr: 0xC4, symBinAddr: 0x67858, symSize: 0x1C }
  - { offset: 0x1955CA, size: 0x8, addend: 0x0, symName: __ZN4core3fmt9Arguments3new17h1bbd95a9220bf378E, symObjAddr: 0xE0, symBinAddr: 0x67874, symSize: 0x1C }
  - { offset: 0x195616, size: 0x8, addend: 0x0, symName: __ZN4core3fmt9Arguments3new17h1daa57f7ffffba82E, symObjAddr: 0xFC, symBinAddr: 0x67890, symSize: 0x1C }
  - { offset: 0x195662, size: 0x8, addend: 0x0, symName: __ZN4core3fmt9Arguments3new17h296742946b776ba3E, symObjAddr: 0x118, symBinAddr: 0x678AC, symSize: 0x1C }
  - { offset: 0x1956AE, size: 0x8, addend: 0x0, symName: __ZN4core3fmt9Arguments3new17h29f6b04a48966398E, symObjAddr: 0x134, symBinAddr: 0x678C8, symSize: 0x1C }
  - { offset: 0x1956FA, size: 0x8, addend: 0x0, symName: __ZN4core3fmt9Arguments3new17h3853df9646671b01E, symObjAddr: 0x150, symBinAddr: 0x678E4, symSize: 0x1C }
  - { offset: 0x195760, size: 0x8, addend: 0x0, symName: __ZN4core3fmt9Arguments3new17h48c0c8eb8873a932E, symObjAddr: 0x16C, symBinAddr: 0x67900, symSize: 0x1C }
  - { offset: 0x1957AC, size: 0x8, addend: 0x0, symName: __ZN4core3fmt9Arguments3new17h48fd45cc1ceae29aE, symObjAddr: 0x188, symBinAddr: 0x6791C, symSize: 0x1C }
  - { offset: 0x1957F8, size: 0x8, addend: 0x0, symName: __ZN4core3fmt9Arguments3new17h555dff490d60ea30E, symObjAddr: 0x1A4, symBinAddr: 0x67938, symSize: 0x1C }
  - { offset: 0x19585E, size: 0x8, addend: 0x0, symName: __ZN4core3fmt9Arguments3new17h5bf6c3dadd70c5e3E, symObjAddr: 0x1C0, symBinAddr: 0x67954, symSize: 0x1C }
  - { offset: 0x1958AA, size: 0x8, addend: 0x0, symName: __ZN4core3fmt9Arguments3new17h9871e529015ce5a7E, symObjAddr: 0x1DC, symBinAddr: 0x67970, symSize: 0x1C }
  - { offset: 0x1958F6, size: 0x8, addend: 0x0, symName: __ZN4core3fmt9Arguments3new17ha446a5f0d9688400E, symObjAddr: 0x1F8, symBinAddr: 0x6798C, symSize: 0x1C }
  - { offset: 0x195942, size: 0x8, addend: 0x0, symName: __ZN4core3fmt9Arguments3new17ha5f1b0da77014a05E, symObjAddr: 0x214, symBinAddr: 0x679A8, symSize: 0x1C }
  - { offset: 0x19598E, size: 0x8, addend: 0x0, symName: __ZN4core3fmt9Arguments3new17hace7636ef4e35b41E, symObjAddr: 0x230, symBinAddr: 0x679C4, symSize: 0x1C }
  - { offset: 0x1959DA, size: 0x8, addend: 0x0, symName: __ZN4core3fmt9Arguments3new17hadbe729ff63f9adeE, symObjAddr: 0x24C, symBinAddr: 0x679E0, symSize: 0x1C }
  - { offset: 0x195A40, size: 0x8, addend: 0x0, symName: __ZN4core3fmt9Arguments3new17hbc15f5cdbf29b4aaE, symObjAddr: 0x268, symBinAddr: 0x679FC, symSize: 0x1C }
  - { offset: 0x195A8C, size: 0x8, addend: 0x0, symName: __ZN4core3fmt9Arguments3new17hca0e7bc1b5c6eed3E, symObjAddr: 0x284, symBinAddr: 0x67A18, symSize: 0x1C }
  - { offset: 0x195AD8, size: 0x8, addend: 0x0, symName: __ZN4core3fmt9Arguments3new17hd45af7d43866839dE, symObjAddr: 0x2A0, symBinAddr: 0x67A34, symSize: 0x1C }
  - { offset: 0x195B24, size: 0x8, addend: 0x0, symName: __ZN4core3fmt9Arguments3new17hee53fdf8ca2c65b1E, symObjAddr: 0x2BC, symBinAddr: 0x67A50, symSize: 0x1C }
  - { offset: 0x195B81, size: 0x8, addend: 0x0, symName: __ZN4core3fmt8builders9DebugList7entries17ha377d6427068ad77E, symObjAddr: 0x0, symBinAddr: 0x67A6C, symSize: 0xD0 }
  - { offset: 0x195E1C, size: 0x8, addend: 0x0, symName: __ZN4core3fmt8builders9DebugList7entries17ha377d6427068ad77E, symObjAddr: 0x0, symBinAddr: 0x67A6C, symSize: 0xD0 }
  - { offset: 0x195EB2, size: 0x8, addend: 0x0, symName: __ZN9hashbrown7control5group4neon5Group10match_full17hedbef62a24c74a6fE, symObjAddr: 0x0, symBinAddr: 0x67B3C, symSize: 0x68 }
  - { offset: 0x195FCA, size: 0x8, addend: 0x0, symName: __ZN9hashbrown7control5group4neon5Group10match_full17hedbef62a24c74a6fE, symObjAddr: 0x0, symBinAddr: 0x67B3C, symSize: 0x68 }
  - { offset: 0x196002, size: 0x8, addend: 0x0, symName: __ZN9hashbrown7control5group4neon5Group22match_empty_or_deleted17h99e54d2e4af8c156E, symObjAddr: 0x68, symBinAddr: 0x67BA4, symSize: 0x68 }
  - { offset: 0x19603A, size: 0x8, addend: 0x0, symName: __ZN9hashbrown7control5group4neon5Group44convert_special_to_empty_and_full_to_deleted17h9a20b47f5e957edcE, symObjAddr: 0xD0, symBinAddr: 0x67C0C, symSize: 0x88 }
  - { offset: 0x196072, size: 0x8, addend: 0x0, symName: __ZN9hashbrown7control5group4neon5Group9match_tag17h27fada83f273d1bbE, symObjAddr: 0x158, symBinAddr: 0x67C94, symSize: 0x7C }
  - { offset: 0x1960DE, size: 0x8, addend: 0x0, symName: __ZN4core4char7convert18from_u32_unchecked18precondition_check17h5ac4bf04f004ed49E, symObjAddr: 0x0, symBinAddr: 0x67D10, symSize: 0x7C }
  - { offset: 0x196167, size: 0x8, addend: 0x0, symName: __ZN4core4char7convert18from_u32_unchecked18precondition_check17h5ac4bf04f004ed49E, symObjAddr: 0x0, symBinAddr: 0x67D10, symSize: 0x7C }
  - { offset: 0x1962DA, size: 0x8, addend: 0x0, symName: '__ZN4core3cmp5impls47_$LT$impl$u20$core..cmp..Ord$u20$for$u20$u8$GT$3cmp17h0b23f394bf8f6ec3E', symObjAddr: 0x0, symBinAddr: 0x67D8C, symSize: 0x3C }
  - { offset: 0x196319, size: 0x8, addend: 0x0, symName: '__ZN4core3cmp5impls47_$LT$impl$u20$core..cmp..Ord$u20$for$u20$u8$GT$3cmp17h0b23f394bf8f6ec3E', symObjAddr: 0x0, symBinAddr: 0x67D8C, symSize: 0x3C }
  - { offset: 0x19635C, size: 0x8, addend: 0x0, symName: '__ZN4core3cmp5impls48_$LT$impl$u20$core..cmp..Ord$u20$for$u20$u64$GT$3cmp17h9f22d330db66e4e8E', symObjAddr: 0x3C, symBinAddr: 0x67DC8, symSize: 0x38 }
  - { offset: 0x19639F, size: 0x8, addend: 0x0, symName: '__ZN4core3cmp5impls50_$LT$impl$u20$core..cmp..Ord$u20$for$u20$isize$GT$3cmp17h68284c3efb9e95f1E', symObjAddr: 0x74, symBinAddr: 0x67E00, symSize: 0x38 }
  - { offset: 0x1963E2, size: 0x8, addend: 0x0, symName: '__ZN4core3cmp5impls50_$LT$impl$u20$core..cmp..Ord$u20$for$u20$usize$GT$3cmp17h7f768104b521470bE', symObjAddr: 0xAC, symBinAddr: 0x67E38, symSize: 0x38 }
  - { offset: 0x196425, size: 0x8, addend: 0x0, symName: '__ZN4core3cmp5impls54_$LT$impl$u20$core..cmp..PartialEq$u20$for$u20$i32$GT$2eq17h275713bb570ea3d1E', symObjAddr: 0xE4, symBinAddr: 0x67E70, symSize: 0x2C }
  - { offset: 0x196468, size: 0x8, addend: 0x0, symName: '__ZN4core3cmp5impls57_$LT$impl$u20$core..cmp..PartialOrd$u20$for$u20$isize$GT$11partial_cmp17hd0941e55ce3f68fbE', symObjAddr: 0x110, symBinAddr: 0x67E9C, symSize: 0x38 }
  - { offset: 0x1965A0, size: 0x8, addend: 0x0, symName: __ZN8pyo3_ffi7pystate17PyThreadState_GET17hee6a5f8694c48cecE, symObjAddr: 0x0, symBinAddr: 0x67ED4, symSize: 0x14 }
  - { offset: 0x1965B7, size: 0x8, addend: 0x0, symName: __ZN8pyo3_ffi7pystate17PyThreadState_GET17hee6a5f8694c48cecE, symObjAddr: 0x0, symBinAddr: 0x67ED4, symSize: 0x14 }
  - { offset: 0x196631, size: 0x8, addend: 0x0, symName: '__ZN100_$LT$pyo3..types..tuple..BorrowedTupleIterator$u20$as$u20$core..iter..traits..iterator..Iterator$GT$4next17h6f7c8f86cfbeb8bdE', symObjAddr: 0x0, symBinAddr: 0x67EE8, symSize: 0x9C }
  - { offset: 0x197805, size: 0x8, addend: 0x0, symName: '__ZN100_$LT$pyo3..types..tuple..BorrowedTupleIterator$u20$as$u20$core..iter..traits..iterator..Iterator$GT$4next17h6f7c8f86cfbeb8bdE', symObjAddr: 0x0, symBinAddr: 0x67EE8, symSize: 0x9C }
  - { offset: 0x197EDB, size: 0x8, addend: 0x0, symName: '__ZN82_$LT$serde_json..value..ser..Serializer$u20$as$u20$serde_core..ser..Serializer$GT$13serialize_f6417h399fa45c4fd0de65E', symObjAddr: 0x0, symBinAddr: 0x67F84, symSize: 0x3C }
  - { offset: 0x198161, size: 0x8, addend: 0x0, symName: '__ZN82_$LT$serde_json..value..ser..Serializer$u20$as$u20$serde_core..ser..Serializer$GT$13serialize_f6417h399fa45c4fd0de65E', symObjAddr: 0x0, symBinAddr: 0x67F84, symSize: 0x3C }
  - { offset: 0x1981A6, size: 0x8, addend: 0x0, symName: '__ZN82_$LT$serde_json..value..ser..Serializer$u20$as$u20$serde_core..ser..Serializer$GT$13serialize_i3217hd09b0890a567420bE', symObjAddr: 0x3C, symBinAddr: 0x67FC0, symSize: 0x28 }
  - { offset: 0x1981EB, size: 0x8, addend: 0x0, symName: '__ZN82_$LT$serde_json..value..ser..Serializer$u20$as$u20$serde_core..ser..Serializer$GT$13serialize_str17h461803a1fa47f0e1E', symObjAddr: 0x64, symBinAddr: 0x67FE8, symSize: 0x60 }
  - { offset: 0x198230, size: 0x8, addend: 0x0, symName: '__ZN82_$LT$serde_json..value..ser..Serializer$u20$as$u20$serde_core..ser..Serializer$GT$13serialize_u6417hdb465598c86e1298E', symObjAddr: 0xC4, symBinAddr: 0x68048, symSize: 0x58 }
  - { offset: 0x198275, size: 0x8, addend: 0x0, symName: '__ZN82_$LT$serde_json..value..ser..Serializer$u20$as$u20$serde_core..ser..Serializer$GT$14serialize_bool17h3fd421d259b0580dE', symObjAddr: 0x11C, symBinAddr: 0x680A0, symSize: 0x2C }
  - { offset: 0x1982BA, size: 0x8, addend: 0x0, symName: '__ZN82_$LT$serde_json..value..ser..Serializer$u20$as$u20$serde_core..ser..Serializer$GT$14serialize_none17h4ec3671bfb9bd25bE', symObjAddr: 0x148, symBinAddr: 0x680CC, symSize: 0x1C }
  - { offset: 0x1982F1, size: 0x8, addend: 0x0, symName: '__ZN82_$LT$serde_json..value..ser..Serializer$u20$as$u20$serde_core..ser..Serializer$GT$14serialize_unit17h5912df3a0c76dc9aE', symObjAddr: 0x164, symBinAddr: 0x680E8, symSize: 0x20 }
  - { offset: 0x19832E, size: 0x8, addend: 0x0, symName: '__ZN88_$LT$serde_json..value..ser..MapKeySerializer$u20$as$u20$serde_core..ser..Serializer$GT$13serialize_str17hf87a41d9b39ba24cE', symObjAddr: 0x184, symBinAddr: 0x68108, symSize: 0x44 }
  - { offset: 0x199077, size: 0x8, addend: 0x0, symName: '__ZN78_$LT$$u5b$i32$u5d$$u20$as$u20$core..slice..specialize..SpecFill$LT$i32$GT$$GT$9spec_fill17ha943ffffddbf4276E', symObjAddr: 0x0, symBinAddr: 0x6814C, symSize: 0x100 }
  - { offset: 0x19911F, size: 0x8, addend: 0x0, symName: '__ZN78_$LT$$u5b$i32$u5d$$u20$as$u20$core..slice..specialize..SpecFill$LT$i32$GT$$GT$9spec_fill17ha943ffffddbf4276E', symObjAddr: 0x0, symBinAddr: 0x6814C, symSize: 0x100 }
  - { offset: 0x19958A, size: 0x8, addend: 0x0, symName: __ZN4core3cmp10PartialOrd2lt17h25244884f6a6a588E, symObjAddr: 0x0, symBinAddr: 0x6824C, symSize: 0x70 }
  - { offset: 0x199628, size: 0x8, addend: 0x0, symName: '__ZN7managym5state4card14CardDefinition6colors28_$u7b$$u7b$closure$u7d$$u7d$17hd44545fce8aea78cE', symObjAddr: 0x500, symBinAddr: 0x6874C, symSize: 0x24 }
  - { offset: 0x199A5F, size: 0x8, addend: 0x0, symName: __ZN4core3cmp10PartialOrd2lt17h25244884f6a6a588E, symObjAddr: 0x0, symBinAddr: 0x6824C, symSize: 0x70 }
  - { offset: 0x199B27, size: 0x8, addend: 0x0, symName: __ZN4core3cmp9PartialEq2ne17h599781f995ab45abE, symObjAddr: 0x70, symBinAddr: 0x682BC, symSize: 0x30 }
  - { offset: 0x19A1EA, size: 0x8, addend: 0x0, symName: '__ZN4core5array4iter94_$LT$impl$u20$core..iter..traits..collect..IntoIterator$u20$for$u20$$u5b$T$u3b$$u20$N$u5d$$GT$9into_iter17hcd3b539463757ce6E', symObjAddr: 0xA0, symBinAddr: 0x682EC, symSize: 0x58 }
  - { offset: 0x19A5FB, size: 0x8, addend: 0x0, symName: '__ZN4core5slice29_$LT$impl$u20$$u5b$T$u5d$$GT$12split_at_mut17h60e97700cd6583beE', symObjAddr: 0xF8, symBinAddr: 0x68344, symSize: 0xAC }
  - { offset: 0x19A686, size: 0x8, addend: 0x0, symName: '__ZN4core5slice29_$LT$impl$u20$$u5b$T$u5d$$GT$22split_at_mut_unchecked17he3facf3b69df1784E', symObjAddr: 0x1A4, symBinAddr: 0x683F0, symSize: 0xF4 }
  - { offset: 0x19A7DA, size: 0x8, addend: 0x0, symName: '__ZN4core5slice29_$LT$impl$u20$$u5b$T$u5d$$GT$3get17h0f816764f7bbf9e6E', symObjAddr: 0x298, symBinAddr: 0x684E4, symSize: 0x44 }
  - { offset: 0x19A829, size: 0x8, addend: 0x0, symName: '__ZN4core5slice29_$LT$impl$u20$$u5b$T$u5d$$GT$3get17h210605dad4bdd3bcE', symObjAddr: 0x2DC, symBinAddr: 0x68528, symSize: 0x44 }
  - { offset: 0x19A878, size: 0x8, addend: 0x0, symName: '__ZN4core5slice29_$LT$impl$u20$$u5b$T$u5d$$GT$4iter17h6e1d7b3b36e2344aE', symObjAddr: 0x320, symBinAddr: 0x6856C, symSize: 0x28 }
  - { offset: 0x19A8FD, size: 0x8, addend: 0x0, symName: '__ZN4core5slice29_$LT$impl$u20$$u5b$T$u5d$$GT$7reverse17h981097423e45124dE', symObjAddr: 0x348, symBinAddr: 0x68594, symSize: 0x100 }
  - { offset: 0x19ABB6, size: 0x8, addend: 0x0, symName: '__ZN68_$LT$T$u20$as$u20$core..slice..sort..stable..quicksort..IsFreeze$GT$9is_freeze17h3b8041da4e22d18aE', symObjAddr: 0x4F4, symBinAddr: 0x68740, symSize: 0xC }
  - { offset: 0x19B101, size: 0x8, addend: 0x0, symName: '__ZN51_$LT$T$u20$as$u20$core..borrow..Borrow$LT$T$GT$$GT$6borrow17ha92611d47e605eecE', symObjAddr: 0x448, symBinAddr: 0x68694, symSize: 0x14 }
  - { offset: 0x19B652, size: 0x8, addend: 0x0, symName: '__ZN5alloc5slice29_$LT$impl$u20$$u5b$T$u5d$$GT$8into_vec17h593d742cdb175f6cE', symObjAddr: 0x45C, symBinAddr: 0x686A8, symSize: 0x4C }
  - { offset: 0x19B6FC, size: 0x8, addend: 0x0, symName: '__ZN5alloc5slice29_$LT$impl$u20$$u5b$T$u5d$$GT$8into_vec17ha8b036e4167370fcE', symObjAddr: 0x4A8, symBinAddr: 0x686F4, symSize: 0x4C }
  - { offset: 0x19B7B0, size: 0x8, addend: 0x0, symName: '__ZN87_$LT$T$u20$as$u20$alloc..slice..$LT$impl$u20$$u5b$T$u5d$$GT$..to_vec_in..ConvertVec$GT$6to_vec17h686ad6efcb829a83E', symObjAddr: 0x58C, symBinAddr: 0x687D8, symSize: 0x38C }
  - { offset: 0x19BC85, size: 0x8, addend: 0x0, symName: '__ZN87_$LT$T$u20$as$u20$alloc..slice..$LT$impl$u20$$u5b$T$u5d$$GT$..to_vec_in..ConvertVec$GT$6to_vec17h762b89740fee7b04E', symObjAddr: 0x918, symBinAddr: 0x68B64, symSize: 0x378 }
  - { offset: 0x19CBF5, size: 0x8, addend: 0x0, symName: __ZN7managym5state4card9CardTypes3new17h5c012269e05ee586E, symObjAddr: 0x524, symBinAddr: 0x68770, symSize: 0x68 }
  - { offset: 0x19D4D2, size: 0x8, addend: 0x0, symName: __ZN7managym5agent8opponent14OpponentPolicy13select_action17h7032cfd5d93a09d6E, symObjAddr: 0x0, symBinAddr: 0x68EDC, symSize: 0x1A8 }
  - { offset: 0x19D52B, size: 0x8, addend: 0x0, symName: '__ZN81_$LT$managym..agent..opponent..OpponentPolicy$u20$as$u20$core..cmp..PartialEq$GT$2eq17h883d523d36eebacdE', symObjAddr: 0x1A8, symBinAddr: 0x69084, symSize: 0x34 }
  - { offset: 0x1A0E0E, size: 0x8, addend: 0x0, symName: __ZN7managym5agent8opponent14OpponentPolicy13select_action17h7032cfd5d93a09d6E, symObjAddr: 0x0, symBinAddr: 0x68EDC, symSize: 0x1A8 }
  - { offset: 0x1A0EAE, size: 0x8, addend: 0x0, symName: '__ZN66_$LT$i32$u20$as$u20$core..ops..arith..AddAssign$LT$$RF$i32$GT$$GT$10add_assign17hf52d2266c5686777E', symObjAddr: 0x0, symBinAddr: 0x690B8, symSize: 0x64 }
  - { offset: 0x1A0EFB, size: 0x8, addend: 0x0, symName: '__ZN66_$LT$i32$u20$as$u20$core..ops..arith..AddAssign$LT$$RF$i32$GT$$GT$10add_assign17hf52d2266c5686777E', symObjAddr: 0x0, symBinAddr: 0x690B8, symSize: 0x64 }
  - { offset: 0x1A0F91, size: 0x8, addend: 0x0, symName: __ZN4pyo36marker6Python14get_type_bound17h34a297e7a246475fE, symObjAddr: 0x0, symBinAddr: 0x6911C, symSize: 0x1C }
  - { offset: 0x1A2838, size: 0x8, addend: 0x0, symName: __ZN4pyo36marker6Python14get_type_bound17h34a297e7a246475fE, symObjAddr: 0x0, symBinAddr: 0x6911C, symSize: 0x1C }
  - { offset: 0x1A2870, size: 0x8, addend: 0x0, symName: __ZN4pyo36marker6Python14get_type_bound17hd897a1e3df2bd512E, symObjAddr: 0x1C, symBinAddr: 0x69138, symSize: 0x1C }
  - { offset: 0x1A28C9, size: 0x8, addend: 0x0, symName: __ZN4pyo36marker6Python8with_gil17h53cedc44e1ebce7dE, symObjAddr: 0x38, symBinAddr: 0x69154, symSize: 0xD4 }
  - { offset: 0x1A2914, size: 0x8, addend: 0x0, symName: __ZN4pyo36marker6Python8with_gil17h5eaa1caaf8d6732eE, symObjAddr: 0x10C, symBinAddr: 0x69228, symSize: 0xD4 }
  - { offset: 0x1A295F, size: 0x8, addend: 0x0, symName: __ZN4pyo36marker6Python8with_gil17hae9f6ea2cf108631E, symObjAddr: 0x1E0, symBinAddr: 0x692FC, symSize: 0xD4 }
  - { offset: 0x1A29AA, size: 0x8, addend: 0x0, symName: __ZN4pyo36marker6Python8with_gil17hed0780eac76cfa78E, symObjAddr: 0x2B4, symBinAddr: 0x693D0, symSize: 0xD4 }
  - { offset: 0x1A2A13, size: 0x8, addend: 0x0, symName: '__ZN153_$LT$core..result..Result$LT$T$C$F$GT$$u20$as$u20$core..ops..try_trait..FromResidual$LT$core..result..Result$LT$core..convert..Infallible$C$E$GT$$GT$$GT$13from_residual17h01718912afe9bc93E', symObjAddr: 0x0, symBinAddr: 0x694A4, symSize: 0x48 }
  - { offset: 0x1A3EFB, size: 0x8, addend: 0x0, symName: '__ZN88_$LT$core..result..Result$LT$T$C$E$GT$$u20$as$u20$pyo3..impl_..wrap..OkWrap$LT$T$GT$$GT$4wrap17h03ebe79dbbab534fE', symObjAddr: 0xDCFC, symBinAddr: 0x77148, symSize: 0x14 }
  - { offset: 0x1A3F39, size: 0x8, addend: 0x0, symName: '__ZN88_$LT$core..result..Result$LT$T$C$E$GT$$u20$as$u20$pyo3..impl_..wrap..OkWrap$LT$T$GT$$GT$4wrap17h1b1b35616d02a1ccE', symObjAddr: 0xDD10, symBinAddr: 0x7715C, symSize: 0x14 }
  - { offset: 0x1A3F77, size: 0x8, addend: 0x0, symName: '__ZN88_$LT$core..result..Result$LT$T$C$E$GT$$u20$as$u20$pyo3..impl_..wrap..OkWrap$LT$T$GT$$GT$4wrap17h450834ad3e7e9661E', symObjAddr: 0xDD24, symBinAddr: 0x77170, symSize: 0x14 }
  - { offset: 0x1A3FB5, size: 0x8, addend: 0x0, symName: '__ZN88_$LT$core..result..Result$LT$T$C$E$GT$$u20$as$u20$pyo3..impl_..wrap..OkWrap$LT$T$GT$$GT$4wrap17h985db74b3c0a0014E', symObjAddr: 0xDD38, symBinAddr: 0x77184, symSize: 0x14 }
  - { offset: 0x1A3FF3, size: 0x8, addend: 0x0, symName: '__ZN88_$LT$core..result..Result$LT$T$C$E$GT$$u20$as$u20$pyo3..impl_..wrap..OkWrap$LT$T$GT$$GT$4wrap17ha5cdedffcd5e533fE', symObjAddr: 0xDD4C, symBinAddr: 0x77198, symSize: 0x30 }
  - { offset: 0x1A4032, size: 0x8, addend: 0x0, symName: '__ZN88_$LT$core..result..Result$LT$T$C$E$GT$$u20$as$u20$pyo3..impl_..wrap..OkWrap$LT$T$GT$$GT$4wrap17he974f07030fc9829E', symObjAddr: 0xDD7C, symBinAddr: 0x771C8, symSize: 0x14 }
  - { offset: 0x1A4070, size: 0x8, addend: 0x0, symName: '__ZN88_$LT$core..result..Result$LT$T$C$E$GT$$u20$as$u20$pyo3..impl_..wrap..OkWrap$LT$T$GT$$GT$4wrap17hf2727d5e43ca36f8E', symObjAddr: 0xDD90, symBinAddr: 0x771DC, symSize: 0x30 }
  - { offset: 0x1A418E, size: 0x8, addend: 0x0, symName: '__ZN99_$LT$core..result..Result$LT$T$C$E$GT$$u20$as$u20$pyo3..callback..IntoPyCallbackOutput$LT$U$GT$$GT$7convert17h853518f542c5334fE', symObjAddr: 0xDDC0, symBinAddr: 0x7720C, symSize: 0xEC }
  - { offset: 0x1A422C, size: 0x8, addend: 0x0, symName: '__ZN99_$LT$core..result..Result$LT$T$C$E$GT$$u20$as$u20$pyo3..callback..IntoPyCallbackOutput$LT$U$GT$$GT$7convert17hc7b67bc7ae39d44eE', symObjAddr: 0xDEAC, symBinAddr: 0x772F8, symSize: 0x9C }
  - { offset: 0x1A8F91, size: 0x8, addend: 0x0, symName: '__ZN153_$LT$core..result..Result$LT$T$C$F$GT$$u20$as$u20$core..ops..try_trait..FromResidual$LT$core..result..Result$LT$core..convert..Infallible$C$E$GT$$GT$$GT$13from_residual17h01718912afe9bc93E', symObjAddr: 0x0, symBinAddr: 0x694A4, symSize: 0x48 }
  - { offset: 0x1A9016, size: 0x8, addend: 0x0, symName: '__ZN153_$LT$core..result..Result$LT$T$C$F$GT$$u20$as$u20$core..ops..try_trait..FromResidual$LT$core..result..Result$LT$core..convert..Infallible$C$E$GT$$GT$$GT$13from_residual17h037e894290a83635E', symObjAddr: 0x48, symBinAddr: 0x694EC, symSize: 0x40 }
  - { offset: 0x1A907D, size: 0x8, addend: 0x0, symName: '__ZN153_$LT$core..result..Result$LT$T$C$F$GT$$u20$as$u20$core..ops..try_trait..FromResidual$LT$core..result..Result$LT$core..convert..Infallible$C$E$GT$$GT$$GT$13from_residual17h05c22e61475381cbE', symObjAddr: 0x88, symBinAddr: 0x6952C, symSize: 0x48 }
  - { offset: 0x1A9102, size: 0x8, addend: 0x0, symName: '__ZN153_$LT$core..result..Result$LT$T$C$F$GT$$u20$as$u20$core..ops..try_trait..FromResidual$LT$core..result..Result$LT$core..convert..Infallible$C$E$GT$$GT$$GT$13from_residual17h070efb35ea079338E', symObjAddr: 0xD0, symBinAddr: 0x69574, symSize: 0x40 }
  - { offset: 0x1A9169, size: 0x8, addend: 0x0, symName: '__ZN153_$LT$core..result..Result$LT$T$C$F$GT$$u20$as$u20$core..ops..try_trait..FromResidual$LT$core..result..Result$LT$core..convert..Infallible$C$E$GT$$GT$$GT$13from_residual17h09e92a5a04166586E', symObjAddr: 0x110, symBinAddr: 0x695B4, symSize: 0x48 }
  - { offset: 0x1A91EE, size: 0x8, addend: 0x0, symName: '__ZN153_$LT$core..result..Result$LT$T$C$F$GT$$u20$as$u20$core..ops..try_trait..FromResidual$LT$core..result..Result$LT$core..convert..Infallible$C$E$GT$$GT$$GT$13from_residual17h0a33d2b8a7bc8a32E', symObjAddr: 0x158, symBinAddr: 0x695FC, symSize: 0x58 }
  - { offset: 0x1A9256, size: 0x8, addend: 0x0, symName: '__ZN153_$LT$core..result..Result$LT$T$C$F$GT$$u20$as$u20$core..ops..try_trait..FromResidual$LT$core..result..Result$LT$core..convert..Infallible$C$E$GT$$GT$$GT$13from_residual17h0a504ce2ac85e9dbE', symObjAddr: 0x1B0, symBinAddr: 0x69654, symSize: 0x58 }
  - { offset: 0x1A92BE, size: 0x8, addend: 0x0, symName: '__ZN153_$LT$core..result..Result$LT$T$C$F$GT$$u20$as$u20$core..ops..try_trait..FromResidual$LT$core..result..Result$LT$core..convert..Infallible$C$E$GT$$GT$$GT$13from_residual17h0af5a99721943205E', symObjAddr: 0x208, symBinAddr: 0x696AC, symSize: 0x58 }
  - { offset: 0x1A9326, size: 0x8, addend: 0x0, symName: '__ZN153_$LT$core..result..Result$LT$T$C$F$GT$$u20$as$u20$core..ops..try_trait..FromResidual$LT$core..result..Result$LT$core..convert..Infallible$C$E$GT$$GT$$GT$13from_residual17h0c0db6bd35b9167dE', symObjAddr: 0x260, symBinAddr: 0x69704, symSize: 0x48 }
  - { offset: 0x1A93AB, size: 0x8, addend: 0x0, symName: '__ZN153_$LT$core..result..Result$LT$T$C$F$GT$$u20$as$u20$core..ops..try_trait..FromResidual$LT$core..result..Result$LT$core..convert..Infallible$C$E$GT$$GT$$GT$13from_residual17h0edb50ab704a08c9E', symObjAddr: 0x2A8, symBinAddr: 0x6974C, symSize: 0x58 }
  - { offset: 0x1A9413, size: 0x8, addend: 0x0, symName: '__ZN153_$LT$core..result..Result$LT$T$C$F$GT$$u20$as$u20$core..ops..try_trait..FromResidual$LT$core..result..Result$LT$core..convert..Infallible$C$E$GT$$GT$$GT$13from_residual17h0f7f9d289ae019cdE', symObjAddr: 0x300, symBinAddr: 0x697A4, symSize: 0x58 }
  - { offset: 0x1A947B, size: 0x8, addend: 0x0, symName: '__ZN153_$LT$core..result..Result$LT$T$C$F$GT$$u20$as$u20$core..ops..try_trait..FromResidual$LT$core..result..Result$LT$core..convert..Infallible$C$E$GT$$GT$$GT$13from_residual17h12b10ebeb24b17b2E', symObjAddr: 0x358, symBinAddr: 0x697FC, symSize: 0x40 }
  - { offset: 0x1A94E2, size: 0x8, addend: 0x0, symName: '__ZN153_$LT$core..result..Result$LT$T$C$F$GT$$u20$as$u20$core..ops..try_trait..FromResidual$LT$core..result..Result$LT$core..convert..Infallible$C$E$GT$$GT$$GT$13from_residual17h13d6db19adbd9ed6E', symObjAddr: 0x398, symBinAddr: 0x6983C, symSize: 0x58 }
  - { offset: 0x1A954A, size: 0x8, addend: 0x0, symName: '__ZN153_$LT$core..result..Result$LT$T$C$F$GT$$u20$as$u20$core..ops..try_trait..FromResidual$LT$core..result..Result$LT$core..convert..Infallible$C$E$GT$$GT$$GT$13from_residual17h13e56daaa974b043E', symObjAddr: 0x3F0, symBinAddr: 0x69894, symSize: 0x40 }
  - { offset: 0x1A95CF, size: 0x8, addend: 0x0, symName: '__ZN153_$LT$core..result..Result$LT$T$C$F$GT$$u20$as$u20$core..ops..try_trait..FromResidual$LT$core..result..Result$LT$core..convert..Infallible$C$E$GT$$GT$$GT$13from_residual17h14717c3b242f6a2cE', symObjAddr: 0x430, symBinAddr: 0x698D4, symSize: 0x48 }
  - { offset: 0x1A9654, size: 0x8, addend: 0x0, symName: '__ZN153_$LT$core..result..Result$LT$T$C$F$GT$$u20$as$u20$core..ops..try_trait..FromResidual$LT$core..result..Result$LT$core..convert..Infallible$C$E$GT$$GT$$GT$13from_residual17h14bd8532f47b72ebE', symObjAddr: 0x478, symBinAddr: 0x6991C, symSize: 0x58 }
  - { offset: 0x1A96BC, size: 0x8, addend: 0x0, symName: '__ZN153_$LT$core..result..Result$LT$T$C$F$GT$$u20$as$u20$core..ops..try_trait..FromResidual$LT$core..result..Result$LT$core..convert..Infallible$C$E$GT$$GT$$GT$13from_residual17h184e542808ce24c0E', symObjAddr: 0x4D0, symBinAddr: 0x69974, symSize: 0x48 }
  - { offset: 0x1A9741, size: 0x8, addend: 0x0, symName: '__ZN153_$LT$core..result..Result$LT$T$C$F$GT$$u20$as$u20$core..ops..try_trait..FromResidual$LT$core..result..Result$LT$core..convert..Infallible$C$E$GT$$GT$$GT$13from_residual17h198a2185d6b200acE', symObjAddr: 0x518, symBinAddr: 0x699BC, symSize: 0x58 }
  - { offset: 0x1A97A9, size: 0x8, addend: 0x0, symName: '__ZN153_$LT$core..result..Result$LT$T$C$F$GT$$u20$as$u20$core..ops..try_trait..FromResidual$LT$core..result..Result$LT$core..convert..Infallible$C$E$GT$$GT$$GT$13from_residual17h1a9fd90dd5c7e091E', symObjAddr: 0x570, symBinAddr: 0x69A14, symSize: 0x48 }
  - { offset: 0x1A982E, size: 0x8, addend: 0x0, symName: '__ZN153_$LT$core..result..Result$LT$T$C$F$GT$$u20$as$u20$core..ops..try_trait..FromResidual$LT$core..result..Result$LT$core..convert..Infallible$C$E$GT$$GT$$GT$13from_residual17h1ad4ecdfefee889cE', symObjAddr: 0x5C0, symBinAddr: 0x69A5C, symSize: 0x48 }
  - { offset: 0x1A98B3, size: 0x8, addend: 0x0, symName: '__ZN153_$LT$core..result..Result$LT$T$C$F$GT$$u20$as$u20$core..ops..try_trait..FromResidual$LT$core..result..Result$LT$core..convert..Infallible$C$E$GT$$GT$$GT$13from_residual17h1e461460bf0d0f97E', symObjAddr: 0x610, symBinAddr: 0x69AA4, symSize: 0x58 }
  - { offset: 0x1A991B, size: 0x8, addend: 0x0, symName: '__ZN153_$LT$core..result..Result$LT$T$C$F$GT$$u20$as$u20$core..ops..try_trait..FromResidual$LT$core..result..Result$LT$core..convert..Infallible$C$E$GT$$GT$$GT$13from_residual17h21d5ab5f8786c355E', symObjAddr: 0x668, symBinAddr: 0x69AFC, symSize: 0x40 }
  - { offset: 0x1A99A0, size: 0x8, addend: 0x0, symName: '__ZN153_$LT$core..result..Result$LT$T$C$F$GT$$u20$as$u20$core..ops..try_trait..FromResidual$LT$core..result..Result$LT$core..convert..Infallible$C$E$GT$$GT$$GT$13from_residual17h22a540a07d01373cE', symObjAddr: 0x6A8, symBinAddr: 0x69B3C, symSize: 0x40 }
  - { offset: 0x1A9A07, size: 0x8, addend: 0x0, symName: '__ZN153_$LT$core..result..Result$LT$T$C$F$GT$$u20$as$u20$core..ops..try_trait..FromResidual$LT$core..result..Result$LT$core..convert..Infallible$C$E$GT$$GT$$GT$13from_residual17h25671adedcea531eE', symObjAddr: 0x6E8, symBinAddr: 0x69B7C, symSize: 0x58 }
  - { offset: 0x1A9A6F, size: 0x8, addend: 0x0, symName: '__ZN153_$LT$core..result..Result$LT$T$C$F$GT$$u20$as$u20$core..ops..try_trait..FromResidual$LT$core..result..Result$LT$core..convert..Infallible$C$E$GT$$GT$$GT$13from_residual17h26bc1e5a1b7c7fe1E', symObjAddr: 0x748, symBinAddr: 0x69BD4, symSize: 0x48 }
  - { offset: 0x1A9AF4, size: 0x8, addend: 0x0, symName: '__ZN153_$LT$core..result..Result$LT$T$C$F$GT$$u20$as$u20$core..ops..try_trait..FromResidual$LT$core..result..Result$LT$core..convert..Infallible$C$E$GT$$GT$$GT$13from_residual17h27b5140d598fc87eE', symObjAddr: 0x790, symBinAddr: 0x69C1C, symSize: 0x3C }
  - { offset: 0x1A9B79, size: 0x8, addend: 0x0, symName: '__ZN153_$LT$core..result..Result$LT$T$C$F$GT$$u20$as$u20$core..ops..try_trait..FromResidual$LT$core..result..Result$LT$core..convert..Infallible$C$E$GT$$GT$$GT$13from_residual17h291682a82e0367bcE', symObjAddr: 0x7CC, symBinAddr: 0x69C58, symSize: 0x48 }
  - { offset: 0x1A9BFE, size: 0x8, addend: 0x0, symName: '__ZN153_$LT$core..result..Result$LT$T$C$F$GT$$u20$as$u20$core..ops..try_trait..FromResidual$LT$core..result..Result$LT$core..convert..Infallible$C$E$GT$$GT$$GT$13from_residual17h2a3cd30133cd86acE', symObjAddr: 0x814, symBinAddr: 0x69CA0, symSize: 0x40 }
  - { offset: 0x1A9C83, size: 0x8, addend: 0x0, symName: '__ZN153_$LT$core..result..Result$LT$T$C$F$GT$$u20$as$u20$core..ops..try_trait..FromResidual$LT$core..result..Result$LT$core..convert..Infallible$C$E$GT$$GT$$GT$13from_residual17h2ba3ef26f3fe8d0aE', symObjAddr: 0x854, symBinAddr: 0x69CE0, symSize: 0x58 }
  - { offset: 0x1A9CEB, size: 0x8, addend: 0x0, symName: '__ZN153_$LT$core..result..Result$LT$T$C$F$GT$$u20$as$u20$core..ops..try_trait..FromResidual$LT$core..result..Result$LT$core..convert..Infallible$C$E$GT$$GT$$GT$13from_residual17h2bf30829559ad3b4E', symObjAddr: 0x8AC, symBinAddr: 0x69D38, symSize: 0x40 }
  - { offset: 0x1A9D52, size: 0x8, addend: 0x0, symName: '__ZN153_$LT$core..result..Result$LT$T$C$F$GT$$u20$as$u20$core..ops..try_trait..FromResidual$LT$core..result..Result$LT$core..convert..Infallible$C$E$GT$$GT$$GT$13from_residual17h2f38302d5917cc55E', symObjAddr: 0x8EC, symBinAddr: 0x69D78, symSize: 0x48 }
  - { offset: 0x1A9DD7, size: 0x8, addend: 0x0, symName: '__ZN153_$LT$core..result..Result$LT$T$C$F$GT$$u20$as$u20$core..ops..try_trait..FromResidual$LT$core..result..Result$LT$core..convert..Infallible$C$E$GT$$GT$$GT$13from_residual17h3176275380cf30f6E', symObjAddr: 0x934, symBinAddr: 0x69DC0, symSize: 0x48 }
  - { offset: 0x1A9E5C, size: 0x8, addend: 0x0, symName: '__ZN153_$LT$core..result..Result$LT$T$C$F$GT$$u20$as$u20$core..ops..try_trait..FromResidual$LT$core..result..Result$LT$core..convert..Infallible$C$E$GT$$GT$$GT$13from_residual17h31762cb8555db793E', symObjAddr: 0x97C, symBinAddr: 0x69E08, symSize: 0x58 }
  - { offset: 0x1A9EC4, size: 0x8, addend: 0x0, symName: '__ZN153_$LT$core..result..Result$LT$T$C$F$GT$$u20$as$u20$core..ops..try_trait..FromResidual$LT$core..result..Result$LT$core..convert..Infallible$C$E$GT$$GT$$GT$13from_residual17h32c325dd566c461bE', symObjAddr: 0x9D4, symBinAddr: 0x69E60, symSize: 0x40 }
  - { offset: 0x1A9F2B, size: 0x8, addend: 0x0, symName: '__ZN153_$LT$core..result..Result$LT$T$C$F$GT$$u20$as$u20$core..ops..try_trait..FromResidual$LT$core..result..Result$LT$core..convert..Infallible$C$E$GT$$GT$$GT$13from_residual17h36d459fbf6111ceaE', symObjAddr: 0xA1C, symBinAddr: 0x69EA0, symSize: 0x48 }
  - { offset: 0x1A9FB0, size: 0x8, addend: 0x0, symName: '__ZN153_$LT$core..result..Result$LT$T$C$F$GT$$u20$as$u20$core..ops..try_trait..FromResidual$LT$core..result..Result$LT$core..convert..Infallible$C$E$GT$$GT$$GT$13from_residual17h371d648a40497894E', symObjAddr: 0xA64, symBinAddr: 0x69EE8, symSize: 0x48 }
  - { offset: 0x1AA035, size: 0x8, addend: 0x0, symName: '__ZN153_$LT$core..result..Result$LT$T$C$F$GT$$u20$as$u20$core..ops..try_trait..FromResidual$LT$core..result..Result$LT$core..convert..Infallible$C$E$GT$$GT$$GT$13from_residual17h3a41fb0625d473cfE', symObjAddr: 0xAAC, symBinAddr: 0x69F30, symSize: 0x58 }
  - { offset: 0x1AA09D, size: 0x8, addend: 0x0, symName: '__ZN153_$LT$core..result..Result$LT$T$C$F$GT$$u20$as$u20$core..ops..try_trait..FromResidual$LT$core..result..Result$LT$core..convert..Infallible$C$E$GT$$GT$$GT$13from_residual17h3ba48807fd37bdd1E', symObjAddr: 0xB04, symBinAddr: 0x69F88, symSize: 0x48 }
